 OmniMapD

 Timestamp is 5617d447 (Fri Oct 09 15:50:47 2015)

 Preferred load address is 0000000180000000

 Start         Length     Name                   Class
 0001:00000000 00058459H .text                   CODE
 0001:00058460 00006e53H .text$di                CODE
 0001:0005f2c0 002aad3bH .text$mn                CODE
 0001:0030a000 000a21e4H .text$x                 CODE
 0001:003ac1f0 00001143H .text$yc                CODE
 0001:003ad340 00002b55H .text$yd                CODE
 0002:00000000 00000109H .CRT$XCA                DATA
 0002:00000110 00000109H .CRT$XCL                DATA
 0002:00000220 000007f8H .CRT$XCU                DATA
 0002:00000a18 00000109H .CRT$XCZ                DATA
 0002:00000b28 00000109H .CRT$XIA                DATA
 0002:00000c38 00000109H .CRT$XIAA               DATA
 0002:00000d48 00000109H .CRT$XIC                DATA
 0002:00000e58 00000109H .CRT$XIZ                DATA
 0002:00000f70 0008e1a1H .rdata                  DATA
 0002:0008f114 000001b6H .rdata$debug            DATA
 0002:0008f2d0 0000f6bfH .rdata$r                DATA
 0002:0009e990 00000109H .rtc$IAA                DATA
 0002:0009eaa0 000006a9H .rtc$IMZ                DATA
 0002:0009f150 00000109H .rtc$IZZ                DATA
 0002:0009f260 00000109H .rtc$TAA                DATA
 0002:0009f370 000006a9H .rtc$TMZ                DATA
 0002:0009fa20 00000109H .rtc$TZZ                DATA
 0002:0009fb30 000a6f97H .xdata                  DATA
 0002:00146ac8 00000196H .xdata$x                DATA
 0002:00146c60 000083b4H .edata                  DATA
 0003:00000000 0008588fH .data                   DATA
 0003:00085890 00000d34H .data$r                 DATA
 0003:000865d0 00009370H .bss                    DATA
 0004:00000000 00039c3cH .pdata                  DATA
 0005:00000000 000014c8H .idata$5                DATA
 0005:000014c8 00000154H .idata$2                DATA
 0005:0000161c 00000014H .idata$3                DATA
 0005:00001630 000014c8H .idata$4                DATA
 0005:00002af8 00002ae2H .idata$6                DATA
 0006:00000000 00000169H .rsrc$01                DATA
 0006:00000170 000003ecH .rsrc$02                DATA

  Address         Publics by Value              Rva+Base               Lib:Object

 0000:00000000       ___safe_se_handler_table   0000000000000000     <absolute>
 0000:00000000       __guard_fids_table         0000000000000000     <absolute>
 0000:00000000       ___safe_se_handler_count   0000000000000000     <absolute>
 0000:00000000       __guard_fids_count         0000000000000000     <absolute>
 0000:00000000       __guard_flags              0000000000000000     <absolute>
 0000:00000000       __ImageBase                0000000180000000     <linker-defined>
 0001:00008560       D3DX11CreateEffectFromMemory 0000000180009560 f   effects11:EffectAPI.obj
 0001:00008610       ?strchr@@YAPEADPEADH@Z     0000000180009610 f i effects11:EffectNonRuntime.obj
 0001:00008620       IsEqualGUID                0000000180009620 f i effects11:EffectNonRuntime.obj
 0001:00008800       ?AlignToPowerOf2@@YAIII@Z  0000000180009800 f i effects11:EffectNonRuntime.obj
 0001:00008a60       ?IsObjectTypeHelper@D3DX11Effects@@YAHW4EVarType@1@W4EObjectType@1@1@Z 0000000180009a60 f i effects11:EffectNonRuntime.obj
 0001:00008a80       ?IsSamplerHelper@D3DX11Effects@@YAHW4EVarType@1@W4EObjectType@1@@Z 0000000180009a80 f i effects11:EffectNonRuntime.obj
 0001:00008aa0       ?IsStateBlockObjectHelper@D3DX11Effects@@YAHW4EVarType@1@W4EObjectType@1@@Z 0000000180009aa0 f i effects11:EffectNonRuntime.obj
 0001:00008ad0       ?IsObjectType@SType@D3DX11Effects@@QEBAHW4EObjectType@2@@Z 0000000180009ad0 f i effects11:EffectNonRuntime.obj
 0001:00008af0       ?IsStateBlockObject@SType@D3DX11Effects@@QEBAHXZ 0000000180009af0 f i effects11:EffectNonRuntime.obj
 0001:00008b20       ?IsClassInstance@SType@D3DX11Effects@@QEBAHXZ 0000000180009b20 f i effects11:EffectNonRuntime.obj
 0001:00008b40       ??0ID3DX11EffectType@@QEAA@XZ 0000000180009b40 f i effects11:EffectNonRuntime.obj
 0001:00008b50       ??0SVariable@D3DX11Effects@@QEAA@XZ 0000000180009b50 f i effects11:EffectNonRuntime.obj
 0001:00008b80       ??0ID3DX11EffectVariable@@QEAA@XZ 0000000180009b80 f i effects11:EffectNonRuntime.obj
 0001:00008b90       ?AreMappingsEqual@SPointerMapping@D3DX11Effects@@SAHAEBU12@0@Z 0000000180009b90 f i effects11:EffectNonRuntime.obj
 0001:00008ba0       ?Hash@SPointerMapping@D3DX11Effects@@QEAAIXZ 0000000180009ba0 f i effects11:EffectNonRuntime.obj
 0001:00008bb0       ?GetDataStart@CEffectHeap@D3DX11Effects@@QEAAPEAEXZ 0000000180009bb0 f i effects11:EffectNonRuntime.obj
 0001:00008bc0       ?IsInHeap@CEffectHeap@D3DX11Effects@@QEBAHPEAX@Z 0000000180009bc0 f i effects11:EffectNonRuntime.obj
 0001:00008be0       ?IsReflectionData@CEffect@D3DX11Effects@@QEBAHPEAX@Z 0000000180009be0 f i effects11:EffectNonRuntime.obj
 0001:00008c00       ?ConsumeSemanticIndex@CSOParser@D3DX11Effects@@IEAAJPEAD@Z 0000000180009c00 f i effects11:EffectNonRuntime.obj
 0001:00008cb0       ??0SBaseBlock@D3DX11Effects@@QEAA@XZ 0000000180009cb0 f   effects11:EffectNonRuntime.obj
 0001:00008cd0       ??0ID3DX11EffectPass@@QEAA@XZ 0000000180009cd0 f i effects11:EffectNonRuntime.obj
 0001:00008ce0       ??0ID3DX11EffectTechnique@@QEAA@XZ 0000000180009ce0 f i effects11:EffectNonRuntime.obj
 0001:00008cf0       ??0ID3DX11EffectGroup@@QEAA@XZ 0000000180009cf0 f i effects11:EffectNonRuntime.obj
 0001:00008d00       ??0SDepthStencilBlock@D3DX11Effects@@QEAA@XZ 0000000180009d00 f   effects11:EffectNonRuntime.obj
 0001:00008db0       ??0SBlendBlock@D3DX11Effects@@QEAA@XZ 0000000180009db0 f   effects11:EffectNonRuntime.obj
 0001:00008e60       ??0SRasterizerBlock@D3DX11Effects@@QEAA@XZ 0000000180009e60 f   effects11:EffectNonRuntime.obj
 0001:00008ee0       ??0SSamplerBlock@D3DX11Effects@@QEAA@XZ 0000000180009ee0 f   effects11:EffectNonRuntime.obj
 0001:00008f60       ??0SShaderBlock@D3DX11Effects@@QEAA@PEAUSD3DShaderVTable@1@@Z 0000000180009f60 f   effects11:EffectNonRuntime.obj
 0001:00008fb0       ?OnDeviceBind@SShaderBlock@D3DX11Effects@@QEAAJXZ 0000000180009fb0 f   effects11:EffectNonRuntime.obj
 0001:000090c0       ?GetShaderType@SShaderBlock@D3DX11Effects@@QEAA?AW4EObjectType@2@XZ 000000018000a0c0 f   effects11:EffectNonRuntime.obj
 0001:00009140       ?ComputeStateBlockMask@SShaderBlock@D3DX11Effects@@QEAAJPEAU_D3DX11_STATE_BLOCK_MASK@@@Z 000000018000a140 f   effects11:EffectNonRuntime.obj
 0001:000094b0       ?GetShaderDesc@SShaderBlock@D3DX11Effects@@QEAAJPEAU_D3DX11_EFFECT_SHADER_DESC@@H@Z 000000018000a4b0 f   effects11:EffectNonRuntime.obj
 0001:000095a0       ?GetVertexShader@SShaderBlock@D3DX11Effects@@QEAAJPEAPEAUID3D11VertexShader@@@Z 000000018000a5a0 f   effects11:EffectNonRuntime.obj
 0001:000095f0       ?GetGeometryShader@SShaderBlock@D3DX11Effects@@QEAAJPEAPEAUID3D11GeometryShader@@@Z 000000018000a5f0 f   effects11:EffectNonRuntime.obj
 0001:00009650       ?GetPixelShader@SShaderBlock@D3DX11Effects@@QEAAJPEAPEAUID3D11PixelShader@@@Z 000000018000a650 f   effects11:EffectNonRuntime.obj
 0001:000096a0       ?GetHullShader@SShaderBlock@D3DX11Effects@@QEAAJPEAPEAUID3D11HullShader@@@Z 000000018000a6a0 f   effects11:EffectNonRuntime.obj
 0001:000096e0       ?GetDomainShader@SShaderBlock@D3DX11Effects@@QEAAJPEAPEAUID3D11DomainShader@@@Z 000000018000a6e0 f   effects11:EffectNonRuntime.obj
 0001:00009720       ?GetComputeShader@SShaderBlock@D3DX11Effects@@QEAAJPEAPEAUID3D11ComputeShader@@@Z 000000018000a720 f   effects11:EffectNonRuntime.obj
 0001:00009760       ?GetSignatureElementDesc@SShaderBlock@D3DX11Effects@@QEAAJW4ESigType@12@IPEAU_D3D11_SIGNATURE_PARAMETER_DESC@@@Z 000000018000a760 f   effects11:EffectNonRuntime.obj
 0001:00009940       ??0SString@D3DX11Effects@@QEAA@XZ 000000018000a940 f   effects11:EffectNonRuntime.obj
 0001:00009950       ??0SRenderTargetView@D3DX11Effects@@QEAA@XZ 000000018000a950 f   effects11:EffectNonRuntime.obj
 0001:00009960       ??0SDepthStencilView@D3DX11Effects@@QEAA@XZ 000000018000a960 f   effects11:EffectNonRuntime.obj
 0001:00009970       ?GetBlockByIndex@D3DX11Effects@@YAPEAXW4EVarType@1@W4EObjectType@1@PEAXI@Z 000000018000a970 f   effects11:EffectNonRuntime.obj
 0001:00009a40       ??0IUnknown@@QEAA@XZ       000000018000aa40 f i effects11:EffectNonRuntime.obj
 0001:00009a50       ?ReleaseShaderRefection@CEffect@D3DX11Effects@@QEAAXXZ 000000018000aa50 f   effects11:EffectNonRuntime.obj
 0001:00009b00       ??_GCDataBlockStore@@QEAAPEAXI@Z 000000018000ab00 f i effects11:EffectNonRuntime.obj
 0001:00009b30       ??_GCEffectHeap@D3DX11Effects@@QEAAPEAXI@Z 000000018000ab30 f i effects11:EffectNonRuntime.obj
 0001:00009b60       ??1CEffectReflection@D3DX11Effects@@QEAA@XZ 000000018000ab60 f i effects11:EffectNonRuntime.obj
 0001:00009b70       ?AddRefAllForCloning@CEffect@D3DX11Effects@@IEAAXPEAV12@@Z 000000018000ab70 f   effects11:EffectNonRuntime.obj
 0001:00009fa0       ?QueryInterface@CEffect@D3DX11Effects@@UEAAJAEBU_GUID@@PEAPEAX@Z 000000018000afa0 f   effects11:EffectNonRuntime.obj
 0001:0000a030       ?AddRef@CEffect@D3DX11Effects@@UEAAKXZ 000000018000b030 f   effects11:EffectNonRuntime.obj
 0001:0000a040       ?Release@CEffect@D3DX11Effects@@UEAAKXZ 000000018000b040 f   effects11:EffectNonRuntime.obj
 0001:0000a070       ?ReplaceCBReference@CEffect@D3DX11Effects@@IEAAXPEAUSConstantBuffer@2@PEAUID3D11Buffer@@@Z 000000018000b070 f   effects11:EffectNonRuntime.obj
 0001:0000a120       ?ReplaceSamplerReference@CEffect@D3DX11Effects@@IEAAXPEAUSSamplerBlock@2@PEAUID3D11SamplerState@@@Z 000000018000b120 f   effects11:EffectNonRuntime.obj
 0001:0000a1d0       ?FindLocalVariableByName@CEffect@D3DX11Effects@@IEAAPEAUSGlobalVariable@2@PEBD@Z 000000018000b1d0 f   effects11:EffectNonRuntime.obj
 0001:0000a230       ?IsEqual@SType@D3DX11Effects@@QEBAHPEAU12@@Z 000000018000b230 f   effects11:EffectNonRuntime.obj
 0001:0000a360       ?GetTotalUnpackedSize@SType@D3DX11Effects@@QEBAIH@Z 000000018000b360 f   effects11:EffectNonRuntime.obj
 0001:0000a390       ?GetTotalPackedSize@SType@D3DX11Effects@@QEBAIH@Z 000000018000b390 f   effects11:EffectNonRuntime.obj
 0001:0000a3b0       ?FindCB@CEffect@D3DX11Effects@@IEAAPEAUSConstantBuffer@2@PEBD@Z 000000018000b3b0 f   effects11:EffectNonRuntime.obj
 0001:0000a440       ?IsOptimized@CEffect@D3DX11Effects@@UEAAHXZ 000000018000b440 f   effects11:EffectNonRuntime.obj
 0001:0000a450       ?RecreateCBs@CEffect@D3DX11Effects@@IEAAJXZ 000000018000b450 f   effects11:EffectNonRuntime.obj
 0001:0000a630       ??0CEffectReflection@D3DX11Effects@@QEAA@XZ 000000018000b630 f i effects11:EffectNonRuntime.obj
 0001:0000a650       ??0?$TTopLevelVariable@UID3DX11EffectVariable@@@D3DX11Effects@@QEAA@XZ 000000018000b650 f i effects11:EffectNonRuntime.obj
 0001:0000a690       ?GetType@?$TTopLevelVariable@UID3DX11EffectVariable@@@D3DX11Effects@@UEAAPEAUID3DX11EffectType@@XZ 000000018000b690 f i effects11:EffectNonRuntime.obj
 0001:0000a6a0       ??0?$TMember@UID3DX11EffectVariable@@@D3DX11Effects@@QEAA@XZ 000000018000b6a0 f i effects11:EffectNonRuntime.obj
 0001:0000a6e0       ?BelongsInConstantBuffer@SType@D3DX11Effects@@QEBAHXZ 000000018000b6e0 f i effects11:EffectNonRuntime.obj
 0001:0000a700       ?GetType@?$TMember@UID3DX11EffectVariable@@@D3DX11Effects@@UEAAPEAUID3DX11EffectType@@XZ 000000018000b700 f i effects11:EffectNonRuntime.obj
 0001:0000a720       ?GetDesc@?$TMember@UID3DX11EffectVariable@@@D3DX11Effects@@UEAAJPEAU_D3DX11_EFFECT_VARIABLE_DESC@@@Z 000000018000b720 f i effects11:EffectNonRuntime.obj
 0001:0000a7c0       ?GetAnnotationByIndex@?$TMember@UID3DX11EffectVariable@@@D3DX11Effects@@UEAAPEAUID3DX11EffectVariable@@I@Z 000000018000b7c0 f i effects11:EffectNonRuntime.obj
 0001:0000a7d0       ?GetAnnotationByName@?$TMember@UID3DX11EffectVariable@@@D3DX11Effects@@UEAAPEAUID3DX11EffectVariable@@PEBD@Z 000000018000b7d0 f i effects11:EffectNonRuntime.obj
 0001:0000a7e0       ?GetParentConstantBuffer@?$TMember@UID3DX11EffectVariable@@@D3DX11Effects@@UEAAPEAUID3DX11EffectConstantBuffer@@XZ 000000018000b7e0 f i effects11:EffectNonRuntime.obj
 0001:0000a7f0       ??0?$CEffectVector@PEAUSSingleElementType@D3DX11Effects@@@@QEAA@XZ 000000018000b7f0 f i effects11:EffectNonRuntime.obj
 0001:0000a810       ??0?$CEffectVector@PEAUSMember@D3DX11Effects@@@@QEAA@XZ 000000018000b810 f i effects11:EffectNonRuntime.obj
 0001:0000a830       ??A?$CEffectVector@PEAUSMember@D3DX11Effects@@@@QEAAAEAPEAUSMember@D3DX11Effects@@I@Z 000000018000b830 f i effects11:EffectNonRuntime.obj
 0001:0000a840       ?GetSize@?$CEffectVector@PEAUSMember@D3DX11Effects@@@@QEBAIXZ 000000018000b840 f i effects11:EffectNonRuntime.obj
 0001:0000a850       ??0?$CEffectVector@E@@QEAA@XZ 000000018000b850 f i effects11:EffectNonRuntime.obj
 0001:0000a870       ??0?$CEffectVector@PEAUSInterface@D3DX11Effects@@@@QEAA@XZ 000000018000b870 f i effects11:EffectNonRuntime.obj
 0001:0000a890       ??0?$CEffectVector@UD3D11_SO_DECLARATION_ENTRY@@@@QEAA@XZ 000000018000b890 f i effects11:EffectNonRuntime.obj
 0001:0000a8b0       ??A?$CEffectVector@UD3D11_SO_DECLARATION_ENTRY@@@@QEAAAEAUD3D11_SO_DECLARATION_ENTRY@@I@Z 000000018000b8b0 f i effects11:EffectNonRuntime.obj
 0001:0000a8c0       ?GetSize@?$CEffectVector@UD3D11_SO_DECLARATION_ENTRY@@@@QEBAIXZ 000000018000b8c0 f i effects11:EffectNonRuntime.obj
 0001:0000a8d0       ?SetPrivateHeap@?$CEffectHashTableWithPrivateHeap@PEAUSType@D3DX11Effects@@$1?AreTypesEqual@CEffect@2@KAHAEBQEAU12@0@Z@@QEAAXPEAVCDataBlockStore@@@Z 000000018000b8d0 f i effects11:EffectNonRuntime.obj
 0001:0000a8e0       ?AddValueWithHash@?$CEffectHashTableWithPrivateHeap@PEAUSType@D3DX11Effects@@$1?AreTypesEqual@CEffect@2@KAHAEBQEAU12@0@Z@@QEAAJPEAUSType@D3DX11Effects@@I@Z 000000018000b8e0 f i effects11:EffectNonRuntime.obj
 0001:0000a960       ?GetFirstEntry@?$CEffectHashTable@PEAUSType@D3DX11Effects@@$1?AreTypesEqual@CEffect@2@KAHAEBQEAU12@0@Z@@QEAAXPEAVCIterator@1@@Z 000000018000b960 f i effects11:EffectNonRuntime.obj
 0001:0000a9a0       ?PastEnd@?$CEffectHashTable@PEAUSType@D3DX11Effects@@$1?AreTypesEqual@CEffect@2@KAHAEBQEAU12@0@Z@@QEAAHPEAVCIterator@1@@Z 000000018000b9a0 f i effects11:EffectNonRuntime.obj
 0001:0000a9c0       ?GetNextEntry@?$CEffectHashTable@PEAUSType@D3DX11Effects@@$1?AreTypesEqual@CEffect@2@KAHAEBQEAU12@0@Z@@QEAAXPEAVCIterator@1@@Z 000000018000b9c0 f i effects11:EffectNonRuntime.obj
 0001:0000aa10       ?SetPrivateHeap@?$CEffectHashTableWithPrivateHeap@PEBD$1?AreStringsEqual@CEffect@D3DX11Effects@@KAHAEBQEBD0@Z@@QEAAXPEAVCDataBlockStore@@@Z 000000018000ba10 f i effects11:EffectNonRuntime.obj
 0001:0000aa20       ?AddValueWithHash@?$CEffectHashTableWithPrivateHeap@PEBD$1?AreStringsEqual@CEffect@D3DX11Effects@@KAHAEBQEBD0@Z@@QEAAJPEBDI@Z 000000018000ba20 f i effects11:EffectNonRuntime.obj
 0001:0000aaa0       ?GetFirstEntry@?$CEffectHashTable@PEBD$1?AreStringsEqual@CEffect@D3DX11Effects@@KAHAEBQEBD0@Z@@QEAAXPEAVCIterator@1@@Z 000000018000baa0 f i effects11:EffectNonRuntime.obj
 0001:0000aae0       ?PastEnd@?$CEffectHashTable@PEBD$1?AreStringsEqual@CEffect@D3DX11Effects@@KAHAEBQEBD0@Z@@QEAAHPEAVCIterator@1@@Z 000000018000bae0 f i effects11:EffectNonRuntime.obj
 0001:0000ab00       ?GetNextEntry@?$CEffectHashTable@PEBD$1?AreStringsEqual@CEffect@D3DX11Effects@@KAHAEBQEBD0@Z@@QEAAXPEAVCIterator@1@@Z 000000018000bb00 f i effects11:EffectNonRuntime.obj
 0001:0000ab50       ?SetPrivateHeap@?$CEffectHashTableWithPrivateHeap@USPointerMapping@D3DX11Effects@@$1?AreMappingsEqual@12@SAHAEBU12@0@Z@@QEAAXPEAVCDataBlockStore@@@Z 000000018000bb50 f i effects11:EffectNonRuntime.obj
 0001:0000ab60       ?AddValueWithHash@?$CEffectHashTableWithPrivateHeap@USPointerMapping@D3DX11Effects@@$1?AreMappingsEqual@12@SAHAEBU12@0@Z@@QEAAJUSPointerMapping@D3DX11Effects@@I@Z 000000018000bb60 f i effects11:EffectNonRuntime.obj
 0001:0000abe0       ?FindValueWithHash@?$CEffectHashTable@USPointerMapping@D3DX11Effects@@$1?AreMappingsEqual@12@SAHAEBU12@0@Z@@QEAAJUSPointerMapping@D3DX11Effects@@IPEAVCIterator@1@@Z 000000018000bbe0 f i effects11:EffectNonRuntime.obj
 0001:0000ac20       ?GetFirstEntry@?$CEffectHashTable@USPointerMapping@D3DX11Effects@@$1?AreMappingsEqual@12@SAHAEBU12@0@Z@@QEAAXPEAVCIterator@1@@Z 000000018000bc20 f i effects11:EffectNonRuntime.obj
 0001:0000ac60       ?PastEnd@?$CEffectHashTable@USPointerMapping@D3DX11Effects@@$1?AreMappingsEqual@12@SAHAEBU12@0@Z@@QEAAHPEAVCIterator@1@@Z 000000018000bc60 f i effects11:EffectNonRuntime.obj
 0001:0000ac80       ?GetNextEntry@?$CEffectHashTable@USPointerMapping@D3DX11Effects@@$1?AreMappingsEqual@12@SAHAEBU12@0@Z@@QEAAXPEAVCIterator@1@@Z 000000018000bc80 f i effects11:EffectNonRuntime.obj
 0001:0000acd0       ?GetData@CIterator@?$CEffectHashTable@USPointerMapping@D3DX11Effects@@$1?AreMappingsEqual@12@SAHAEBU12@0@Z@@QEAA?AUSPointerMapping@D3DX11Effects@@XZ 000000018000bcd0 f i effects11:EffectNonRuntime.obj
 0001:0000acf0       ?GetData@CIterator@?$CEffectHashTable@PEBD$1?AreStringsEqual@CEffect@D3DX11Effects@@KAHAEBQEBD0@Z@@QEAAPEBDXZ 000000018000bcf0 f i effects11:EffectNonRuntime.obj
 0001:0000ad00       ?GetData@CIterator@?$CEffectHashTable@PEAUSType@D3DX11Effects@@$1?AreTypesEqual@CEffect@2@KAHAEBQEAU12@0@Z@@QEAAPEAUSType@D3DX11Effects@@XZ 000000018000bd00 f i effects11:EffectNonRuntime.obj
 0001:0000ad10       ??0?$CheckedNumber@I$0PPPPPPPP@@@QEAA@AEBI@Z 000000018000bd10 f i effects11:EffectNonRuntime.obj
 0001:0000ad20       ??Y?$CheckedNumber@I$0PPPPPPPP@@@QEAAAEAV0@AEBV0@@Z 000000018000bd20 f i effects11:EffectNonRuntime.obj
 0001:0000ad40       ?GetValue@?$CheckedNumber@I$0PPPPPPPP@@@QEAAJPEAI@Z 000000018000bd40 f i effects11:EffectNonRuntime.obj
 0001:0000ad60       ??0ID3DX11EffectScalarVariable@@QEAA@XZ 000000018000bd60 f i effects11:EffectNonRuntime.obj
 0001:0000ad70       ??0ID3DX11EffectVectorVariable@@QEAA@XZ 000000018000bd70 f i effects11:EffectNonRuntime.obj
 0001:0000ad80       ??0ID3DX11EffectMatrixVariable@@QEAA@XZ 000000018000bd80 f i effects11:EffectNonRuntime.obj
 0001:0000ad90       ??0ID3DX11EffectStringVariable@@QEAA@XZ 000000018000bd90 f i effects11:EffectNonRuntime.obj
 0001:0000ada0       ??0ID3DX11EffectClassInstanceVariable@@QEAA@XZ 000000018000bda0 f i effects11:EffectNonRuntime.obj
 0001:0000adb0       ??0ID3DX11EffectInterfaceVariable@@QEAA@XZ 000000018000bdb0 f i effects11:EffectNonRuntime.obj
 0001:0000adc0       ??0ID3DX11EffectShaderResourceVariable@@QEAA@XZ 000000018000bdc0 f i effects11:EffectNonRuntime.obj
 0001:0000add0       ??0ID3DX11EffectUnorderedAccessViewVariable@@QEAA@XZ 000000018000bdd0 f i effects11:EffectNonRuntime.obj
 0001:0000ade0       ??0ID3DX11EffectRenderTargetViewVariable@@QEAA@XZ 000000018000bde0 f i effects11:EffectNonRuntime.obj
 0001:0000adf0       ??0ID3DX11EffectDepthStencilViewVariable@@QEAA@XZ 000000018000bdf0 f i effects11:EffectNonRuntime.obj
 0001:0000ae00       ??0ID3DX11EffectShaderVariable@@QEAA@XZ 000000018000be00 f i effects11:EffectNonRuntime.obj
 0001:0000ae10       ??0ID3DX11EffectBlendVariable@@QEAA@XZ 000000018000be10 f i effects11:EffectNonRuntime.obj
 0001:0000ae20       ??0ID3DX11EffectDepthStencilVariable@@QEAA@XZ 000000018000be20 f i effects11:EffectNonRuntime.obj
 0001:0000ae30       ??0ID3DX11EffectRasterizerVariable@@QEAA@XZ 000000018000be30 f i effects11:EffectNonRuntime.obj
 0001:0000ae40       ??0ID3DX11EffectSamplerVariable@@QEAA@XZ 000000018000be40 f i effects11:EffectNonRuntime.obj
 0001:0000ae50       ??0?$TTopLevelVariable@UID3DX11EffectClassInstanceVariable@@@D3DX11Effects@@QEAA@XZ 000000018000be50 f i effects11:EffectNonRuntime.obj
 0001:0000ae90       ?GetType@?$TTopLevelVariable@UID3DX11EffectClassInstanceVariable@@@D3DX11Effects@@UEAAPEAUID3DX11EffectType@@XZ 000000018000be90 f i effects11:EffectNonRuntime.obj
 0001:0000aea0       ??0?$TTopLevelVariable@UID3DX11EffectInterfaceVariable@@@D3DX11Effects@@QEAA@XZ 000000018000bea0 f i effects11:EffectNonRuntime.obj
 0001:0000aee0       ?GetType@?$TTopLevelVariable@UID3DX11EffectInterfaceVariable@@@D3DX11Effects@@UEAAPEAUID3DX11EffectType@@XZ 000000018000bee0 f i effects11:EffectNonRuntime.obj
 0001:0000aef0       ??0?$TTopLevelVariable@UID3DX11EffectShaderResourceVariable@@@D3DX11Effects@@QEAA@XZ 000000018000bef0 f i effects11:EffectNonRuntime.obj
 0001:0000af30       ?GetType@?$TTopLevelVariable@UID3DX11EffectShaderResourceVariable@@@D3DX11Effects@@UEAAPEAUID3DX11EffectType@@XZ 000000018000bf30 f i effects11:EffectNonRuntime.obj
 0001:0000af40       ??0?$TTopLevelVariable@UID3DX11EffectUnorderedAccessViewVariable@@@D3DX11Effects@@QEAA@XZ 000000018000bf40 f i effects11:EffectNonRuntime.obj
 0001:0000af80       ?GetType@?$TTopLevelVariable@UID3DX11EffectUnorderedAccessViewVariable@@@D3DX11Effects@@UEAAPEAUID3DX11EffectType@@XZ 000000018000bf80 f i effects11:EffectNonRuntime.obj
 0001:0000af90       ??0?$TTopLevelVariable@UID3DX11EffectRenderTargetViewVariable@@@D3DX11Effects@@QEAA@XZ 000000018000bf90 f i effects11:EffectNonRuntime.obj
 0001:0000afd0       ?GetType@?$TTopLevelVariable@UID3DX11EffectRenderTargetViewVariable@@@D3DX11Effects@@UEAAPEAUID3DX11EffectType@@XZ 000000018000bfd0 f i effects11:EffectNonRuntime.obj
 0001:0000afe0       ??0?$TTopLevelVariable@UID3DX11EffectDepthStencilViewVariable@@@D3DX11Effects@@QEAA@XZ 000000018000bfe0 f i effects11:EffectNonRuntime.obj
 0001:0000b020       ?GetType@?$TTopLevelVariable@UID3DX11EffectDepthStencilViewVariable@@@D3DX11Effects@@UEAAPEAUID3DX11EffectType@@XZ 000000018000c020 f i effects11:EffectNonRuntime.obj
 0001:0000b030       ??0?$TTopLevelVariable@UID3DX11EffectShaderVariable@@@D3DX11Effects@@QEAA@XZ 000000018000c030 f i effects11:EffectNonRuntime.obj
 0001:0000b070       ?GetType@?$TTopLevelVariable@UID3DX11EffectShaderVariable@@@D3DX11Effects@@UEAAPEAUID3DX11EffectType@@XZ 000000018000c070 f i effects11:EffectNonRuntime.obj
 0001:0000b080       ??0?$TTopLevelVariable@UID3DX11EffectBlendVariable@@@D3DX11Effects@@QEAA@XZ 000000018000c080 f i effects11:EffectNonRuntime.obj
 0001:0000b0c0       ?GetType@?$TTopLevelVariable@UID3DX11EffectBlendVariable@@@D3DX11Effects@@UEAAPEAUID3DX11EffectType@@XZ 000000018000c0c0 f i effects11:EffectNonRuntime.obj
 0001:0000b0d0       ??0?$TTopLevelVariable@UID3DX11EffectDepthStencilVariable@@@D3DX11Effects@@QEAA@XZ 000000018000c0d0 f i effects11:EffectNonRuntime.obj
 0001:0000b110       ?GetType@?$TTopLevelVariable@UID3DX11EffectDepthStencilVariable@@@D3DX11Effects@@UEAAPEAUID3DX11EffectType@@XZ 000000018000c110 f i effects11:EffectNonRuntime.obj
 0001:0000b120       ??0?$TTopLevelVariable@UID3DX11EffectRasterizerVariable@@@D3DX11Effects@@QEAA@XZ 000000018000c120 f i effects11:EffectNonRuntime.obj
 0001:0000b160       ?GetType@?$TTopLevelVariable@UID3DX11EffectRasterizerVariable@@@D3DX11Effects@@UEAAPEAUID3DX11EffectType@@XZ 000000018000c160 f i effects11:EffectNonRuntime.obj
 0001:0000b170       ??0?$TTopLevelVariable@UID3DX11EffectSamplerVariable@@@D3DX11Effects@@QEAA@XZ 000000018000c170 f i effects11:EffectNonRuntime.obj
 0001:0000b1b0       ?GetType@?$TTopLevelVariable@UID3DX11EffectSamplerVariable@@@D3DX11Effects@@UEAAPEAUID3DX11EffectType@@XZ 000000018000c1b0 f i effects11:EffectNonRuntime.obj
 0001:0000b1c0       ?Reserve@?$CEffectVector@PEAUSMember@D3DX11Effects@@@@IEAAJI@Z 000000018000c1c0 f i effects11:EffectNonRuntime.obj
 0001:0000b270       ?Empty@?$CEffectVector@UD3D11_SO_DECLARATION_ENTRY@@@@QEAAXXZ 000000018000c270 f i effects11:EffectNonRuntime.obj
 0001:0000b280       ??0?$CEffectHashTable@PEAUSType@D3DX11Effects@@$1?AreTypesEqual@CEffect@2@KAHAEBQEAU12@0@Z@@QEAA@XZ 000000018000c280 f i effects11:EffectNonRuntime.obj
 0001:0000b2a0       ??0?$CEffectHashTable@PEBD$1?AreStringsEqual@CEffect@D3DX11Effects@@KAHAEBQEBD0@Z@@QEAA@XZ 000000018000c2a0 f i effects11:EffectNonRuntime.obj
 0001:0000b2c0       ??0?$CEffectHashTable@USPointerMapping@D3DX11Effects@@$1?AreMappingsEqual@12@SAHAEBU12@0@Z@@QEAA@XZ 000000018000c2c0 f i effects11:EffectNonRuntime.obj
 0001:0000b2e0       ?Empty@?$CEffectVectorOwner@USSingleElementType@D3DX11Effects@@@@QEAAXXZ 000000018000c2e0 f i effects11:EffectNonRuntime.obj
 0001:0000b360       ?Empty@?$CEffectVector@PEAUSSingleElementType@D3DX11Effects@@@@QEAAXXZ 000000018000c360 f i effects11:EffectNonRuntime.obj
 0001:0000b370       ?Empty@?$CEffectVectorOwner@USMember@D3DX11Effects@@@@QEAAXXZ 000000018000c370 f i effects11:EffectNonRuntime.obj
 0001:0000b3f0       ?Empty@?$CEffectVector@PEAUSMember@D3DX11Effects@@@@QEAAXXZ 000000018000c3f0 f i effects11:EffectNonRuntime.obj
 0001:0000b400       ?Empty@?$CEffectVector@E@@QEAAXXZ 000000018000c400 f i effects11:EffectNonRuntime.obj
 0001:0000b410       ?Empty@?$CEffectVector@PEAUSInterface@D3DX11Effects@@@@QEAAXXZ 000000018000c410 f i effects11:EffectNonRuntime.obj
 0001:0000b420       ?Reserve@?$CEffectVector@UD3D11_SO_DECLARATION_ENTRY@@@@IEAAJI@Z 000000018000c420 f i effects11:EffectNonRuntime.obj
 0001:0000b4e0       ?CleanArray@?$CEffectHashTable@PEAUSType@D3DX11Effects@@$1?AreTypesEqual@CEffect@2@KAHAEBQEAU12@0@Z@@IEAAXXZ 000000018000c4e0 f i effects11:EffectNonRuntime.obj
 0001:0000b510       ?Cleanup@?$CEffectHashTable@PEAUSType@D3DX11Effects@@$1?AreTypesEqual@CEffect@2@KAHAEBQEAU12@0@Z@@QEAAXXZ 000000018000c510 f i effects11:EffectNonRuntime.obj
 0001:0000b5a0       ?GetNextHashTableSize@?$CEffectHashTable@PEAUSType@D3DX11Effects@@$1?AreTypesEqual@CEffect@2@KAHAEBQEAU12@0@Z@@SAII@Z 000000018000c5a0 f i effects11:EffectNonRuntime.obj
 0001:0000b5d0       ?CleanArray@?$CEffectHashTable@PEBD$1?AreStringsEqual@CEffect@D3DX11Effects@@KAHAEBQEBD0@Z@@IEAAXXZ 000000018000c5d0 f i effects11:EffectNonRuntime.obj
 0001:0000b600       ?Cleanup@?$CEffectHashTable@PEBD$1?AreStringsEqual@CEffect@D3DX11Effects@@KAHAEBQEBD0@Z@@QEAAXXZ 000000018000c600 f i effects11:EffectNonRuntime.obj
 0001:0000b690       ?GetNextHashTableSize@?$CEffectHashTable@PEBD$1?AreStringsEqual@CEffect@D3DX11Effects@@KAHAEBQEBD0@Z@@SAII@Z 000000018000c690 f i effects11:EffectNonRuntime.obj
 0001:0000b6c0       ?CleanArray@?$CEffectHashTable@USPointerMapping@D3DX11Effects@@$1?AreMappingsEqual@12@SAHAEBU12@0@Z@@IEAAXXZ 000000018000c6c0 f i effects11:EffectNonRuntime.obj
 0001:0000b6f0       ?Cleanup@?$CEffectHashTable@USPointerMapping@D3DX11Effects@@$1?AreMappingsEqual@12@SAHAEBU12@0@Z@@QEAAXXZ 000000018000c6f0 f i effects11:EffectNonRuntime.obj
 0001:0000b780       ?GetNextHashTableSize@?$CEffectHashTable@USPointerMapping@D3DX11Effects@@$1?AreMappingsEqual@12@SAHAEBU12@0@Z@@SAII@Z 000000018000c780 f i effects11:EffectNonRuntime.obj
 0001:0000b7b0       ?GetHash@CIterator@?$CEffectHashTable@USPointerMapping@D3DX11Effects@@$1?AreMappingsEqual@12@SAHAEBU12@0@Z@@QEAAIXZ 000000018000c7b0 f i effects11:EffectNonRuntime.obj
 0001:0000b7c0       ?GetHash@CIterator@?$CEffectHashTable@PEBD$1?AreStringsEqual@CEffect@D3DX11Effects@@KAHAEBQEBD0@Z@@QEAAIXZ 000000018000c7c0 f i effects11:EffectNonRuntime.obj
 0001:0000b7d0       ?GetHash@CIterator@?$CEffectHashTable@PEAUSType@D3DX11Effects@@$1?AreTypesEqual@CEffect@2@KAHAEBQEAU12@0@Z@@QEAAIXZ 000000018000c7d0 f i effects11:EffectNonRuntime.obj
 0001:0000b7e0       ?StringCchCopyA@@YAJPEAD_KPEBD@Z 000000018000c7e0 f i effects11:EffectNonRuntime.obj
 0001:0000b860       ?StringCchCatA@@YAJPEAD_KPEBD@Z 000000018000c860 f i effects11:EffectNonRuntime.obj
 0001:0000b940       ?StringCchPrintfA@@YAJPEAD_KPEBDZZ 000000018000c940 f i effects11:EffectNonRuntime.obj
 0001:0000b9c0       ??0SType@D3DX11Effects@@QEAA@XZ 000000018000c9c0 f i effects11:EffectNonRuntime.obj
 0001:0000b9f0       ?IsValid@SType@D3DX11Effects@@UEAAHXZ 000000018000c9f0 f i effects11:EffectNonRuntime.obj
 0001:0000ba00       ?GetDesc@SType@D3DX11Effects@@UEAAJPEAU_D3DX11_EFFECT_TYPE_DESC@@@Z 000000018000ca00 f i effects11:EffectNonRuntime.obj
 0001:0000ba10       ?GetDeclArray@CSOParser@D3DX11Effects@@QEAAPEAUD3D11_SO_DECLARATION_ENTRY@@XZ 000000018000ca10 f i effects11:EffectNonRuntime.obj
 0001:0000ba20       ?GetDeclCount@CSOParser@D3DX11Effects@@QEBAIXZ 000000018000ca20 f i effects11:EffectNonRuntime.obj
 0001:0000ba30       ?GetStrides@CSOParser@D3DX11Effects@@QEAAXQEAI@Z 000000018000ca30 f i effects11:EffectNonRuntime.obj
 0001:0000ba80       ?ConsumeRegisterMask@CSOParser@D3DX11Effects@@IEAAJPEAD@Z 000000018000ca80 f i effects11:EffectNonRuntime.obj
 0001:0000bb60       ?ConsumeOutputSlot@CSOParser@D3DX11Effects@@IEAAJPEAPEAD@Z 000000018000cb60 f i effects11:EffectNonRuntime.obj
 0001:0000bcd0       ??0SPassBlock@D3DX11Effects@@QEAA@XZ 000000018000ccd0 f   effects11:EffectNonRuntime.obj
 0001:0000bd40       ??0STechnique@D3DX11Effects@@QEAA@XZ 000000018000cd40 f   effects11:EffectNonRuntime.obj
 0001:0000bd70       ??0SGroup@D3DX11Effects@@QEAA@XZ 000000018000cd70 f   effects11:EffectNonRuntime.obj
 0001:0000bda0       ??0ID3DX11Effect@@QEAA@XZ  000000018000cda0 f i effects11:EffectNonRuntime.obj
 0001:0000bdb0       ??_GCEffectReflection@D3DX11Effects@@QEAAPEAXI@Z 000000018000cdb0 f i effects11:EffectNonRuntime.obj
 0001:0000bde0       ?FindVariableByNameWithParsing@CEffect@D3DX11Effects@@IEAAPEAUSVariable@2@PEBD@Z 000000018000cde0 f   effects11:EffectNonRuntime.obj
 0001:0000bf90       ?FindVariableByName@CEffect@D3DX11Effects@@IEAAPEAUSGlobalVariable@2@PEBD@Z 000000018000cf90 f   effects11:EffectNonRuntime.obj
 0001:0000c130       ?CopyOptimizedTypePool@CEffect@D3DX11Effects@@IEAAJPEAV12@AEAV?$CEffectHashTableWithPrivateHeap@USPointerMapping@D3DX11Effects@@$1?AreMappingsEqual@12@SAHAEBU12@0@Z@@@Z 000000018000d130 f   effects11:EffectNonRuntime.obj
 0001:0000c3c0       ?FixupMemberInterface@CEffect@D3DX11Effects@@IEAAJPEAUSMember@2@PEAV12@AEAV?$CEffectHashTableWithPrivateHeap@USPointerMapping@D3DX11Effects@@$1?AreMappingsEqual@12@SAHAEBU12@0@Z@@@Z 000000018000d3c0 f   effects11:EffectNonRuntime.obj
 0001:0000c490       ?OptimizeTypes@CEffect@D3DX11Effects@@IEAAJPEAV?$CEffectHashTableWithPrivateHeap@USPointerMapping@D3DX11Effects@@$1?AreMappingsEqual@12@SAHAEBU12@0@Z@@_N@Z 000000018000d490 f   effects11:EffectNonRuntime.obj
 0001:0000ca80       ??0?$TVariable@U?$TMember@UID3DX11EffectVariable@@@D3DX11Effects@@@D3DX11Effects@@QEAA@XZ 000000018000da80 f i effects11:EffectNonRuntime.obj
 0001:0000cac0       ?IsShaderHelper@D3DX11Effects@@YAHW4EVarType@1@W4EObjectType@1@@Z 000000018000dac0 f i effects11:EffectNonRuntime.obj
 0001:0000cb00       ?IsInterfaceHelper@D3DX11Effects@@YAHW4EVarType@1@W4EObjectType@1@@Z 000000018000db00 f i effects11:EffectNonRuntime.obj
 0001:0000cb10       ?IsShaderResourceHelper@D3DX11Effects@@YAHW4EVarType@1@W4EObjectType@1@@Z 000000018000db10 f i effects11:EffectNonRuntime.obj
 0001:0000cb60       ?IsUnorderedAccessViewHelper@D3DX11Effects@@YAHW4EVarType@1@W4EObjectType@1@@Z 000000018000db60 f i effects11:EffectNonRuntime.obj
 0001:0000cbb0       ?IsRenderTargetViewHelper@D3DX11Effects@@YAHW4EVarType@1@W4EObjectType@1@@Z 000000018000dbb0 f i effects11:EffectNonRuntime.obj
 0001:0000cbd0       ?IsDepthStencilViewHelper@D3DX11Effects@@YAHW4EVarType@1@W4EObjectType@1@@Z 000000018000dbd0 f i effects11:EffectNonRuntime.obj
 0001:0000cbf0       ?IsShader@SType@D3DX11Effects@@QEBAHXZ 000000018000dbf0 f i effects11:EffectNonRuntime.obj
 0001:0000cc40       ?IsInterface@SType@D3DX11Effects@@QEBAHXZ 000000018000dc40 f i effects11:EffectNonRuntime.obj
 0001:0000cc50       ?IsShaderResource@SType@D3DX11Effects@@QEBAHXZ 000000018000dc50 f i effects11:EffectNonRuntime.obj
 0001:0000ccb0       ?IsUnorderedAccessView@SType@D3DX11Effects@@QEBAHXZ 000000018000dcb0 f i effects11:EffectNonRuntime.obj
 0001:0000cd00       ?IsSampler@SType@D3DX11Effects@@QEBAHXZ 000000018000dd00 f i effects11:EffectNonRuntime.obj
 0001:0000cd20       ?IsRenderTargetView@SType@D3DX11Effects@@QEBAHXZ 000000018000dd20 f i effects11:EffectNonRuntime.obj
 0001:0000cd40       ?IsDepthStencilView@SType@D3DX11Effects@@QEBAHXZ 000000018000dd40 f i effects11:EffectNonRuntime.obj
 0001:0000cd80       ?IsValid@?$TVariable@U?$TMember@UID3DX11EffectVariable@@@D3DX11Effects@@@D3DX11Effects@@UEAAHXZ 000000018000dd80 f i effects11:EffectNonRuntime.obj
 0001:0000cd90       ?AsScalar@?$TVariable@U?$TMember@UID3DX11EffectVariable@@@D3DX11Effects@@@D3DX11Effects@@UEAAPEAUID3DX11EffectScalarVariable@@XZ 000000018000dd90 f i effects11:EffectNonRuntime.obj
 0001:0000cdb0       ?AsVector@?$TVariable@U?$TMember@UID3DX11EffectVariable@@@D3DX11Effects@@@D3DX11Effects@@UEAAPEAUID3DX11EffectVectorVariable@@XZ 000000018000ddb0 f i effects11:EffectNonRuntime.obj
 0001:0000cdd0       ?AsMatrix@?$TVariable@U?$TMember@UID3DX11EffectVariable@@@D3DX11Effects@@@D3DX11Effects@@UEAAPEAUID3DX11EffectMatrixVariable@@XZ 000000018000ddd0 f i effects11:EffectNonRuntime.obj
 0001:0000cdf0       ?AsString@?$TVariable@U?$TMember@UID3DX11EffectVariable@@@D3DX11Effects@@@D3DX11Effects@@UEAAPEAUID3DX11EffectStringVariable@@XZ 000000018000ddf0 f i effects11:EffectNonRuntime.obj
 0001:0000ce10       ?AsClassInstance@?$TVariable@U?$TMember@UID3DX11EffectVariable@@@D3DX11Effects@@@D3DX11Effects@@UEAAPEAUID3DX11EffectClassInstanceVariable@@XZ 000000018000de10 f i effects11:EffectNonRuntime.obj
 0001:0000ce40       ?AsInterface@?$TVariable@U?$TMember@UID3DX11EffectVariable@@@D3DX11Effects@@@D3DX11Effects@@UEAAPEAUID3DX11EffectInterfaceVariable@@XZ 000000018000de40 f i effects11:EffectNonRuntime.obj
 0001:0000ce60       ?AsShaderResource@?$TVariable@U?$TMember@UID3DX11EffectVariable@@@D3DX11Effects@@@D3DX11Effects@@UEAAPEAUID3DX11EffectShaderResourceVariable@@XZ 000000018000de60 f i effects11:EffectNonRuntime.obj
 0001:0000cec0       ?AsUnorderedAccessView@?$TVariable@U?$TMember@UID3DX11EffectVariable@@@D3DX11Effects@@@D3DX11Effects@@UEAAPEAUID3DX11EffectUnorderedAccessViewVariable@@XZ 000000018000dec0 f i effects11:EffectNonRuntime.obj
 0001:0000cf20       ?AsRenderTargetView@?$TVariable@U?$TMember@UID3DX11EffectVariable@@@D3DX11Effects@@@D3DX11Effects@@UEAAPEAUID3DX11EffectRenderTargetViewVariable@@XZ 000000018000df20 f i effects11:EffectNonRuntime.obj
 0001:0000cf40       ?AsDepthStencilView@?$TVariable@U?$TMember@UID3DX11EffectVariable@@@D3DX11Effects@@@D3DX11Effects@@UEAAPEAUID3DX11EffectDepthStencilViewVariable@@XZ 000000018000df40 f i effects11:EffectNonRuntime.obj
 0001:0000cf60       ?AsConstantBuffer@?$TVariable@U?$TMember@UID3DX11EffectVariable@@@D3DX11Effects@@@D3DX11Effects@@UEAAPEAUID3DX11EffectConstantBuffer@@XZ 000000018000df60 f i effects11:EffectNonRuntime.obj
 0001:0000cf70       ?AsShader@?$TVariable@U?$TMember@UID3DX11EffectVariable@@@D3DX11Effects@@@D3DX11Effects@@UEAAPEAUID3DX11EffectShaderVariable@@XZ 000000018000df70 f i effects11:EffectNonRuntime.obj
 0001:0000cfc0       ?AsBlend@?$TVariable@U?$TMember@UID3DX11EffectVariable@@@D3DX11Effects@@@D3DX11Effects@@UEAAPEAUID3DX11EffectBlendVariable@@XZ 000000018000dfc0 f i effects11:EffectNonRuntime.obj
 0001:0000cfe0       ?AsDepthStencil@?$TVariable@U?$TMember@UID3DX11EffectVariable@@@D3DX11Effects@@@D3DX11Effects@@UEAAPEAUID3DX11EffectDepthStencilVariable@@XZ 000000018000dfe0 f i effects11:EffectNonRuntime.obj
 0001:0000d000       ?AsRasterizer@?$TVariable@U?$TMember@UID3DX11EffectVariable@@@D3DX11Effects@@@D3DX11Effects@@UEAAPEAUID3DX11EffectRasterizerVariable@@XZ 000000018000e000 f i effects11:EffectNonRuntime.obj
 0001:0000d020       ?AsSampler@?$TVariable@U?$TMember@UID3DX11EffectVariable@@@D3DX11Effects@@@D3DX11Effects@@UEAAPEAUID3DX11EffectSamplerVariable@@XZ 000000018000e020 f i effects11:EffectNonRuntime.obj
 0001:0000d040       ?SetRawValue@?$TVariable@U?$TMember@UID3DX11EffectVariable@@@D3DX11Effects@@@D3DX11Effects@@UEAAJPEBXII@Z 000000018000e040 f i effects11:EffectNonRuntime.obj
 0001:0000d050       ?GetRawValue@?$TVariable@U?$TMember@UID3DX11EffectVariable@@@D3DX11Effects@@@D3DX11Effects@@UEAAJPEAXII@Z 000000018000e050 f i effects11:EffectNonRuntime.obj
 0001:0000d060       ?GetTopLevelEntity@?$TMember@UID3DX11EffectVariable@@@D3DX11Effects@@QEAAPEAU?$TTopLevelVariable@UID3DX11EffectVariable@@@2@XZ 000000018000e060 f i effects11:EffectNonRuntime.obj
 0001:0000d070       ?IsArray@?$TMember@UID3DX11EffectVariable@@@D3DX11Effects@@QEAAHXZ 000000018000e070 f i effects11:EffectNonRuntime.obj
 0001:0000d090       ??$GetVariableByIndexHelper@USVariable@D3DX11Effects@@@D3DX11Effects@@YAHIIPEAUSVariable@0@PEAEPEAPEAU10@PEAPEAX@Z 000000018000e090 f i effects11:EffectNonRuntime.obj
 0001:0000d0d0       ??$GetVariableByNameHelper@USVariable@D3DX11Effects@@@D3DX11Effects@@YAHPEBDIPEAUSVariable@0@PEAEPEAPEAU10@PEAPEAXPEAI@Z 000000018000e0d0 f i effects11:EffectNonRuntime.obj
 0001:0000d1e0       ??$GetVariableBySemanticHelper@USVariable@D3DX11Effects@@@D3DX11Effects@@YAHPEBDIPEAUSVariable@0@PEAEPEAPEAU10@PEAPEAXPEAI@Z 000000018000e1e0 f i effects11:EffectNonRuntime.obj
 0001:0000d2a0       ??0?$TVariable@U?$TTopLevelVariable@UID3DX11EffectVariable@@@D3DX11Effects@@@D3DX11Effects@@QEAA@XZ 000000018000e2a0 f i effects11:EffectNonRuntime.obj
 0001:0000d2e0       ?IsValid@?$TVariable@U?$TTopLevelVariable@UID3DX11EffectVariable@@@D3DX11Effects@@@D3DX11Effects@@UEAAHXZ 000000018000e2e0 f i effects11:EffectNonRuntime.obj
 0001:0000d2f0       ?AsScalar@?$TVariable@U?$TTopLevelVariable@UID3DX11EffectVariable@@@D3DX11Effects@@@D3DX11Effects@@UEAAPEAUID3DX11EffectScalarVariable@@XZ 000000018000e2f0 f i effects11:EffectNonRuntime.obj
 0001:0000d310       ?AsVector@?$TVariable@U?$TTopLevelVariable@UID3DX11EffectVariable@@@D3DX11Effects@@@D3DX11Effects@@UEAAPEAUID3DX11EffectVectorVariable@@XZ 000000018000e310 f i effects11:EffectNonRuntime.obj
 0001:0000d330       ?AsMatrix@?$TVariable@U?$TTopLevelVariable@UID3DX11EffectVariable@@@D3DX11Effects@@@D3DX11Effects@@UEAAPEAUID3DX11EffectMatrixVariable@@XZ 000000018000e330 f i effects11:EffectNonRuntime.obj
 0001:0000d350       ?AsString@?$TVariable@U?$TTopLevelVariable@UID3DX11EffectVariable@@@D3DX11Effects@@@D3DX11Effects@@UEAAPEAUID3DX11EffectStringVariable@@XZ 000000018000e350 f i effects11:EffectNonRuntime.obj
 0001:0000d370       ?AsClassInstance@?$TVariable@U?$TTopLevelVariable@UID3DX11EffectVariable@@@D3DX11Effects@@@D3DX11Effects@@UEAAPEAUID3DX11EffectClassInstanceVariable@@XZ 000000018000e370 f i effects11:EffectNonRuntime.obj
 0001:0000d3a0       ?AsInterface@?$TVariable@U?$TTopLevelVariable@UID3DX11EffectVariable@@@D3DX11Effects@@@D3DX11Effects@@UEAAPEAUID3DX11EffectInterfaceVariable@@XZ 000000018000e3a0 f i effects11:EffectNonRuntime.obj
 0001:0000d3c0       ?AsShaderResource@?$TVariable@U?$TTopLevelVariable@UID3DX11EffectVariable@@@D3DX11Effects@@@D3DX11Effects@@UEAAPEAUID3DX11EffectShaderResourceVariable@@XZ 000000018000e3c0 f i effects11:EffectNonRuntime.obj
 0001:0000d420       ?AsUnorderedAccessView@?$TVariable@U?$TTopLevelVariable@UID3DX11EffectVariable@@@D3DX11Effects@@@D3DX11Effects@@UEAAPEAUID3DX11EffectUnorderedAccessViewVariable@@XZ 000000018000e420 f i effects11:EffectNonRuntime.obj
 0001:0000d480       ?AsRenderTargetView@?$TVariable@U?$TTopLevelVariable@UID3DX11EffectVariable@@@D3DX11Effects@@@D3DX11Effects@@UEAAPEAUID3DX11EffectRenderTargetViewVariable@@XZ 000000018000e480 f i effects11:EffectNonRuntime.obj
 0001:0000d4a0       ?AsDepthStencilView@?$TVariable@U?$TTopLevelVariable@UID3DX11EffectVariable@@@D3DX11Effects@@@D3DX11Effects@@UEAAPEAUID3DX11EffectDepthStencilViewVariable@@XZ 000000018000e4a0 f i effects11:EffectNonRuntime.obj
 0001:0000d4c0       ?AsConstantBuffer@?$TVariable@U?$TTopLevelVariable@UID3DX11EffectVariable@@@D3DX11Effects@@@D3DX11Effects@@UEAAPEAUID3DX11EffectConstantBuffer@@XZ 000000018000e4c0 f i effects11:EffectNonRuntime.obj
 0001:0000d4d0       ?AsShader@?$TVariable@U?$TTopLevelVariable@UID3DX11EffectVariable@@@D3DX11Effects@@@D3DX11Effects@@UEAAPEAUID3DX11EffectShaderVariable@@XZ 000000018000e4d0 f i effects11:EffectNonRuntime.obj
 0001:0000d520       ?AsBlend@?$TVariable@U?$TTopLevelVariable@UID3DX11EffectVariable@@@D3DX11Effects@@@D3DX11Effects@@UEAAPEAUID3DX11EffectBlendVariable@@XZ 000000018000e520 f i effects11:EffectNonRuntime.obj
 0001:0000d540       ?AsDepthStencil@?$TVariable@U?$TTopLevelVariable@UID3DX11EffectVariable@@@D3DX11Effects@@@D3DX11Effects@@UEAAPEAUID3DX11EffectDepthStencilVariable@@XZ 000000018000e540 f i effects11:EffectNonRuntime.obj
 0001:0000d560       ?AsRasterizer@?$TVariable@U?$TTopLevelVariable@UID3DX11EffectVariable@@@D3DX11Effects@@@D3DX11Effects@@UEAAPEAUID3DX11EffectRasterizerVariable@@XZ 000000018000e560 f i effects11:EffectNonRuntime.obj
 0001:0000d580       ?AsSampler@?$TVariable@U?$TTopLevelVariable@UID3DX11EffectVariable@@@D3DX11Effects@@@D3DX11Effects@@UEAAPEAUID3DX11EffectSamplerVariable@@XZ 000000018000e580 f i effects11:EffectNonRuntime.obj
 0001:0000d5a0       ?SetRawValue@?$TVariable@U?$TTopLevelVariable@UID3DX11EffectVariable@@@D3DX11Effects@@@D3DX11Effects@@UEAAJPEBXII@Z 000000018000e5a0 f i effects11:EffectNonRuntime.obj
 0001:0000d5b0       ?GetRawValue@?$TVariable@U?$TTopLevelVariable@UID3DX11EffectVariable@@@D3DX11Effects@@@D3DX11Effects@@UEAAJPEAXII@Z 000000018000e5b0 f i effects11:EffectNonRuntime.obj
 0001:0000d5c0       ?GetTopLevelEntity@?$TTopLevelVariable@UID3DX11EffectVariable@@@D3DX11Effects@@QEAAPEAU12@XZ 000000018000e5c0 f i effects11:EffectNonRuntime.obj
 0001:0000d5d0       ?IsArray@?$TTopLevelVariable@UID3DX11EffectVariable@@@D3DX11Effects@@QEAAHXZ 000000018000e5d0 f i effects11:EffectNonRuntime.obj
 0001:0000d5e0       ??0?$TGlobalVariable@UID3DX11EffectVariable@@@D3DX11Effects@@QEAA@XZ 000000018000e5e0 f i effects11:EffectNonRuntime.obj
 0001:0000d630       ?GetDesc@?$TGlobalVariable@UID3DX11EffectVariable@@@D3DX11Effects@@UEAAJPEAU_D3DX11_EFFECT_VARIABLE_DESC@@@Z 000000018000e630 f i effects11:EffectNonRuntime.obj
 0001:0000d6b0       ?GetAnnotationByIndex@?$TGlobalVariable@UID3DX11EffectVariable@@@D3DX11Effects@@UEAAPEAUID3DX11EffectVariable@@I@Z 000000018000e6b0 f i effects11:EffectNonRuntime.obj
 0001:0000d6d0       ?GetAnnotationByName@?$TGlobalVariable@UID3DX11EffectVariable@@@D3DX11Effects@@UEAAPEAUID3DX11EffectVariable@@PEBD@Z 000000018000e6d0 f i effects11:EffectNonRuntime.obj
 0001:0000d6f0       ?GetParentConstantBuffer@?$TGlobalVariable@UID3DX11EffectVariable@@@D3DX11Effects@@UEAAPEAUID3DX11EffectConstantBuffer@@XZ 000000018000e6f0 f i effects11:EffectNonRuntime.obj
 0001:0000d710       ?GetMemberByIndex@?$TVariable@U?$TTopLevelVariable@UID3DX11EffectVariable@@@D3DX11Effects@@@D3DX11Effects@@UEAAPEAUID3DX11EffectVariable@@I@Z 000000018000e710 f i effects11:EffectNonRuntime.obj
 0001:0000d790       ?GetMemberByName@?$TVariable@U?$TTopLevelVariable@UID3DX11EffectVariable@@@D3DX11Effects@@@D3DX11Effects@@UEAAPEAUID3DX11EffectVariable@@PEBD@Z 000000018000e790 f i effects11:EffectNonRuntime.obj
 0001:0000d950       ?GetMemberBySemantic@?$TVariable@U?$TTopLevelVariable@UID3DX11EffectVariable@@@D3DX11Effects@@@D3DX11Effects@@UEAAPEAUID3DX11EffectVariable@@PEBD@Z 000000018000e950 f i effects11:EffectNonRuntime.obj
 0001:0000da30       ?GetElement@?$TVariable@U?$TTopLevelVariable@UID3DX11EffectVariable@@@D3DX11Effects@@@D3DX11Effects@@UEAAPEAUID3DX11EffectVariable@@I@Z 000000018000ea30 f i effects11:EffectNonRuntime.obj
 0001:0000dad0       ?GetMemberByIndex@?$TVariable@U?$TMember@UID3DX11EffectVariable@@@D3DX11Effects@@@D3DX11Effects@@UEAAPEAUID3DX11EffectVariable@@I@Z 000000018000ead0 f i effects11:EffectNonRuntime.obj
 0001:0000db60       ?GetMemberByName@?$TVariable@U?$TMember@UID3DX11EffectVariable@@@D3DX11Effects@@@D3DX11Effects@@UEAAPEAUID3DX11EffectVariable@@PEBD@Z 000000018000eb60 f i effects11:EffectNonRuntime.obj
 0001:0000dd20       ?GetMemberBySemantic@?$TVariable@U?$TMember@UID3DX11EffectVariable@@@D3DX11Effects@@@D3DX11Effects@@UEAAPEAUID3DX11EffectVariable@@PEBD@Z 000000018000ed20 f i effects11:EffectNonRuntime.obj
 0001:0000de00       ?GetElement@?$TVariable@U?$TMember@UID3DX11EffectVariable@@@D3DX11Effects@@@D3DX11Effects@@UEAAPEAUID3DX11EffectVariable@@I@Z 000000018000ee00 f i effects11:EffectNonRuntime.obj
 0001:0000dec0       ??0?$TTopLevelVariable@UID3DX11EffectScalarVariable@@@D3DX11Effects@@QEAA@XZ 000000018000eec0 f i effects11:EffectNonRuntime.obj
 0001:0000df00       ?GetType@?$TTopLevelVariable@UID3DX11EffectScalarVariable@@@D3DX11Effects@@UEAAPEAUID3DX11EffectType@@XZ 000000018000ef00 f i effects11:EffectNonRuntime.obj
 0001:0000df10       ??0?$TMember@UID3DX11EffectScalarVariable@@@D3DX11Effects@@QEAA@XZ 000000018000ef10 f i effects11:EffectNonRuntime.obj
 0001:0000df50       ?GetType@?$TMember@UID3DX11EffectScalarVariable@@@D3DX11Effects@@UEAAPEAUID3DX11EffectType@@XZ 000000018000ef50 f i effects11:EffectNonRuntime.obj
 0001:0000df70       ?GetDesc@?$TMember@UID3DX11EffectScalarVariable@@@D3DX11Effects@@UEAAJPEAU_D3DX11_EFFECT_VARIABLE_DESC@@@Z 000000018000ef70 f i effects11:EffectNonRuntime.obj
 0001:0000e010       ?GetAnnotationByIndex@?$TMember@UID3DX11EffectScalarVariable@@@D3DX11Effects@@UEAAPEAUID3DX11EffectVariable@@I@Z 000000018000f010 f i effects11:EffectNonRuntime.obj
 0001:0000e020       ?GetAnnotationByName@?$TMember@UID3DX11EffectScalarVariable@@@D3DX11Effects@@UEAAPEAUID3DX11EffectVariable@@PEBD@Z 000000018000f020 f i effects11:EffectNonRuntime.obj
 0001:0000e030       ?GetParentConstantBuffer@?$TMember@UID3DX11EffectScalarVariable@@@D3DX11Effects@@UEAAPEAUID3DX11EffectConstantBuffer@@XZ 000000018000f030 f i effects11:EffectNonRuntime.obj
 0001:0000e040       ??0?$TTopLevelVariable@UID3DX11EffectVectorVariable@@@D3DX11Effects@@QEAA@XZ 000000018000f040 f i effects11:EffectNonRuntime.obj
 0001:0000e080       ?GetType@?$TTopLevelVariable@UID3DX11EffectVectorVariable@@@D3DX11Effects@@UEAAPEAUID3DX11EffectType@@XZ 000000018000f080 f i effects11:EffectNonRuntime.obj
 0001:0000e090       ??0?$TMember@UID3DX11EffectVectorVariable@@@D3DX11Effects@@QEAA@XZ 000000018000f090 f i effects11:EffectNonRuntime.obj
 0001:0000e0d0       ?GetType@?$TMember@UID3DX11EffectVectorVariable@@@D3DX11Effects@@UEAAPEAUID3DX11EffectType@@XZ 000000018000f0d0 f i effects11:EffectNonRuntime.obj
 0001:0000e0f0       ?GetDesc@?$TMember@UID3DX11EffectVectorVariable@@@D3DX11Effects@@UEAAJPEAU_D3DX11_EFFECT_VARIABLE_DESC@@@Z 000000018000f0f0 f i effects11:EffectNonRuntime.obj
 0001:0000e190       ?GetAnnotationByIndex@?$TMember@UID3DX11EffectVectorVariable@@@D3DX11Effects@@UEAAPEAUID3DX11EffectVariable@@I@Z 000000018000f190 f i effects11:EffectNonRuntime.obj
 0001:0000e1a0       ?GetAnnotationByName@?$TMember@UID3DX11EffectVectorVariable@@@D3DX11Effects@@UEAAPEAUID3DX11EffectVariable@@PEBD@Z 000000018000f1a0 f i effects11:EffectNonRuntime.obj
 0001:0000e1b0       ?GetParentConstantBuffer@?$TMember@UID3DX11EffectVectorVariable@@@D3DX11Effects@@UEAAPEAUID3DX11EffectConstantBuffer@@XZ 000000018000f1b0 f i effects11:EffectNonRuntime.obj
 0001:0000e1c0       ??0?$TTopLevelVariable@UID3DX11EffectMatrixVariable@@@D3DX11Effects@@QEAA@XZ 000000018000f1c0 f i effects11:EffectNonRuntime.obj
 0001:0000e200       ?GetType@?$TTopLevelVariable@UID3DX11EffectMatrixVariable@@@D3DX11Effects@@UEAAPEAUID3DX11EffectType@@XZ 000000018000f200 f i effects11:EffectNonRuntime.obj
 0001:0000e210       ??0?$TMember@UID3DX11EffectMatrixVariable@@@D3DX11Effects@@QEAA@XZ 000000018000f210 f i effects11:EffectNonRuntime.obj
 0001:0000e250       ?GetType@?$TMember@UID3DX11EffectMatrixVariable@@@D3DX11Effects@@UEAAPEAUID3DX11EffectType@@XZ 000000018000f250 f i effects11:EffectNonRuntime.obj
 0001:0000e270       ?GetDesc@?$TMember@UID3DX11EffectMatrixVariable@@@D3DX11Effects@@UEAAJPEAU_D3DX11_EFFECT_VARIABLE_DESC@@@Z 000000018000f270 f i effects11:EffectNonRuntime.obj
 0001:0000e310       ?GetAnnotationByIndex@?$TMember@UID3DX11EffectMatrixVariable@@@D3DX11Effects@@UEAAPEAUID3DX11EffectVariable@@I@Z 000000018000f310 f i effects11:EffectNonRuntime.obj
 0001:0000e320       ?GetAnnotationByName@?$TMember@UID3DX11EffectMatrixVariable@@@D3DX11Effects@@UEAAPEAUID3DX11EffectVariable@@PEBD@Z 000000018000f320 f i effects11:EffectNonRuntime.obj
 0001:0000e330       ?GetParentConstantBuffer@?$TMember@UID3DX11EffectMatrixVariable@@@D3DX11Effects@@UEAAPEAUID3DX11EffectConstantBuffer@@XZ 000000018000f330 f i effects11:EffectNonRuntime.obj
 0001:0000e340       ??0?$TTopLevelVariable@UID3DX11EffectStringVariable@@@D3DX11Effects@@QEAA@XZ 000000018000f340 f i effects11:EffectNonRuntime.obj
 0001:0000e380       ?GetType@?$TTopLevelVariable@UID3DX11EffectStringVariable@@@D3DX11Effects@@UEAAPEAUID3DX11EffectType@@XZ 000000018000f380 f i effects11:EffectNonRuntime.obj
 0001:0000e390       ??0?$TMember@UID3DX11EffectStringVariable@@@D3DX11Effects@@QEAA@XZ 000000018000f390 f i effects11:EffectNonRuntime.obj
 0001:0000e3d0       ?GetType@?$TMember@UID3DX11EffectStringVariable@@@D3DX11Effects@@UEAAPEAUID3DX11EffectType@@XZ 000000018000f3d0 f i effects11:EffectNonRuntime.obj
 0001:0000e3f0       ?GetDesc@?$TMember@UID3DX11EffectStringVariable@@@D3DX11Effects@@UEAAJPEAU_D3DX11_EFFECT_VARIABLE_DESC@@@Z 000000018000f3f0 f i effects11:EffectNonRuntime.obj
 0001:0000e490       ?GetAnnotationByIndex@?$TMember@UID3DX11EffectStringVariable@@@D3DX11Effects@@UEAAPEAUID3DX11EffectVariable@@I@Z 000000018000f490 f i effects11:EffectNonRuntime.obj
 0001:0000e4a0       ?GetAnnotationByName@?$TMember@UID3DX11EffectStringVariable@@@D3DX11Effects@@UEAAPEAUID3DX11EffectVariable@@PEBD@Z 000000018000f4a0 f i effects11:EffectNonRuntime.obj
 0001:0000e4b0       ?GetParentConstantBuffer@?$TMember@UID3DX11EffectStringVariable@@@D3DX11Effects@@UEAAPEAUID3DX11EffectConstantBuffer@@XZ 000000018000f4b0 f i effects11:EffectNonRuntime.obj
 0001:0000e4c0       ??0?$TMember@UID3DX11EffectClassInstanceVariable@@@D3DX11Effects@@QEAA@XZ 000000018000f4c0 f i effects11:EffectNonRuntime.obj
 0001:0000e500       ?GetType@?$TMember@UID3DX11EffectClassInstanceVariable@@@D3DX11Effects@@UEAAPEAUID3DX11EffectType@@XZ 000000018000f500 f i effects11:EffectNonRuntime.obj
 0001:0000e520       ?GetDesc@?$TMember@UID3DX11EffectClassInstanceVariable@@@D3DX11Effects@@UEAAJPEAU_D3DX11_EFFECT_VARIABLE_DESC@@@Z 000000018000f520 f i effects11:EffectNonRuntime.obj
 0001:0000e5c0       ?GetAnnotationByIndex@?$TMember@UID3DX11EffectClassInstanceVariable@@@D3DX11Effects@@UEAAPEAUID3DX11EffectVariable@@I@Z 000000018000f5c0 f i effects11:EffectNonRuntime.obj
 0001:0000e5d0       ?GetAnnotationByName@?$TMember@UID3DX11EffectClassInstanceVariable@@@D3DX11Effects@@UEAAPEAUID3DX11EffectVariable@@PEBD@Z 000000018000f5d0 f i effects11:EffectNonRuntime.obj
 0001:0000e5e0       ?GetParentConstantBuffer@?$TMember@UID3DX11EffectClassInstanceVariable@@@D3DX11Effects@@UEAAPEAUID3DX11EffectConstantBuffer@@XZ 000000018000f5e0 f i effects11:EffectNonRuntime.obj
 0001:0000e5f0       ??0?$TMember@UID3DX11EffectInterfaceVariable@@@D3DX11Effects@@QEAA@XZ 000000018000f5f0 f i effects11:EffectNonRuntime.obj
 0001:0000e630       ?GetType@?$TMember@UID3DX11EffectInterfaceVariable@@@D3DX11Effects@@UEAAPEAUID3DX11EffectType@@XZ 000000018000f630 f i effects11:EffectNonRuntime.obj
 0001:0000e650       ?GetDesc@?$TMember@UID3DX11EffectInterfaceVariable@@@D3DX11Effects@@UEAAJPEAU_D3DX11_EFFECT_VARIABLE_DESC@@@Z 000000018000f650 f i effects11:EffectNonRuntime.obj
 0001:0000e6f0       ?GetAnnotationByIndex@?$TMember@UID3DX11EffectInterfaceVariable@@@D3DX11Effects@@UEAAPEAUID3DX11EffectVariable@@I@Z 000000018000f6f0 f i effects11:EffectNonRuntime.obj
 0001:0000e700       ?GetAnnotationByName@?$TMember@UID3DX11EffectInterfaceVariable@@@D3DX11Effects@@UEAAPEAUID3DX11EffectVariable@@PEBD@Z 000000018000f700 f i effects11:EffectNonRuntime.obj
 0001:0000e710       ?GetParentConstantBuffer@?$TMember@UID3DX11EffectInterfaceVariable@@@D3DX11Effects@@UEAAPEAUID3DX11EffectConstantBuffer@@XZ 000000018000f710 f i effects11:EffectNonRuntime.obj
 0001:0000e720       ??0?$TMember@UID3DX11EffectShaderResourceVariable@@@D3DX11Effects@@QEAA@XZ 000000018000f720 f i effects11:EffectNonRuntime.obj
 0001:0000e760       ?GetType@?$TMember@UID3DX11EffectShaderResourceVariable@@@D3DX11Effects@@UEAAPEAUID3DX11EffectType@@XZ 000000018000f760 f i effects11:EffectNonRuntime.obj
 0001:0000e780       ?GetDesc@?$TMember@UID3DX11EffectShaderResourceVariable@@@D3DX11Effects@@UEAAJPEAU_D3DX11_EFFECT_VARIABLE_DESC@@@Z 000000018000f780 f i effects11:EffectNonRuntime.obj
 0001:0000e820       ?GetAnnotationByIndex@?$TMember@UID3DX11EffectShaderResourceVariable@@@D3DX11Effects@@UEAAPEAUID3DX11EffectVariable@@I@Z 000000018000f820 f i effects11:EffectNonRuntime.obj
 0001:0000e830       ?GetAnnotationByName@?$TMember@UID3DX11EffectShaderResourceVariable@@@D3DX11Effects@@UEAAPEAUID3DX11EffectVariable@@PEBD@Z 000000018000f830 f i effects11:EffectNonRuntime.obj
 0001:0000e840       ?GetParentConstantBuffer@?$TMember@UID3DX11EffectShaderResourceVariable@@@D3DX11Effects@@UEAAPEAUID3DX11EffectConstantBuffer@@XZ 000000018000f840 f i effects11:EffectNonRuntime.obj
 0001:0000e850       ??0?$TMember@UID3DX11EffectUnorderedAccessViewVariable@@@D3DX11Effects@@QEAA@XZ 000000018000f850 f i effects11:EffectNonRuntime.obj
 0001:0000e890       ?GetType@?$TMember@UID3DX11EffectUnorderedAccessViewVariable@@@D3DX11Effects@@UEAAPEAUID3DX11EffectType@@XZ 000000018000f890 f i effects11:EffectNonRuntime.obj
 0001:0000e8b0       ?GetDesc@?$TMember@UID3DX11EffectUnorderedAccessViewVariable@@@D3DX11Effects@@UEAAJPEAU_D3DX11_EFFECT_VARIABLE_DESC@@@Z 000000018000f8b0 f i effects11:EffectNonRuntime.obj
 0001:0000e950       ?GetAnnotationByIndex@?$TMember@UID3DX11EffectUnorderedAccessViewVariable@@@D3DX11Effects@@UEAAPEAUID3DX11EffectVariable@@I@Z 000000018000f950 f i effects11:EffectNonRuntime.obj
 0001:0000e960       ?GetAnnotationByName@?$TMember@UID3DX11EffectUnorderedAccessViewVariable@@@D3DX11Effects@@UEAAPEAUID3DX11EffectVariable@@PEBD@Z 000000018000f960 f i effects11:EffectNonRuntime.obj
 0001:0000e970       ?GetParentConstantBuffer@?$TMember@UID3DX11EffectUnorderedAccessViewVariable@@@D3DX11Effects@@UEAAPEAUID3DX11EffectConstantBuffer@@XZ 000000018000f970 f i effects11:EffectNonRuntime.obj
 0001:0000e980       ??0?$TMember@UID3DX11EffectRenderTargetViewVariable@@@D3DX11Effects@@QEAA@XZ 000000018000f980 f i effects11:EffectNonRuntime.obj
 0001:0000e9c0       ?GetType@?$TMember@UID3DX11EffectRenderTargetViewVariable@@@D3DX11Effects@@UEAAPEAUID3DX11EffectType@@XZ 000000018000f9c0 f i effects11:EffectNonRuntime.obj
 0001:0000e9e0       ?GetDesc@?$TMember@UID3DX11EffectRenderTargetViewVariable@@@D3DX11Effects@@UEAAJPEAU_D3DX11_EFFECT_VARIABLE_DESC@@@Z 000000018000f9e0 f i effects11:EffectNonRuntime.obj
 0001:0000ea80       ?GetAnnotationByIndex@?$TMember@UID3DX11EffectRenderTargetViewVariable@@@D3DX11Effects@@UEAAPEAUID3DX11EffectVariable@@I@Z 000000018000fa80 f i effects11:EffectNonRuntime.obj
 0001:0000ea90       ?GetAnnotationByName@?$TMember@UID3DX11EffectRenderTargetViewVariable@@@D3DX11Effects@@UEAAPEAUID3DX11EffectVariable@@PEBD@Z 000000018000fa90 f i effects11:EffectNonRuntime.obj
 0001:0000eaa0       ?GetParentConstantBuffer@?$TMember@UID3DX11EffectRenderTargetViewVariable@@@D3DX11Effects@@UEAAPEAUID3DX11EffectConstantBuffer@@XZ 000000018000faa0 f i effects11:EffectNonRuntime.obj
 0001:0000eab0       ??0?$TMember@UID3DX11EffectDepthStencilViewVariable@@@D3DX11Effects@@QEAA@XZ 000000018000fab0 f i effects11:EffectNonRuntime.obj
 0001:0000eaf0       ?GetType@?$TMember@UID3DX11EffectDepthStencilViewVariable@@@D3DX11Effects@@UEAAPEAUID3DX11EffectType@@XZ 000000018000faf0 f i effects11:EffectNonRuntime.obj
 0001:0000eb10       ?GetDesc@?$TMember@UID3DX11EffectDepthStencilViewVariable@@@D3DX11Effects@@UEAAJPEAU_D3DX11_EFFECT_VARIABLE_DESC@@@Z 000000018000fb10 f i effects11:EffectNonRuntime.obj
 0001:0000ebb0       ?GetAnnotationByIndex@?$TMember@UID3DX11EffectDepthStencilViewVariable@@@D3DX11Effects@@UEAAPEAUID3DX11EffectVariable@@I@Z 000000018000fbb0 f i effects11:EffectNonRuntime.obj
 0001:0000ebc0       ?GetAnnotationByName@?$TMember@UID3DX11EffectDepthStencilViewVariable@@@D3DX11Effects@@UEAAPEAUID3DX11EffectVariable@@PEBD@Z 000000018000fbc0 f i effects11:EffectNonRuntime.obj
 0001:0000ebd0       ?GetParentConstantBuffer@?$TMember@UID3DX11EffectDepthStencilViewVariable@@@D3DX11Effects@@UEAAPEAUID3DX11EffectConstantBuffer@@XZ 000000018000fbd0 f i effects11:EffectNonRuntime.obj
 0001:0000ebe0       ??0?$TMember@UID3DX11EffectShaderVariable@@@D3DX11Effects@@QEAA@XZ 000000018000fbe0 f i effects11:EffectNonRuntime.obj
 0001:0000ec20       ?GetType@?$TMember@UID3DX11EffectShaderVariable@@@D3DX11Effects@@UEAAPEAUID3DX11EffectType@@XZ 000000018000fc20 f i effects11:EffectNonRuntime.obj
 0001:0000ec40       ?GetDesc@?$TMember@UID3DX11EffectShaderVariable@@@D3DX11Effects@@UEAAJPEAU_D3DX11_EFFECT_VARIABLE_DESC@@@Z 000000018000fc40 f i effects11:EffectNonRuntime.obj
 0001:0000ece0       ?GetAnnotationByIndex@?$TMember@UID3DX11EffectShaderVariable@@@D3DX11Effects@@UEAAPEAUID3DX11EffectVariable@@I@Z 000000018000fce0 f i effects11:EffectNonRuntime.obj
 0001:0000ecf0       ?GetAnnotationByName@?$TMember@UID3DX11EffectShaderVariable@@@D3DX11Effects@@UEAAPEAUID3DX11EffectVariable@@PEBD@Z 000000018000fcf0 f i effects11:EffectNonRuntime.obj
 0001:0000ed00       ?GetParentConstantBuffer@?$TMember@UID3DX11EffectShaderVariable@@@D3DX11Effects@@UEAAPEAUID3DX11EffectConstantBuffer@@XZ 000000018000fd00 f i effects11:EffectNonRuntime.obj
 0001:0000ed10       ??0?$TMember@UID3DX11EffectBlendVariable@@@D3DX11Effects@@QEAA@XZ 000000018000fd10 f i effects11:EffectNonRuntime.obj
 0001:0000ed50       ?GetType@?$TMember@UID3DX11EffectBlendVariable@@@D3DX11Effects@@UEAAPEAUID3DX11EffectType@@XZ 000000018000fd50 f i effects11:EffectNonRuntime.obj
 0001:0000ed70       ?GetDesc@?$TMember@UID3DX11EffectBlendVariable@@@D3DX11Effects@@UEAAJPEAU_D3DX11_EFFECT_VARIABLE_DESC@@@Z 000000018000fd70 f i effects11:EffectNonRuntime.obj
 0001:0000ee10       ?GetAnnotationByIndex@?$TMember@UID3DX11EffectBlendVariable@@@D3DX11Effects@@UEAAPEAUID3DX11EffectVariable@@I@Z 000000018000fe10 f i effects11:EffectNonRuntime.obj
 0001:0000ee20       ?GetAnnotationByName@?$TMember@UID3DX11EffectBlendVariable@@@D3DX11Effects@@UEAAPEAUID3DX11EffectVariable@@PEBD@Z 000000018000fe20 f i effects11:EffectNonRuntime.obj
 0001:0000ee30       ?GetParentConstantBuffer@?$TMember@UID3DX11EffectBlendVariable@@@D3DX11Effects@@UEAAPEAUID3DX11EffectConstantBuffer@@XZ 000000018000fe30 f i effects11:EffectNonRuntime.obj
 0001:0000ee40       ??0?$TMember@UID3DX11EffectDepthStencilVariable@@@D3DX11Effects@@QEAA@XZ 000000018000fe40 f i effects11:EffectNonRuntime.obj
 0001:0000ee80       ?GetType@?$TMember@UID3DX11EffectDepthStencilVariable@@@D3DX11Effects@@UEAAPEAUID3DX11EffectType@@XZ 000000018000fe80 f i effects11:EffectNonRuntime.obj
 0001:0000eea0       ?GetDesc@?$TMember@UID3DX11EffectDepthStencilVariable@@@D3DX11Effects@@UEAAJPEAU_D3DX11_EFFECT_VARIABLE_DESC@@@Z 000000018000fea0 f i effects11:EffectNonRuntime.obj
 0001:0000ef40       ?GetAnnotationByIndex@?$TMember@UID3DX11EffectDepthStencilVariable@@@D3DX11Effects@@UEAAPEAUID3DX11EffectVariable@@I@Z 000000018000ff40 f i effects11:EffectNonRuntime.obj
 0001:0000ef50       ?GetAnnotationByName@?$TMember@UID3DX11EffectDepthStencilVariable@@@D3DX11Effects@@UEAAPEAUID3DX11EffectVariable@@PEBD@Z 000000018000ff50 f i effects11:EffectNonRuntime.obj
 0001:0000ef60       ?GetParentConstantBuffer@?$TMember@UID3DX11EffectDepthStencilVariable@@@D3DX11Effects@@UEAAPEAUID3DX11EffectConstantBuffer@@XZ 000000018000ff60 f i effects11:EffectNonRuntime.obj
 0001:0000ef70       ??0?$TMember@UID3DX11EffectRasterizerVariable@@@D3DX11Effects@@QEAA@XZ 000000018000ff70 f i effects11:EffectNonRuntime.obj
 0001:0000efb0       ?GetType@?$TMember@UID3DX11EffectRasterizerVariable@@@D3DX11Effects@@UEAAPEAUID3DX11EffectType@@XZ 000000018000ffb0 f i effects11:EffectNonRuntime.obj
 0001:0000efd0       ?GetDesc@?$TMember@UID3DX11EffectRasterizerVariable@@@D3DX11Effects@@UEAAJPEAU_D3DX11_EFFECT_VARIABLE_DESC@@@Z 000000018000ffd0 f i effects11:EffectNonRuntime.obj
 0001:0000f070       ?GetAnnotationByIndex@?$TMember@UID3DX11EffectRasterizerVariable@@@D3DX11Effects@@UEAAPEAUID3DX11EffectVariable@@I@Z 0000000180010070 f i effects11:EffectNonRuntime.obj
 0001:0000f080       ?GetAnnotationByName@?$TMember@UID3DX11EffectRasterizerVariable@@@D3DX11Effects@@UEAAPEAUID3DX11EffectVariable@@PEBD@Z 0000000180010080 f i effects11:EffectNonRuntime.obj
 0001:0000f090       ?GetParentConstantBuffer@?$TMember@UID3DX11EffectRasterizerVariable@@@D3DX11Effects@@UEAAPEAUID3DX11EffectConstantBuffer@@XZ 0000000180010090 f i effects11:EffectNonRuntime.obj
 0001:0000f0a0       ??0?$TMember@UID3DX11EffectSamplerVariable@@@D3DX11Effects@@QEAA@XZ 00000001800100a0 f i effects11:EffectNonRuntime.obj
 0001:0000f0e0       ?GetType@?$TMember@UID3DX11EffectSamplerVariable@@@D3DX11Effects@@UEAAPEAUID3DX11EffectType@@XZ 00000001800100e0 f i effects11:EffectNonRuntime.obj
 0001:0000f100       ?GetDesc@?$TMember@UID3DX11EffectSamplerVariable@@@D3DX11Effects@@UEAAJPEAU_D3DX11_EFFECT_VARIABLE_DESC@@@Z 0000000180010100 f i effects11:EffectNonRuntime.obj
 0001:0000f1a0       ?GetAnnotationByIndex@?$TMember@UID3DX11EffectSamplerVariable@@@D3DX11Effects@@UEAAPEAUID3DX11EffectVariable@@I@Z 00000001800101a0 f i effects11:EffectNonRuntime.obj
 0001:0000f1b0       ?GetAnnotationByName@?$TMember@UID3DX11EffectSamplerVariable@@@D3DX11Effects@@UEAAPEAUID3DX11EffectVariable@@PEBD@Z 00000001800101b0 f i effects11:EffectNonRuntime.obj
 0001:0000f1c0       ?GetParentConstantBuffer@?$TMember@UID3DX11EffectSamplerVariable@@@D3DX11Effects@@UEAAPEAUID3DX11EffectConstantBuffer@@XZ 00000001800101c0 f i effects11:EffectNonRuntime.obj
 0001:0000f1d0       ?AddRange@?$CEffectVector@PEAUSMember@D3DX11Effects@@@@QEAAPEAPEAUSMember@D3DX11Effects@@I@Z 00000001800101d0 f i effects11:EffectNonRuntime.obj
 0001:0000f220       ?Clear@?$CEffectVector@UD3D11_SO_DECLARATION_ENTRY@@@@QEAAXXZ 0000000180010220 f i effects11:EffectNonRuntime.obj
 0001:0000f250       ??0?$TVariable@U?$TTopLevelVariable@UID3DX11EffectClassInstanceVariable@@@D3DX11Effects@@@D3DX11Effects@@QEAA@XZ 0000000180010250 f i effects11:EffectNonRuntime.obj
 0001:0000f290       ?IsValid@?$TVariable@U?$TTopLevelVariable@UID3DX11EffectClassInstanceVariable@@@D3DX11Effects@@@D3DX11Effects@@UEAAHXZ 0000000180010290 f i effects11:EffectNonRuntime.obj
 0001:0000f2a0       ?AsScalar@?$TVariable@U?$TTopLevelVariable@UID3DX11EffectClassInstanceVariable@@@D3DX11Effects@@@D3DX11Effects@@UEAAPEAUID3DX11EffectScalarVariable@@XZ 00000001800102a0 f i effects11:EffectNonRuntime.obj
 0001:0000f2c0       ?AsVector@?$TVariable@U?$TTopLevelVariable@UID3DX11EffectClassInstanceVariable@@@D3DX11Effects@@@D3DX11Effects@@UEAAPEAUID3DX11EffectVectorVariable@@XZ 00000001800102c0 f i effects11:EffectNonRuntime.obj
 0001:0000f2e0       ?AsMatrix@?$TVariable@U?$TTopLevelVariable@UID3DX11EffectClassInstanceVariable@@@D3DX11Effects@@@D3DX11Effects@@UEAAPEAUID3DX11EffectMatrixVariable@@XZ 00000001800102e0 f i effects11:EffectNonRuntime.obj
 0001:0000f300       ?AsString@?$TVariable@U?$TTopLevelVariable@UID3DX11EffectClassInstanceVariable@@@D3DX11Effects@@@D3DX11Effects@@UEAAPEAUID3DX11EffectStringVariable@@XZ 0000000180010300 f i effects11:EffectNonRuntime.obj
 0001:0000f320       ?AsClassInstance@?$TVariable@U?$TTopLevelVariable@UID3DX11EffectClassInstanceVariable@@@D3DX11Effects@@@D3DX11Effects@@UEAAPEAUID3DX11EffectClassInstanceVariable@@XZ 0000000180010320 f i effects11:EffectNonRuntime.obj
 0001:0000f350       ?AsInterface@?$TVariable@U?$TTopLevelVariable@UID3DX11EffectClassInstanceVariable@@@D3DX11Effects@@@D3DX11Effects@@UEAAPEAUID3DX11EffectInterfaceVariable@@XZ 0000000180010350 f i effects11:EffectNonRuntime.obj
 0001:0000f370       ?AsShaderResource@?$TVariable@U?$TTopLevelVariable@UID3DX11EffectClassInstanceVariable@@@D3DX11Effects@@@D3DX11Effects@@UEAAPEAUID3DX11EffectShaderResourceVariable@@XZ 0000000180010370 f i effects11:EffectNonRuntime.obj
 0001:0000f3d0       ?AsUnorderedAccessView@?$TVariable@U?$TTopLevelVariable@UID3DX11EffectClassInstanceVariable@@@D3DX11Effects@@@D3DX11Effects@@UEAAPEAUID3DX11EffectUnorderedAccessViewVariable@@XZ 00000001800103d0 f i effects11:EffectNonRuntime.obj
 0001:0000f430       ?AsRenderTargetView@?$TVariable@U?$TTopLevelVariable@UID3DX11EffectClassInstanceVariable@@@D3DX11Effects@@@D3DX11Effects@@UEAAPEAUID3DX11EffectRenderTargetViewVariable@@XZ 0000000180010430 f i effects11:EffectNonRuntime.obj
 0001:0000f450       ?AsDepthStencilView@?$TVariable@U?$TTopLevelVariable@UID3DX11EffectClassInstanceVariable@@@D3DX11Effects@@@D3DX11Effects@@UEAAPEAUID3DX11EffectDepthStencilViewVariable@@XZ 0000000180010450 f i effects11:EffectNonRuntime.obj
 0001:0000f470       ?AsConstantBuffer@?$TVariable@U?$TTopLevelVariable@UID3DX11EffectClassInstanceVariable@@@D3DX11Effects@@@D3DX11Effects@@UEAAPEAUID3DX11EffectConstantBuffer@@XZ 0000000180010470 f i effects11:EffectNonRuntime.obj
 0001:0000f480       ?AsShader@?$TVariable@U?$TTopLevelVariable@UID3DX11EffectClassInstanceVariable@@@D3DX11Effects@@@D3DX11Effects@@UEAAPEAUID3DX11EffectShaderVariable@@XZ 0000000180010480 f i effects11:EffectNonRuntime.obj
 0001:0000f4d0       ?AsBlend@?$TVariable@U?$TTopLevelVariable@UID3DX11EffectClassInstanceVariable@@@D3DX11Effects@@@D3DX11Effects@@UEAAPEAUID3DX11EffectBlendVariable@@XZ 00000001800104d0 f i effects11:EffectNonRuntime.obj
 0001:0000f4f0       ?AsDepthStencil@?$TVariable@U?$TTopLevelVariable@UID3DX11EffectClassInstanceVariable@@@D3DX11Effects@@@D3DX11Effects@@UEAAPEAUID3DX11EffectDepthStencilVariable@@XZ 00000001800104f0 f i effects11:EffectNonRuntime.obj
 0001:0000f510       ?AsRasterizer@?$TVariable@U?$TTopLevelVariable@UID3DX11EffectClassInstanceVariable@@@D3DX11Effects@@@D3DX11Effects@@UEAAPEAUID3DX11EffectRasterizerVariable@@XZ 0000000180010510 f i effects11:EffectNonRuntime.obj
 0001:0000f530       ?AsSampler@?$TVariable@U?$TTopLevelVariable@UID3DX11EffectClassInstanceVariable@@@D3DX11Effects@@@D3DX11Effects@@UEAAPEAUID3DX11EffectSamplerVariable@@XZ 0000000180010530 f i effects11:EffectNonRuntime.obj
 0001:0000f550       ?SetRawValue@?$TVariable@U?$TTopLevelVariable@UID3DX11EffectClassInstanceVariable@@@D3DX11Effects@@@D3DX11Effects@@UEAAJPEBXII@Z 0000000180010550 f i effects11:EffectNonRuntime.obj
 0001:0000f560       ?GetRawValue@?$TVariable@U?$TTopLevelVariable@UID3DX11EffectClassInstanceVariable@@@D3DX11Effects@@@D3DX11Effects@@UEAAJPEAXII@Z 0000000180010560 f i effects11:EffectNonRuntime.obj
 0001:0000f570       ?GetTopLevelEntity@?$TTopLevelVariable@UID3DX11EffectClassInstanceVariable@@@D3DX11Effects@@QEAAPEAU?$TTopLevelVariable@UID3DX11EffectVariable@@@2@XZ 0000000180010570 f i effects11:EffectNonRuntime.obj
 0001:0000f580       ?IsArray@?$TTopLevelVariable@UID3DX11EffectClassInstanceVariable@@@D3DX11Effects@@QEAAHXZ 0000000180010580 f i effects11:EffectNonRuntime.obj
 0001:0000f590       ?GetMemberByIndex@?$TVariable@U?$TTopLevelVariable@UID3DX11EffectClassInstanceVariable@@@D3DX11Effects@@@D3DX11Effects@@UEAAPEAUID3DX11EffectVariable@@I@Z 0000000180010590 f i effects11:EffectNonRuntime.obj
 0001:0000f610       ?GetMemberByName@?$TVariable@U?$TTopLevelVariable@UID3DX11EffectClassInstanceVariable@@@D3DX11Effects@@@D3DX11Effects@@UEAAPEAUID3DX11EffectVariable@@PEBD@Z 0000000180010610 f i effects11:EffectNonRuntime.obj
 0001:0000f7d0       ?GetMemberBySemantic@?$TVariable@U?$TTopLevelVariable@UID3DX11EffectClassInstanceVariable@@@D3DX11Effects@@@D3DX11Effects@@UEAAPEAUID3DX11EffectVariable@@PEBD@Z 00000001800107d0 f i effects11:EffectNonRuntime.obj
 0001:0000f8b0       ?GetElement@?$TVariable@U?$TTopLevelVariable@UID3DX11EffectClassInstanceVariable@@@D3DX11Effects@@@D3DX11Effects@@UEAAPEAUID3DX11EffectVariable@@I@Z 00000001800108b0 f i effects11:EffectNonRuntime.obj
 0001:0000f950       ??0?$TVariable@U?$TTopLevelVariable@UID3DX11EffectInterfaceVariable@@@D3DX11Effects@@@D3DX11Effects@@QEAA@XZ 0000000180010950 f i effects11:EffectNonRuntime.obj
 0001:0000f990       ?IsValid@?$TVariable@U?$TTopLevelVariable@UID3DX11EffectInterfaceVariable@@@D3DX11Effects@@@D3DX11Effects@@UEAAHXZ 0000000180010990 f i effects11:EffectNonRuntime.obj
 0001:0000f9a0       ?AsScalar@?$TVariable@U?$TTopLevelVariable@UID3DX11EffectInterfaceVariable@@@D3DX11Effects@@@D3DX11Effects@@UEAAPEAUID3DX11EffectScalarVariable@@XZ 00000001800109a0 f i effects11:EffectNonRuntime.obj
 0001:0000f9c0       ?AsVector@?$TVariable@U?$TTopLevelVariable@UID3DX11EffectInterfaceVariable@@@D3DX11Effects@@@D3DX11Effects@@UEAAPEAUID3DX11EffectVectorVariable@@XZ 00000001800109c0 f i effects11:EffectNonRuntime.obj
 0001:0000f9e0       ?AsMatrix@?$TVariable@U?$TTopLevelVariable@UID3DX11EffectInterfaceVariable@@@D3DX11Effects@@@D3DX11Effects@@UEAAPEAUID3DX11EffectMatrixVariable@@XZ 00000001800109e0 f i effects11:EffectNonRuntime.obj
 0001:0000fa00       ?AsString@?$TVariable@U?$TTopLevelVariable@UID3DX11EffectInterfaceVariable@@@D3DX11Effects@@@D3DX11Effects@@UEAAPEAUID3DX11EffectStringVariable@@XZ 0000000180010a00 f i effects11:EffectNonRuntime.obj
 0001:0000fa20       ?AsClassInstance@?$TVariable@U?$TTopLevelVariable@UID3DX11EffectInterfaceVariable@@@D3DX11Effects@@@D3DX11Effects@@UEAAPEAUID3DX11EffectClassInstanceVariable@@XZ 0000000180010a20 f i effects11:EffectNonRuntime.obj
 0001:0000fa50       ?AsInterface@?$TVariable@U?$TTopLevelVariable@UID3DX11EffectInterfaceVariable@@@D3DX11Effects@@@D3DX11Effects@@UEAAPEAUID3DX11EffectInterfaceVariable@@XZ 0000000180010a50 f i effects11:EffectNonRuntime.obj
 0001:0000fa70       ?AsShaderResource@?$TVariable@U?$TTopLevelVariable@UID3DX11EffectInterfaceVariable@@@D3DX11Effects@@@D3DX11Effects@@UEAAPEAUID3DX11EffectShaderResourceVariable@@XZ 0000000180010a70 f i effects11:EffectNonRuntime.obj
 0001:0000fad0       ?AsUnorderedAccessView@?$TVariable@U?$TTopLevelVariable@UID3DX11EffectInterfaceVariable@@@D3DX11Effects@@@D3DX11Effects@@UEAAPEAUID3DX11EffectUnorderedAccessViewVariable@@XZ 0000000180010ad0 f i effects11:EffectNonRuntime.obj
 0001:0000fb30       ?AsRenderTargetView@?$TVariable@U?$TTopLevelVariable@UID3DX11EffectInterfaceVariable@@@D3DX11Effects@@@D3DX11Effects@@UEAAPEAUID3DX11EffectRenderTargetViewVariable@@XZ 0000000180010b30 f i effects11:EffectNonRuntime.obj
 0001:0000fb50       ?AsDepthStencilView@?$TVariable@U?$TTopLevelVariable@UID3DX11EffectInterfaceVariable@@@D3DX11Effects@@@D3DX11Effects@@UEAAPEAUID3DX11EffectDepthStencilViewVariable@@XZ 0000000180010b50 f i effects11:EffectNonRuntime.obj
 0001:0000fb70       ?AsConstantBuffer@?$TVariable@U?$TTopLevelVariable@UID3DX11EffectInterfaceVariable@@@D3DX11Effects@@@D3DX11Effects@@UEAAPEAUID3DX11EffectConstantBuffer@@XZ 0000000180010b70 f i effects11:EffectNonRuntime.obj
 0001:0000fb80       ?AsShader@?$TVariable@U?$TTopLevelVariable@UID3DX11EffectInterfaceVariable@@@D3DX11Effects@@@D3DX11Effects@@UEAAPEAUID3DX11EffectShaderVariable@@XZ 0000000180010b80 f i effects11:EffectNonRuntime.obj
 0001:0000fbd0       ?AsBlend@?$TVariable@U?$TTopLevelVariable@UID3DX11EffectInterfaceVariable@@@D3DX11Effects@@@D3DX11Effects@@UEAAPEAUID3DX11EffectBlendVariable@@XZ 0000000180010bd0 f i effects11:EffectNonRuntime.obj
 0001:0000fbf0       ?AsDepthStencil@?$TVariable@U?$TTopLevelVariable@UID3DX11EffectInterfaceVariable@@@D3DX11Effects@@@D3DX11Effects@@UEAAPEAUID3DX11EffectDepthStencilVariable@@XZ 0000000180010bf0 f i effects11:EffectNonRuntime.obj
 0001:0000fc10       ?AsRasterizer@?$TVariable@U?$TTopLevelVariable@UID3DX11EffectInterfaceVariable@@@D3DX11Effects@@@D3DX11Effects@@UEAAPEAUID3DX11EffectRasterizerVariable@@XZ 0000000180010c10 f i effects11:EffectNonRuntime.obj
 0001:0000fc30       ?AsSampler@?$TVariable@U?$TTopLevelVariable@UID3DX11EffectInterfaceVariable@@@D3DX11Effects@@@D3DX11Effects@@UEAAPEAUID3DX11EffectSamplerVariable@@XZ 0000000180010c30 f i effects11:EffectNonRuntime.obj
 0001:0000fc50       ?SetRawValue@?$TVariable@U?$TTopLevelVariable@UID3DX11EffectInterfaceVariable@@@D3DX11Effects@@@D3DX11Effects@@UEAAJPEBXII@Z 0000000180010c50 f i effects11:EffectNonRuntime.obj
 0001:0000fc60       ?GetRawValue@?$TVariable@U?$TTopLevelVariable@UID3DX11EffectInterfaceVariable@@@D3DX11Effects@@@D3DX11Effects@@UEAAJPEAXII@Z 0000000180010c60 f i effects11:EffectNonRuntime.obj
 0001:0000fc70       ?GetTopLevelEntity@?$TTopLevelVariable@UID3DX11EffectInterfaceVariable@@@D3DX11Effects@@QEAAPEAU?$TTopLevelVariable@UID3DX11EffectVariable@@@2@XZ 0000000180010c70 f i effects11:EffectNonRuntime.obj
 0001:0000fc80       ?IsArray@?$TTopLevelVariable@UID3DX11EffectInterfaceVariable@@@D3DX11Effects@@QEAAHXZ 0000000180010c80 f i effects11:EffectNonRuntime.obj
 0001:0000fc90       ?GetMemberByIndex@?$TVariable@U?$TTopLevelVariable@UID3DX11EffectInterfaceVariable@@@D3DX11Effects@@@D3DX11Effects@@UEAAPEAUID3DX11EffectVariable@@I@Z 0000000180010c90 f i effects11:EffectNonRuntime.obj
 0001:0000fd10       ?GetMemberByName@?$TVariable@U?$TTopLevelVariable@UID3DX11EffectInterfaceVariable@@@D3DX11Effects@@@D3DX11Effects@@UEAAPEAUID3DX11EffectVariable@@PEBD@Z 0000000180010d10 f i effects11:EffectNonRuntime.obj
 0001:0000fed0       ?GetMemberBySemantic@?$TVariable@U?$TTopLevelVariable@UID3DX11EffectInterfaceVariable@@@D3DX11Effects@@@D3DX11Effects@@UEAAPEAUID3DX11EffectVariable@@PEBD@Z 0000000180010ed0 f i effects11:EffectNonRuntime.obj
 0001:0000ffb0       ?GetElement@?$TVariable@U?$TTopLevelVariable@UID3DX11EffectInterfaceVariable@@@D3DX11Effects@@@D3DX11Effects@@UEAAPEAUID3DX11EffectVariable@@I@Z 0000000180010fb0 f i effects11:EffectNonRuntime.obj
 0001:00010050       ??0?$TVariable@U?$TTopLevelVariable@UID3DX11EffectShaderResourceVariable@@@D3DX11Effects@@@D3DX11Effects@@QEAA@XZ 0000000180011050 f i effects11:EffectNonRuntime.obj
 0001:00010090       ?IsValid@?$TVariable@U?$TTopLevelVariable@UID3DX11EffectShaderResourceVariable@@@D3DX11Effects@@@D3DX11Effects@@UEAAHXZ 0000000180011090 f i effects11:EffectNonRuntime.obj
 0001:000100a0       ?AsScalar@?$TVariable@U?$TTopLevelVariable@UID3DX11EffectShaderResourceVariable@@@D3DX11Effects@@@D3DX11Effects@@UEAAPEAUID3DX11EffectScalarVariable@@XZ 00000001800110a0 f i effects11:EffectNonRuntime.obj
 0001:000100c0       ?AsVector@?$TVariable@U?$TTopLevelVariable@UID3DX11EffectShaderResourceVariable@@@D3DX11Effects@@@D3DX11Effects@@UEAAPEAUID3DX11EffectVectorVariable@@XZ 00000001800110c0 f i effects11:EffectNonRuntime.obj
 0001:000100e0       ?AsMatrix@?$TVariable@U?$TTopLevelVariable@UID3DX11EffectShaderResourceVariable@@@D3DX11Effects@@@D3DX11Effects@@UEAAPEAUID3DX11EffectMatrixVariable@@XZ 00000001800110e0 f i effects11:EffectNonRuntime.obj
 0001:00010100       ?AsString@?$TVariable@U?$TTopLevelVariable@UID3DX11EffectShaderResourceVariable@@@D3DX11Effects@@@D3DX11Effects@@UEAAPEAUID3DX11EffectStringVariable@@XZ 0000000180011100 f i effects11:EffectNonRuntime.obj
 0001:00010120       ?AsClassInstance@?$TVariable@U?$TTopLevelVariable@UID3DX11EffectShaderResourceVariable@@@D3DX11Effects@@@D3DX11Effects@@UEAAPEAUID3DX11EffectClassInstanceVariable@@XZ 0000000180011120 f i effects11:EffectNonRuntime.obj
 0001:00010150       ?AsInterface@?$TVariable@U?$TTopLevelVariable@UID3DX11EffectShaderResourceVariable@@@D3DX11Effects@@@D3DX11Effects@@UEAAPEAUID3DX11EffectInterfaceVariable@@XZ 0000000180011150 f i effects11:EffectNonRuntime.obj
 0001:00010170       ?AsShaderResource@?$TVariable@U?$TTopLevelVariable@UID3DX11EffectShaderResourceVariable@@@D3DX11Effects@@@D3DX11Effects@@UEAAPEAUID3DX11EffectShaderResourceVariable@@XZ 0000000180011170 f i effects11:EffectNonRuntime.obj
 0001:000101d0       ?AsUnorderedAccessView@?$TVariable@U?$TTopLevelVariable@UID3DX11EffectShaderResourceVariable@@@D3DX11Effects@@@D3DX11Effects@@UEAAPEAUID3DX11EffectUnorderedAccessViewVariable@@XZ 00000001800111d0 f i effects11:EffectNonRuntime.obj
 0001:00010230       ?AsRenderTargetView@?$TVariable@U?$TTopLevelVariable@UID3DX11EffectShaderResourceVariable@@@D3DX11Effects@@@D3DX11Effects@@UEAAPEAUID3DX11EffectRenderTargetViewVariable@@XZ 0000000180011230 f i effects11:EffectNonRuntime.obj
 0001:00010250       ?AsDepthStencilView@?$TVariable@U?$TTopLevelVariable@UID3DX11EffectShaderResourceVariable@@@D3DX11Effects@@@D3DX11Effects@@UEAAPEAUID3DX11EffectDepthStencilViewVariable@@XZ 0000000180011250 f i effects11:EffectNonRuntime.obj
 0001:00010270       ?AsConstantBuffer@?$TVariable@U?$TTopLevelVariable@UID3DX11EffectShaderResourceVariable@@@D3DX11Effects@@@D3DX11Effects@@UEAAPEAUID3DX11EffectConstantBuffer@@XZ 0000000180011270 f i effects11:EffectNonRuntime.obj
 0001:00010280       ?AsShader@?$TVariable@U?$TTopLevelVariable@UID3DX11EffectShaderResourceVariable@@@D3DX11Effects@@@D3DX11Effects@@UEAAPEAUID3DX11EffectShaderVariable@@XZ 0000000180011280 f i effects11:EffectNonRuntime.obj
 0001:000102d0       ?AsBlend@?$TVariable@U?$TTopLevelVariable@UID3DX11EffectShaderResourceVariable@@@D3DX11Effects@@@D3DX11Effects@@UEAAPEAUID3DX11EffectBlendVariable@@XZ 00000001800112d0 f i effects11:EffectNonRuntime.obj
 0001:000102f0       ?AsDepthStencil@?$TVariable@U?$TTopLevelVariable@UID3DX11EffectShaderResourceVariable@@@D3DX11Effects@@@D3DX11Effects@@UEAAPEAUID3DX11EffectDepthStencilVariable@@XZ 00000001800112f0 f i effects11:EffectNonRuntime.obj
 0001:00010310       ?AsRasterizer@?$TVariable@U?$TTopLevelVariable@UID3DX11EffectShaderResourceVariable@@@D3DX11Effects@@@D3DX11Effects@@UEAAPEAUID3DX11EffectRasterizerVariable@@XZ 0000000180011310 f i effects11:EffectNonRuntime.obj
 0001:00010330       ?AsSampler@?$TVariable@U?$TTopLevelVariable@UID3DX11EffectShaderResourceVariable@@@D3DX11Effects@@@D3DX11Effects@@UEAAPEAUID3DX11EffectSamplerVariable@@XZ 0000000180011330 f i effects11:EffectNonRuntime.obj
 0001:00010350       ?SetRawValue@?$TVariable@U?$TTopLevelVariable@UID3DX11EffectShaderResourceVariable@@@D3DX11Effects@@@D3DX11Effects@@UEAAJPEBXII@Z 0000000180011350 f i effects11:EffectNonRuntime.obj
 0001:00010360       ?GetRawValue@?$TVariable@U?$TTopLevelVariable@UID3DX11EffectShaderResourceVariable@@@D3DX11Effects@@@D3DX11Effects@@UEAAJPEAXII@Z 0000000180011360 f i effects11:EffectNonRuntime.obj
 0001:00010370       ?GetTopLevelEntity@?$TTopLevelVariable@UID3DX11EffectShaderResourceVariable@@@D3DX11Effects@@QEAAPEAU?$TTopLevelVariable@UID3DX11EffectVariable@@@2@XZ 0000000180011370 f i effects11:EffectNonRuntime.obj
 0001:00010380       ?IsArray@?$TTopLevelVariable@UID3DX11EffectShaderResourceVariable@@@D3DX11Effects@@QEAAHXZ 0000000180011380 f i effects11:EffectNonRuntime.obj
 0001:00010390       ?GetMemberByIndex@?$TVariable@U?$TTopLevelVariable@UID3DX11EffectShaderResourceVariable@@@D3DX11Effects@@@D3DX11Effects@@UEAAPEAUID3DX11EffectVariable@@I@Z 0000000180011390 f i effects11:EffectNonRuntime.obj
 0001:00010410       ?GetMemberByName@?$TVariable@U?$TTopLevelVariable@UID3DX11EffectShaderResourceVariable@@@D3DX11Effects@@@D3DX11Effects@@UEAAPEAUID3DX11EffectVariable@@PEBD@Z 0000000180011410 f i effects11:EffectNonRuntime.obj
 0001:000105d0       ?GetMemberBySemantic@?$TVariable@U?$TTopLevelVariable@UID3DX11EffectShaderResourceVariable@@@D3DX11Effects@@@D3DX11Effects@@UEAAPEAUID3DX11EffectVariable@@PEBD@Z 00000001800115d0 f i effects11:EffectNonRuntime.obj
 0001:000106b0       ?GetElement@?$TVariable@U?$TTopLevelVariable@UID3DX11EffectShaderResourceVariable@@@D3DX11Effects@@@D3DX11Effects@@UEAAPEAUID3DX11EffectVariable@@I@Z 00000001800116b0 f i effects11:EffectNonRuntime.obj
 0001:00010750       ??0?$TVariable@U?$TTopLevelVariable@UID3DX11EffectUnorderedAccessViewVariable@@@D3DX11Effects@@@D3DX11Effects@@QEAA@XZ 0000000180011750 f i effects11:EffectNonRuntime.obj
 0001:00010790       ?IsValid@?$TVariable@U?$TTopLevelVariable@UID3DX11EffectUnorderedAccessViewVariable@@@D3DX11Effects@@@D3DX11Effects@@UEAAHXZ 0000000180011790 f i effects11:EffectNonRuntime.obj
 0001:000107a0       ?AsScalar@?$TVariable@U?$TTopLevelVariable@UID3DX11EffectUnorderedAccessViewVariable@@@D3DX11Effects@@@D3DX11Effects@@UEAAPEAUID3DX11EffectScalarVariable@@XZ 00000001800117a0 f i effects11:EffectNonRuntime.obj
 0001:000107c0       ?AsVector@?$TVariable@U?$TTopLevelVariable@UID3DX11EffectUnorderedAccessViewVariable@@@D3DX11Effects@@@D3DX11Effects@@UEAAPEAUID3DX11EffectVectorVariable@@XZ 00000001800117c0 f i effects11:EffectNonRuntime.obj
 0001:000107e0       ?AsMatrix@?$TVariable@U?$TTopLevelVariable@UID3DX11EffectUnorderedAccessViewVariable@@@D3DX11Effects@@@D3DX11Effects@@UEAAPEAUID3DX11EffectMatrixVariable@@XZ 00000001800117e0 f i effects11:EffectNonRuntime.obj
 0001:00010800       ?AsString@?$TVariable@U?$TTopLevelVariable@UID3DX11EffectUnorderedAccessViewVariable@@@D3DX11Effects@@@D3DX11Effects@@UEAAPEAUID3DX11EffectStringVariable@@XZ 0000000180011800 f i effects11:EffectNonRuntime.obj
 0001:00010820       ?AsClassInstance@?$TVariable@U?$TTopLevelVariable@UID3DX11EffectUnorderedAccessViewVariable@@@D3DX11Effects@@@D3DX11Effects@@UEAAPEAUID3DX11EffectClassInstanceVariable@@XZ 0000000180011820 f i effects11:EffectNonRuntime.obj
 0001:00010850       ?AsInterface@?$TVariable@U?$TTopLevelVariable@UID3DX11EffectUnorderedAccessViewVariable@@@D3DX11Effects@@@D3DX11Effects@@UEAAPEAUID3DX11EffectInterfaceVariable@@XZ 0000000180011850 f i effects11:EffectNonRuntime.obj
 0001:00010870       ?AsShaderResource@?$TVariable@U?$TTopLevelVariable@UID3DX11EffectUnorderedAccessViewVariable@@@D3DX11Effects@@@D3DX11Effects@@UEAAPEAUID3DX11EffectShaderResourceVariable@@XZ 0000000180011870 f i effects11:EffectNonRuntime.obj
 0001:000108d0       ?AsUnorderedAccessView@?$TVariable@U?$TTopLevelVariable@UID3DX11EffectUnorderedAccessViewVariable@@@D3DX11Effects@@@D3DX11Effects@@UEAAPEAUID3DX11EffectUnorderedAccessViewVariable@@XZ 00000001800118d0 f i effects11:EffectNonRuntime.obj
 0001:00010930       ?AsRenderTargetView@?$TVariable@U?$TTopLevelVariable@UID3DX11EffectUnorderedAccessViewVariable@@@D3DX11Effects@@@D3DX11Effects@@UEAAPEAUID3DX11EffectRenderTargetViewVariable@@XZ 0000000180011930 f i effects11:EffectNonRuntime.obj
 0001:00010950       ?AsDepthStencilView@?$TVariable@U?$TTopLevelVariable@UID3DX11EffectUnorderedAccessViewVariable@@@D3DX11Effects@@@D3DX11Effects@@UEAAPEAUID3DX11EffectDepthStencilViewVariable@@XZ 0000000180011950 f i effects11:EffectNonRuntime.obj
 0001:00010970       ?AsConstantBuffer@?$TVariable@U?$TTopLevelVariable@UID3DX11EffectUnorderedAccessViewVariable@@@D3DX11Effects@@@D3DX11Effects@@UEAAPEAUID3DX11EffectConstantBuffer@@XZ 0000000180011970 f i effects11:EffectNonRuntime.obj
 0001:00010980       ?AsShader@?$TVariable@U?$TTopLevelVariable@UID3DX11EffectUnorderedAccessViewVariable@@@D3DX11Effects@@@D3DX11Effects@@UEAAPEAUID3DX11EffectShaderVariable@@XZ 0000000180011980 f i effects11:EffectNonRuntime.obj
 0001:000109d0       ?AsBlend@?$TVariable@U?$TTopLevelVariable@UID3DX11EffectUnorderedAccessViewVariable@@@D3DX11Effects@@@D3DX11Effects@@UEAAPEAUID3DX11EffectBlendVariable@@XZ 00000001800119d0 f i effects11:EffectNonRuntime.obj
 0001:000109f0       ?AsDepthStencil@?$TVariable@U?$TTopLevelVariable@UID3DX11EffectUnorderedAccessViewVariable@@@D3DX11Effects@@@D3DX11Effects@@UEAAPEAUID3DX11EffectDepthStencilVariable@@XZ 00000001800119f0 f i effects11:EffectNonRuntime.obj
 0001:00010a10       ?AsRasterizer@?$TVariable@U?$TTopLevelVariable@UID3DX11EffectUnorderedAccessViewVariable@@@D3DX11Effects@@@D3DX11Effects@@UEAAPEAUID3DX11EffectRasterizerVariable@@XZ 0000000180011a10 f i effects11:EffectNonRuntime.obj
 0001:00010a30       ?AsSampler@?$TVariable@U?$TTopLevelVariable@UID3DX11EffectUnorderedAccessViewVariable@@@D3DX11Effects@@@D3DX11Effects@@UEAAPEAUID3DX11EffectSamplerVariable@@XZ 0000000180011a30 f i effects11:EffectNonRuntime.obj
 0001:00010a50       ?SetRawValue@?$TVariable@U?$TTopLevelVariable@UID3DX11EffectUnorderedAccessViewVariable@@@D3DX11Effects@@@D3DX11Effects@@UEAAJPEBXII@Z 0000000180011a50 f i effects11:EffectNonRuntime.obj
 0001:00010a60       ?GetRawValue@?$TVariable@U?$TTopLevelVariable@UID3DX11EffectUnorderedAccessViewVariable@@@D3DX11Effects@@@D3DX11Effects@@UEAAJPEAXII@Z 0000000180011a60 f i effects11:EffectNonRuntime.obj
 0001:00010a70       ?GetTopLevelEntity@?$TTopLevelVariable@UID3DX11EffectUnorderedAccessViewVariable@@@D3DX11Effects@@QEAAPEAU?$TTopLevelVariable@UID3DX11EffectVariable@@@2@XZ 0000000180011a70 f i effects11:EffectNonRuntime.obj
 0001:00010a80       ?IsArray@?$TTopLevelVariable@UID3DX11EffectUnorderedAccessViewVariable@@@D3DX11Effects@@QEAAHXZ 0000000180011a80 f i effects11:EffectNonRuntime.obj
 0001:00010a90       ?GetMemberByIndex@?$TVariable@U?$TTopLevelVariable@UID3DX11EffectUnorderedAccessViewVariable@@@D3DX11Effects@@@D3DX11Effects@@UEAAPEAUID3DX11EffectVariable@@I@Z 0000000180011a90 f i effects11:EffectNonRuntime.obj
 0001:00010b10       ?GetMemberByName@?$TVariable@U?$TTopLevelVariable@UID3DX11EffectUnorderedAccessViewVariable@@@D3DX11Effects@@@D3DX11Effects@@UEAAPEAUID3DX11EffectVariable@@PEBD@Z 0000000180011b10 f i effects11:EffectNonRuntime.obj
 0001:00010cd0       ?GetMemberBySemantic@?$TVariable@U?$TTopLevelVariable@UID3DX11EffectUnorderedAccessViewVariable@@@D3DX11Effects@@@D3DX11Effects@@UEAAPEAUID3DX11EffectVariable@@PEBD@Z 0000000180011cd0 f i effects11:EffectNonRuntime.obj
 0001:00010db0       ?GetElement@?$TVariable@U?$TTopLevelVariable@UID3DX11EffectUnorderedAccessViewVariable@@@D3DX11Effects@@@D3DX11Effects@@UEAAPEAUID3DX11EffectVariable@@I@Z 0000000180011db0 f i effects11:EffectNonRuntime.obj
 0001:00010e50       ??0?$TVariable@U?$TTopLevelVariable@UID3DX11EffectRenderTargetViewVariable@@@D3DX11Effects@@@D3DX11Effects@@QEAA@XZ 0000000180011e50 f i effects11:EffectNonRuntime.obj
 0001:00010e90       ?IsValid@?$TVariable@U?$TTopLevelVariable@UID3DX11EffectRenderTargetViewVariable@@@D3DX11Effects@@@D3DX11Effects@@UEAAHXZ 0000000180011e90 f i effects11:EffectNonRuntime.obj
 0001:00010ea0       ?AsScalar@?$TVariable@U?$TTopLevelVariable@UID3DX11EffectRenderTargetViewVariable@@@D3DX11Effects@@@D3DX11Effects@@UEAAPEAUID3DX11EffectScalarVariable@@XZ 0000000180011ea0 f i effects11:EffectNonRuntime.obj
 0001:00010ec0       ?AsVector@?$TVariable@U?$TTopLevelVariable@UID3DX11EffectRenderTargetViewVariable@@@D3DX11Effects@@@D3DX11Effects@@UEAAPEAUID3DX11EffectVectorVariable@@XZ 0000000180011ec0 f i effects11:EffectNonRuntime.obj
 0001:00010ee0       ?AsMatrix@?$TVariable@U?$TTopLevelVariable@UID3DX11EffectRenderTargetViewVariable@@@D3DX11Effects@@@D3DX11Effects@@UEAAPEAUID3DX11EffectMatrixVariable@@XZ 0000000180011ee0 f i effects11:EffectNonRuntime.obj
 0001:00010f00       ?AsString@?$TVariable@U?$TTopLevelVariable@UID3DX11EffectRenderTargetViewVariable@@@D3DX11Effects@@@D3DX11Effects@@UEAAPEAUID3DX11EffectStringVariable@@XZ 0000000180011f00 f i effects11:EffectNonRuntime.obj
 0001:00010f20       ?AsClassInstance@?$TVariable@U?$TTopLevelVariable@UID3DX11EffectRenderTargetViewVariable@@@D3DX11Effects@@@D3DX11Effects@@UEAAPEAUID3DX11EffectClassInstanceVariable@@XZ 0000000180011f20 f i effects11:EffectNonRuntime.obj
 0001:00010f50       ?AsInterface@?$TVariable@U?$TTopLevelVariable@UID3DX11EffectRenderTargetViewVariable@@@D3DX11Effects@@@D3DX11Effects@@UEAAPEAUID3DX11EffectInterfaceVariable@@XZ 0000000180011f50 f i effects11:EffectNonRuntime.obj
 0001:00010f70       ?AsShaderResource@?$TVariable@U?$TTopLevelVariable@UID3DX11EffectRenderTargetViewVariable@@@D3DX11Effects@@@D3DX11Effects@@UEAAPEAUID3DX11EffectShaderResourceVariable@@XZ 0000000180011f70 f i effects11:EffectNonRuntime.obj
 0001:00010fd0       ?AsUnorderedAccessView@?$TVariable@U?$TTopLevelVariable@UID3DX11EffectRenderTargetViewVariable@@@D3DX11Effects@@@D3DX11Effects@@UEAAPEAUID3DX11EffectUnorderedAccessViewVariable@@XZ 0000000180011fd0 f i effects11:EffectNonRuntime.obj
 0001:00011030       ?AsRenderTargetView@?$TVariable@U?$TTopLevelVariable@UID3DX11EffectRenderTargetViewVariable@@@D3DX11Effects@@@D3DX11Effects@@UEAAPEAUID3DX11EffectRenderTargetViewVariable@@XZ 0000000180012030 f i effects11:EffectNonRuntime.obj
 0001:00011050       ?AsDepthStencilView@?$TVariable@U?$TTopLevelVariable@UID3DX11EffectRenderTargetViewVariable@@@D3DX11Effects@@@D3DX11Effects@@UEAAPEAUID3DX11EffectDepthStencilViewVariable@@XZ 0000000180012050 f i effects11:EffectNonRuntime.obj
 0001:00011070       ?AsConstantBuffer@?$TVariable@U?$TTopLevelVariable@UID3DX11EffectRenderTargetViewVariable@@@D3DX11Effects@@@D3DX11Effects@@UEAAPEAUID3DX11EffectConstantBuffer@@XZ 0000000180012070 f i effects11:EffectNonRuntime.obj
 0001:00011080       ?AsShader@?$TVariable@U?$TTopLevelVariable@UID3DX11EffectRenderTargetViewVariable@@@D3DX11Effects@@@D3DX11Effects@@UEAAPEAUID3DX11EffectShaderVariable@@XZ 0000000180012080 f i effects11:EffectNonRuntime.obj
 0001:000110d0       ?AsBlend@?$TVariable@U?$TTopLevelVariable@UID3DX11EffectRenderTargetViewVariable@@@D3DX11Effects@@@D3DX11Effects@@UEAAPEAUID3DX11EffectBlendVariable@@XZ 00000001800120d0 f i effects11:EffectNonRuntime.obj
 0001:000110f0       ?AsDepthStencil@?$TVariable@U?$TTopLevelVariable@UID3DX11EffectRenderTargetViewVariable@@@D3DX11Effects@@@D3DX11Effects@@UEAAPEAUID3DX11EffectDepthStencilVariable@@XZ 00000001800120f0 f i effects11:EffectNonRuntime.obj
 0001:00011110       ?AsRasterizer@?$TVariable@U?$TTopLevelVariable@UID3DX11EffectRenderTargetViewVariable@@@D3DX11Effects@@@D3DX11Effects@@UEAAPEAUID3DX11EffectRasterizerVariable@@XZ 0000000180012110 f i effects11:EffectNonRuntime.obj
 0001:00011130       ?AsSampler@?$TVariable@U?$TTopLevelVariable@UID3DX11EffectRenderTargetViewVariable@@@D3DX11Effects@@@D3DX11Effects@@UEAAPEAUID3DX11EffectSamplerVariable@@XZ 0000000180012130 f i effects11:EffectNonRuntime.obj
 0001:00011150       ?SetRawValue@?$TVariable@U?$TTopLevelVariable@UID3DX11EffectRenderTargetViewVariable@@@D3DX11Effects@@@D3DX11Effects@@UEAAJPEBXII@Z 0000000180012150 f i effects11:EffectNonRuntime.obj
 0001:00011160       ?GetRawValue@?$TVariable@U?$TTopLevelVariable@UID3DX11EffectRenderTargetViewVariable@@@D3DX11Effects@@@D3DX11Effects@@UEAAJPEAXII@Z 0000000180012160 f i effects11:EffectNonRuntime.obj
 0001:00011170       ?GetTopLevelEntity@?$TTopLevelVariable@UID3DX11EffectRenderTargetViewVariable@@@D3DX11Effects@@QEAAPEAU?$TTopLevelVariable@UID3DX11EffectVariable@@@2@XZ 0000000180012170 f i effects11:EffectNonRuntime.obj
 0001:00011180       ?IsArray@?$TTopLevelVariable@UID3DX11EffectRenderTargetViewVariable@@@D3DX11Effects@@QEAAHXZ 0000000180012180 f i effects11:EffectNonRuntime.obj
 0001:00011190       ?GetMemberByIndex@?$TVariable@U?$TTopLevelVariable@UID3DX11EffectRenderTargetViewVariable@@@D3DX11Effects@@@D3DX11Effects@@UEAAPEAUID3DX11EffectVariable@@I@Z 0000000180012190 f i effects11:EffectNonRuntime.obj
 0001:00011210       ?GetMemberByName@?$TVariable@U?$TTopLevelVariable@UID3DX11EffectRenderTargetViewVariable@@@D3DX11Effects@@@D3DX11Effects@@UEAAPEAUID3DX11EffectVariable@@PEBD@Z 0000000180012210 f i effects11:EffectNonRuntime.obj
 0001:000113d0       ?GetMemberBySemantic@?$TVariable@U?$TTopLevelVariable@UID3DX11EffectRenderTargetViewVariable@@@D3DX11Effects@@@D3DX11Effects@@UEAAPEAUID3DX11EffectVariable@@PEBD@Z 00000001800123d0 f i effects11:EffectNonRuntime.obj
 0001:000114b0       ?GetElement@?$TVariable@U?$TTopLevelVariable@UID3DX11EffectRenderTargetViewVariable@@@D3DX11Effects@@@D3DX11Effects@@UEAAPEAUID3DX11EffectVariable@@I@Z 00000001800124b0 f i effects11:EffectNonRuntime.obj
 0001:00011550       ??0?$TVariable@U?$TTopLevelVariable@UID3DX11EffectDepthStencilViewVariable@@@D3DX11Effects@@@D3DX11Effects@@QEAA@XZ 0000000180012550 f i effects11:EffectNonRuntime.obj
 0001:00011590       ?IsValid@?$TVariable@U?$TTopLevelVariable@UID3DX11EffectDepthStencilViewVariable@@@D3DX11Effects@@@D3DX11Effects@@UEAAHXZ 0000000180012590 f i effects11:EffectNonRuntime.obj
 0001:000115a0       ?AsScalar@?$TVariable@U?$TTopLevelVariable@UID3DX11EffectDepthStencilViewVariable@@@D3DX11Effects@@@D3DX11Effects@@UEAAPEAUID3DX11EffectScalarVariable@@XZ 00000001800125a0 f i effects11:EffectNonRuntime.obj
 0001:000115c0       ?AsVector@?$TVariable@U?$TTopLevelVariable@UID3DX11EffectDepthStencilViewVariable@@@D3DX11Effects@@@D3DX11Effects@@UEAAPEAUID3DX11EffectVectorVariable@@XZ 00000001800125c0 f i effects11:EffectNonRuntime.obj
 0001:000115e0       ?AsMatrix@?$TVariable@U?$TTopLevelVariable@UID3DX11EffectDepthStencilViewVariable@@@D3DX11Effects@@@D3DX11Effects@@UEAAPEAUID3DX11EffectMatrixVariable@@XZ 00000001800125e0 f i effects11:EffectNonRuntime.obj
 0001:00011600       ?AsString@?$TVariable@U?$TTopLevelVariable@UID3DX11EffectDepthStencilViewVariable@@@D3DX11Effects@@@D3DX11Effects@@UEAAPEAUID3DX11EffectStringVariable@@XZ 0000000180012600 f i effects11:EffectNonRuntime.obj
 0001:00011620       ?AsClassInstance@?$TVariable@U?$TTopLevelVariable@UID3DX11EffectDepthStencilViewVariable@@@D3DX11Effects@@@D3DX11Effects@@UEAAPEAUID3DX11EffectClassInstanceVariable@@XZ 0000000180012620 f i effects11:EffectNonRuntime.obj
 0001:00011650       ?AsInterface@?$TVariable@U?$TTopLevelVariable@UID3DX11EffectDepthStencilViewVariable@@@D3DX11Effects@@@D3DX11Effects@@UEAAPEAUID3DX11EffectInterfaceVariable@@XZ 0000000180012650 f i effects11:EffectNonRuntime.obj
 0001:00011670       ?AsShaderResource@?$TVariable@U?$TTopLevelVariable@UID3DX11EffectDepthStencilViewVariable@@@D3DX11Effects@@@D3DX11Effects@@UEAAPEAUID3DX11EffectShaderResourceVariable@@XZ 0000000180012670 f i effects11:EffectNonRuntime.obj
 0001:000116d0       ?AsUnorderedAccessView@?$TVariable@U?$TTopLevelVariable@UID3DX11EffectDepthStencilViewVariable@@@D3DX11Effects@@@D3DX11Effects@@UEAAPEAUID3DX11EffectUnorderedAccessViewVariable@@XZ 00000001800126d0 f i effects11:EffectNonRuntime.obj
 0001:00011730       ?AsRenderTargetView@?$TVariable@U?$TTopLevelVariable@UID3DX11EffectDepthStencilViewVariable@@@D3DX11Effects@@@D3DX11Effects@@UEAAPEAUID3DX11EffectRenderTargetViewVariable@@XZ 0000000180012730 f i effects11:EffectNonRuntime.obj
 0001:00011750       ?AsDepthStencilView@?$TVariable@U?$TTopLevelVariable@UID3DX11EffectDepthStencilViewVariable@@@D3DX11Effects@@@D3DX11Effects@@UEAAPEAUID3DX11EffectDepthStencilViewVariable@@XZ 0000000180012750 f i effects11:EffectNonRuntime.obj
 0001:00011770       ?AsConstantBuffer@?$TVariable@U?$TTopLevelVariable@UID3DX11EffectDepthStencilViewVariable@@@D3DX11Effects@@@D3DX11Effects@@UEAAPEAUID3DX11EffectConstantBuffer@@XZ 0000000180012770 f i effects11:EffectNonRuntime.obj
 0001:00011780       ?AsShader@?$TVariable@U?$TTopLevelVariable@UID3DX11EffectDepthStencilViewVariable@@@D3DX11Effects@@@D3DX11Effects@@UEAAPEAUID3DX11EffectShaderVariable@@XZ 0000000180012780 f i effects11:EffectNonRuntime.obj
 0001:000117d0       ?AsBlend@?$TVariable@U?$TTopLevelVariable@UID3DX11EffectDepthStencilViewVariable@@@D3DX11Effects@@@D3DX11Effects@@UEAAPEAUID3DX11EffectBlendVariable@@XZ 00000001800127d0 f i effects11:EffectNonRuntime.obj
 0001:000117f0       ?AsDepthStencil@?$TVariable@U?$TTopLevelVariable@UID3DX11EffectDepthStencilViewVariable@@@D3DX11Effects@@@D3DX11Effects@@UEAAPEAUID3DX11EffectDepthStencilVariable@@XZ 00000001800127f0 f i effects11:EffectNonRuntime.obj
 0001:00011810       ?AsRasterizer@?$TVariable@U?$TTopLevelVariable@UID3DX11EffectDepthStencilViewVariable@@@D3DX11Effects@@@D3DX11Effects@@UEAAPEAUID3DX11EffectRasterizerVariable@@XZ 0000000180012810 f i effects11:EffectNonRuntime.obj
 0001:00011830       ?AsSampler@?$TVariable@U?$TTopLevelVariable@UID3DX11EffectDepthStencilViewVariable@@@D3DX11Effects@@@D3DX11Effects@@UEAAPEAUID3DX11EffectSamplerVariable@@XZ 0000000180012830 f i effects11:EffectNonRuntime.obj
 0001:00011850       ?SetRawValue@?$TVariable@U?$TTopLevelVariable@UID3DX11EffectDepthStencilViewVariable@@@D3DX11Effects@@@D3DX11Effects@@UEAAJPEBXII@Z 0000000180012850 f i effects11:EffectNonRuntime.obj
 0001:00011860       ?GetRawValue@?$TVariable@U?$TTopLevelVariable@UID3DX11EffectDepthStencilViewVariable@@@D3DX11Effects@@@D3DX11Effects@@UEAAJPEAXII@Z 0000000180012860 f i effects11:EffectNonRuntime.obj
 0001:00011870       ?GetTopLevelEntity@?$TTopLevelVariable@UID3DX11EffectDepthStencilViewVariable@@@D3DX11Effects@@QEAAPEAU?$TTopLevelVariable@UID3DX11EffectVariable@@@2@XZ 0000000180012870 f i effects11:EffectNonRuntime.obj
 0001:00011880       ?IsArray@?$TTopLevelVariable@UID3DX11EffectDepthStencilViewVariable@@@D3DX11Effects@@QEAAHXZ 0000000180012880 f i effects11:EffectNonRuntime.obj
 0001:00011890       ?GetMemberByIndex@?$TVariable@U?$TTopLevelVariable@UID3DX11EffectDepthStencilViewVariable@@@D3DX11Effects@@@D3DX11Effects@@UEAAPEAUID3DX11EffectVariable@@I@Z 0000000180012890 f i effects11:EffectNonRuntime.obj
 0001:00011910       ?GetMemberByName@?$TVariable@U?$TTopLevelVariable@UID3DX11EffectDepthStencilViewVariable@@@D3DX11Effects@@@D3DX11Effects@@UEAAPEAUID3DX11EffectVariable@@PEBD@Z 0000000180012910 f i effects11:EffectNonRuntime.obj
 0001:00011ad0       ?GetMemberBySemantic@?$TVariable@U?$TTopLevelVariable@UID3DX11EffectDepthStencilViewVariable@@@D3DX11Effects@@@D3DX11Effects@@UEAAPEAUID3DX11EffectVariable@@PEBD@Z 0000000180012ad0 f i effects11:EffectNonRuntime.obj
 0001:00011bb0       ?GetElement@?$TVariable@U?$TTopLevelVariable@UID3DX11EffectDepthStencilViewVariable@@@D3DX11Effects@@@D3DX11Effects@@UEAAPEAUID3DX11EffectVariable@@I@Z 0000000180012bb0 f i effects11:EffectNonRuntime.obj
 0001:00011c50       ??0?$TVariable@U?$TTopLevelVariable@UID3DX11EffectShaderVariable@@@D3DX11Effects@@@D3DX11Effects@@QEAA@XZ 0000000180012c50 f i effects11:EffectNonRuntime.obj
 0001:00011c90       ?IsValid@?$TVariable@U?$TTopLevelVariable@UID3DX11EffectShaderVariable@@@D3DX11Effects@@@D3DX11Effects@@UEAAHXZ 0000000180012c90 f i effects11:EffectNonRuntime.obj
 0001:00011ca0       ?AsScalar@?$TVariable@U?$TTopLevelVariable@UID3DX11EffectShaderVariable@@@D3DX11Effects@@@D3DX11Effects@@UEAAPEAUID3DX11EffectScalarVariable@@XZ 0000000180012ca0 f i effects11:EffectNonRuntime.obj
 0001:00011cc0       ?AsVector@?$TVariable@U?$TTopLevelVariable@UID3DX11EffectShaderVariable@@@D3DX11Effects@@@D3DX11Effects@@UEAAPEAUID3DX11EffectVectorVariable@@XZ 0000000180012cc0 f i effects11:EffectNonRuntime.obj
 0001:00011ce0       ?AsMatrix@?$TVariable@U?$TTopLevelVariable@UID3DX11EffectShaderVariable@@@D3DX11Effects@@@D3DX11Effects@@UEAAPEAUID3DX11EffectMatrixVariable@@XZ 0000000180012ce0 f i effects11:EffectNonRuntime.obj
 0001:00011d00       ?AsString@?$TVariable@U?$TTopLevelVariable@UID3DX11EffectShaderVariable@@@D3DX11Effects@@@D3DX11Effects@@UEAAPEAUID3DX11EffectStringVariable@@XZ 0000000180012d00 f i effects11:EffectNonRuntime.obj
 0001:00011d20       ?AsClassInstance@?$TVariable@U?$TTopLevelVariable@UID3DX11EffectShaderVariable@@@D3DX11Effects@@@D3DX11Effects@@UEAAPEAUID3DX11EffectClassInstanceVariable@@XZ 0000000180012d20 f i effects11:EffectNonRuntime.obj
 0001:00011d50       ?AsInterface@?$TVariable@U?$TTopLevelVariable@UID3DX11EffectShaderVariable@@@D3DX11Effects@@@D3DX11Effects@@UEAAPEAUID3DX11EffectInterfaceVariable@@XZ 0000000180012d50 f i effects11:EffectNonRuntime.obj
 0001:00011d70       ?AsShaderResource@?$TVariable@U?$TTopLevelVariable@UID3DX11EffectShaderVariable@@@D3DX11Effects@@@D3DX11Effects@@UEAAPEAUID3DX11EffectShaderResourceVariable@@XZ 0000000180012d70 f i effects11:EffectNonRuntime.obj
 0001:00011dd0       ?AsUnorderedAccessView@?$TVariable@U?$TTopLevelVariable@UID3DX11EffectShaderVariable@@@D3DX11Effects@@@D3DX11Effects@@UEAAPEAUID3DX11EffectUnorderedAccessViewVariable@@XZ 0000000180012dd0 f i effects11:EffectNonRuntime.obj
 0001:00011e30       ?AsRenderTargetView@?$TVariable@U?$TTopLevelVariable@UID3DX11EffectShaderVariable@@@D3DX11Effects@@@D3DX11Effects@@UEAAPEAUID3DX11EffectRenderTargetViewVariable@@XZ 0000000180012e30 f i effects11:EffectNonRuntime.obj
 0001:00011e50       ?AsDepthStencilView@?$TVariable@U?$TTopLevelVariable@UID3DX11EffectShaderVariable@@@D3DX11Effects@@@D3DX11Effects@@UEAAPEAUID3DX11EffectDepthStencilViewVariable@@XZ 0000000180012e50 f i effects11:EffectNonRuntime.obj
 0001:00011e70       ?AsConstantBuffer@?$TVariable@U?$TTopLevelVariable@UID3DX11EffectShaderVariable@@@D3DX11Effects@@@D3DX11Effects@@UEAAPEAUID3DX11EffectConstantBuffer@@XZ 0000000180012e70 f i effects11:EffectNonRuntime.obj
 0001:00011e80       ?AsShader@?$TVariable@U?$TTopLevelVariable@UID3DX11EffectShaderVariable@@@D3DX11Effects@@@D3DX11Effects@@UEAAPEAUID3DX11EffectShaderVariable@@XZ 0000000180012e80 f i effects11:EffectNonRuntime.obj
 0001:00011ed0       ?AsBlend@?$TVariable@U?$TTopLevelVariable@UID3DX11EffectShaderVariable@@@D3DX11Effects@@@D3DX11Effects@@UEAAPEAUID3DX11EffectBlendVariable@@XZ 0000000180012ed0 f i effects11:EffectNonRuntime.obj
 0001:00011ef0       ?AsDepthStencil@?$TVariable@U?$TTopLevelVariable@UID3DX11EffectShaderVariable@@@D3DX11Effects@@@D3DX11Effects@@UEAAPEAUID3DX11EffectDepthStencilVariable@@XZ 0000000180012ef0 f i effects11:EffectNonRuntime.obj
 0001:00011f10       ?AsRasterizer@?$TVariable@U?$TTopLevelVariable@UID3DX11EffectShaderVariable@@@D3DX11Effects@@@D3DX11Effects@@UEAAPEAUID3DX11EffectRasterizerVariable@@XZ 0000000180012f10 f i effects11:EffectNonRuntime.obj
 0001:00011f30       ?AsSampler@?$TVariable@U?$TTopLevelVariable@UID3DX11EffectShaderVariable@@@D3DX11Effects@@@D3DX11Effects@@UEAAPEAUID3DX11EffectSamplerVariable@@XZ 0000000180012f30 f i effects11:EffectNonRuntime.obj
 0001:00011f50       ?SetRawValue@?$TVariable@U?$TTopLevelVariable@UID3DX11EffectShaderVariable@@@D3DX11Effects@@@D3DX11Effects@@UEAAJPEBXII@Z 0000000180012f50 f i effects11:EffectNonRuntime.obj
 0001:00011f60       ?GetRawValue@?$TVariable@U?$TTopLevelVariable@UID3DX11EffectShaderVariable@@@D3DX11Effects@@@D3DX11Effects@@UEAAJPEAXII@Z 0000000180012f60 f i effects11:EffectNonRuntime.obj
 0001:00011f70       ?GetTopLevelEntity@?$TTopLevelVariable@UID3DX11EffectShaderVariable@@@D3DX11Effects@@QEAAPEAU?$TTopLevelVariable@UID3DX11EffectVariable@@@2@XZ 0000000180012f70 f i effects11:EffectNonRuntime.obj
 0001:00011f80       ?IsArray@?$TTopLevelVariable@UID3DX11EffectShaderVariable@@@D3DX11Effects@@QEAAHXZ 0000000180012f80 f i effects11:EffectNonRuntime.obj
 0001:00011f90       ?GetMemberByIndex@?$TVariable@U?$TTopLevelVariable@UID3DX11EffectShaderVariable@@@D3DX11Effects@@@D3DX11Effects@@UEAAPEAUID3DX11EffectVariable@@I@Z 0000000180012f90 f i effects11:EffectNonRuntime.obj
 0001:00012010       ?GetMemberByName@?$TVariable@U?$TTopLevelVariable@UID3DX11EffectShaderVariable@@@D3DX11Effects@@@D3DX11Effects@@UEAAPEAUID3DX11EffectVariable@@PEBD@Z 0000000180013010 f i effects11:EffectNonRuntime.obj
 0001:000121d0       ?GetMemberBySemantic@?$TVariable@U?$TTopLevelVariable@UID3DX11EffectShaderVariable@@@D3DX11Effects@@@D3DX11Effects@@UEAAPEAUID3DX11EffectVariable@@PEBD@Z 00000001800131d0 f i effects11:EffectNonRuntime.obj
 0001:000122b0       ?GetElement@?$TVariable@U?$TTopLevelVariable@UID3DX11EffectShaderVariable@@@D3DX11Effects@@@D3DX11Effects@@UEAAPEAUID3DX11EffectVariable@@I@Z 00000001800132b0 f i effects11:EffectNonRuntime.obj
 0001:00012350       ??0?$TVariable@U?$TTopLevelVariable@UID3DX11EffectBlendVariable@@@D3DX11Effects@@@D3DX11Effects@@QEAA@XZ 0000000180013350 f i effects11:EffectNonRuntime.obj
 0001:00012390       ?IsValid@?$TVariable@U?$TTopLevelVariable@UID3DX11EffectBlendVariable@@@D3DX11Effects@@@D3DX11Effects@@UEAAHXZ 0000000180013390 f i effects11:EffectNonRuntime.obj
 0001:000123a0       ?AsScalar@?$TVariable@U?$TTopLevelVariable@UID3DX11EffectBlendVariable@@@D3DX11Effects@@@D3DX11Effects@@UEAAPEAUID3DX11EffectScalarVariable@@XZ 00000001800133a0 f i effects11:EffectNonRuntime.obj
 0001:000123c0       ?AsVector@?$TVariable@U?$TTopLevelVariable@UID3DX11EffectBlendVariable@@@D3DX11Effects@@@D3DX11Effects@@UEAAPEAUID3DX11EffectVectorVariable@@XZ 00000001800133c0 f i effects11:EffectNonRuntime.obj
 0001:000123e0       ?AsMatrix@?$TVariable@U?$TTopLevelVariable@UID3DX11EffectBlendVariable@@@D3DX11Effects@@@D3DX11Effects@@UEAAPEAUID3DX11EffectMatrixVariable@@XZ 00000001800133e0 f i effects11:EffectNonRuntime.obj
 0001:00012400       ?AsString@?$TVariable@U?$TTopLevelVariable@UID3DX11EffectBlendVariable@@@D3DX11Effects@@@D3DX11Effects@@UEAAPEAUID3DX11EffectStringVariable@@XZ 0000000180013400 f i effects11:EffectNonRuntime.obj
 0001:00012420       ?AsClassInstance@?$TVariable@U?$TTopLevelVariable@UID3DX11EffectBlendVariable@@@D3DX11Effects@@@D3DX11Effects@@UEAAPEAUID3DX11EffectClassInstanceVariable@@XZ 0000000180013420 f i effects11:EffectNonRuntime.obj
 0001:00012450       ?AsInterface@?$TVariable@U?$TTopLevelVariable@UID3DX11EffectBlendVariable@@@D3DX11Effects@@@D3DX11Effects@@UEAAPEAUID3DX11EffectInterfaceVariable@@XZ 0000000180013450 f i effects11:EffectNonRuntime.obj
 0001:00012470       ?AsShaderResource@?$TVariable@U?$TTopLevelVariable@UID3DX11EffectBlendVariable@@@D3DX11Effects@@@D3DX11Effects@@UEAAPEAUID3DX11EffectShaderResourceVariable@@XZ 0000000180013470 f i effects11:EffectNonRuntime.obj
 0001:000124d0       ?AsUnorderedAccessView@?$TVariable@U?$TTopLevelVariable@UID3DX11EffectBlendVariable@@@D3DX11Effects@@@D3DX11Effects@@UEAAPEAUID3DX11EffectUnorderedAccessViewVariable@@XZ 00000001800134d0 f i effects11:EffectNonRuntime.obj
 0001:00012530       ?AsRenderTargetView@?$TVariable@U?$TTopLevelVariable@UID3DX11EffectBlendVariable@@@D3DX11Effects@@@D3DX11Effects@@UEAAPEAUID3DX11EffectRenderTargetViewVariable@@XZ 0000000180013530 f i effects11:EffectNonRuntime.obj
 0001:00012550       ?AsDepthStencilView@?$TVariable@U?$TTopLevelVariable@UID3DX11EffectBlendVariable@@@D3DX11Effects@@@D3DX11Effects@@UEAAPEAUID3DX11EffectDepthStencilViewVariable@@XZ 0000000180013550 f i effects11:EffectNonRuntime.obj
 0001:00012570       ?AsConstantBuffer@?$TVariable@U?$TTopLevelVariable@UID3DX11EffectBlendVariable@@@D3DX11Effects@@@D3DX11Effects@@UEAAPEAUID3DX11EffectConstantBuffer@@XZ 0000000180013570 f i effects11:EffectNonRuntime.obj
 0001:00012580       ?AsShader@?$TVariable@U?$TTopLevelVariable@UID3DX11EffectBlendVariable@@@D3DX11Effects@@@D3DX11Effects@@UEAAPEAUID3DX11EffectShaderVariable@@XZ 0000000180013580 f i effects11:EffectNonRuntime.obj
 0001:000125d0       ?AsBlend@?$TVariable@U?$TTopLevelVariable@UID3DX11EffectBlendVariable@@@D3DX11Effects@@@D3DX11Effects@@UEAAPEAUID3DX11EffectBlendVariable@@XZ 00000001800135d0 f i effects11:EffectNonRuntime.obj
 0001:000125f0       ?AsDepthStencil@?$TVariable@U?$TTopLevelVariable@UID3DX11EffectBlendVariable@@@D3DX11Effects@@@D3DX11Effects@@UEAAPEAUID3DX11EffectDepthStencilVariable@@XZ 00000001800135f0 f i effects11:EffectNonRuntime.obj
 0001:00012610       ?AsRasterizer@?$TVariable@U?$TTopLevelVariable@UID3DX11EffectBlendVariable@@@D3DX11Effects@@@D3DX11Effects@@UEAAPEAUID3DX11EffectRasterizerVariable@@XZ 0000000180013610 f i effects11:EffectNonRuntime.obj
 0001:00012630       ?AsSampler@?$TVariable@U?$TTopLevelVariable@UID3DX11EffectBlendVariable@@@D3DX11Effects@@@D3DX11Effects@@UEAAPEAUID3DX11EffectSamplerVariable@@XZ 0000000180013630 f i effects11:EffectNonRuntime.obj
 0001:00012650       ?SetRawValue@?$TVariable@U?$TTopLevelVariable@UID3DX11EffectBlendVariable@@@D3DX11Effects@@@D3DX11Effects@@UEAAJPEBXII@Z 0000000180013650 f i effects11:EffectNonRuntime.obj
 0001:00012660       ?GetRawValue@?$TVariable@U?$TTopLevelVariable@UID3DX11EffectBlendVariable@@@D3DX11Effects@@@D3DX11Effects@@UEAAJPEAXII@Z 0000000180013660 f i effects11:EffectNonRuntime.obj
 0001:00012670       ?GetTopLevelEntity@?$TTopLevelVariable@UID3DX11EffectBlendVariable@@@D3DX11Effects@@QEAAPEAU?$TTopLevelVariable@UID3DX11EffectVariable@@@2@XZ 0000000180013670 f i effects11:EffectNonRuntime.obj
 0001:00012680       ?IsArray@?$TTopLevelVariable@UID3DX11EffectBlendVariable@@@D3DX11Effects@@QEAAHXZ 0000000180013680 f i effects11:EffectNonRuntime.obj
 0001:00012690       ?GetMemberByIndex@?$TVariable@U?$TTopLevelVariable@UID3DX11EffectBlendVariable@@@D3DX11Effects@@@D3DX11Effects@@UEAAPEAUID3DX11EffectVariable@@I@Z 0000000180013690 f i effects11:EffectNonRuntime.obj
 0001:00012710       ?GetMemberByName@?$TVariable@U?$TTopLevelVariable@UID3DX11EffectBlendVariable@@@D3DX11Effects@@@D3DX11Effects@@UEAAPEAUID3DX11EffectVariable@@PEBD@Z 0000000180013710 f i effects11:EffectNonRuntime.obj
 0001:000128d0       ?GetMemberBySemantic@?$TVariable@U?$TTopLevelVariable@UID3DX11EffectBlendVariable@@@D3DX11Effects@@@D3DX11Effects@@UEAAPEAUID3DX11EffectVariable@@PEBD@Z 00000001800138d0 f i effects11:EffectNonRuntime.obj
 0001:000129b0       ?GetElement@?$TVariable@U?$TTopLevelVariable@UID3DX11EffectBlendVariable@@@D3DX11Effects@@@D3DX11Effects@@UEAAPEAUID3DX11EffectVariable@@I@Z 00000001800139b0 f i effects11:EffectNonRuntime.obj
 0001:00012a50       ??0?$TVariable@U?$TTopLevelVariable@UID3DX11EffectDepthStencilVariable@@@D3DX11Effects@@@D3DX11Effects@@QEAA@XZ 0000000180013a50 f i effects11:EffectNonRuntime.obj
 0001:00012a90       ?IsValid@?$TVariable@U?$TTopLevelVariable@UID3DX11EffectDepthStencilVariable@@@D3DX11Effects@@@D3DX11Effects@@UEAAHXZ 0000000180013a90 f i effects11:EffectNonRuntime.obj
 0001:00012aa0       ?AsScalar@?$TVariable@U?$TTopLevelVariable@UID3DX11EffectDepthStencilVariable@@@D3DX11Effects@@@D3DX11Effects@@UEAAPEAUID3DX11EffectScalarVariable@@XZ 0000000180013aa0 f i effects11:EffectNonRuntime.obj
 0001:00012ac0       ?AsVector@?$TVariable@U?$TTopLevelVariable@UID3DX11EffectDepthStencilVariable@@@D3DX11Effects@@@D3DX11Effects@@UEAAPEAUID3DX11EffectVectorVariable@@XZ 0000000180013ac0 f i effects11:EffectNonRuntime.obj
 0001:00012ae0       ?AsMatrix@?$TVariable@U?$TTopLevelVariable@UID3DX11EffectDepthStencilVariable@@@D3DX11Effects@@@D3DX11Effects@@UEAAPEAUID3DX11EffectMatrixVariable@@XZ 0000000180013ae0 f i effects11:EffectNonRuntime.obj
 0001:00012b00       ?AsString@?$TVariable@U?$TTopLevelVariable@UID3DX11EffectDepthStencilVariable@@@D3DX11Effects@@@D3DX11Effects@@UEAAPEAUID3DX11EffectStringVariable@@XZ 0000000180013b00 f i effects11:EffectNonRuntime.obj
 0001:00012b20       ?AsClassInstance@?$TVariable@U?$TTopLevelVariable@UID3DX11EffectDepthStencilVariable@@@D3DX11Effects@@@D3DX11Effects@@UEAAPEAUID3DX11EffectClassInstanceVariable@@XZ 0000000180013b20 f i effects11:EffectNonRuntime.obj
 0001:00012b50       ?AsInterface@?$TVariable@U?$TTopLevelVariable@UID3DX11EffectDepthStencilVariable@@@D3DX11Effects@@@D3DX11Effects@@UEAAPEAUID3DX11EffectInterfaceVariable@@XZ 0000000180013b50 f i effects11:EffectNonRuntime.obj
 0001:00012b70       ?AsShaderResource@?$TVariable@U?$TTopLevelVariable@UID3DX11EffectDepthStencilVariable@@@D3DX11Effects@@@D3DX11Effects@@UEAAPEAUID3DX11EffectShaderResourceVariable@@XZ 0000000180013b70 f i effects11:EffectNonRuntime.obj
 0001:00012bd0       ?AsUnorderedAccessView@?$TVariable@U?$TTopLevelVariable@UID3DX11EffectDepthStencilVariable@@@D3DX11Effects@@@D3DX11Effects@@UEAAPEAUID3DX11EffectUnorderedAccessViewVariable@@XZ 0000000180013bd0 f i effects11:EffectNonRuntime.obj
 0001:00012c30       ?AsRenderTargetView@?$TVariable@U?$TTopLevelVariable@UID3DX11EffectDepthStencilVariable@@@D3DX11Effects@@@D3DX11Effects@@UEAAPEAUID3DX11EffectRenderTargetViewVariable@@XZ 0000000180013c30 f i effects11:EffectNonRuntime.obj
 0001:00012c50       ?AsDepthStencilView@?$TVariable@U?$TTopLevelVariable@UID3DX11EffectDepthStencilVariable@@@D3DX11Effects@@@D3DX11Effects@@UEAAPEAUID3DX11EffectDepthStencilViewVariable@@XZ 0000000180013c50 f i effects11:EffectNonRuntime.obj
 0001:00012c70       ?AsConstantBuffer@?$TVariable@U?$TTopLevelVariable@UID3DX11EffectDepthStencilVariable@@@D3DX11Effects@@@D3DX11Effects@@UEAAPEAUID3DX11EffectConstantBuffer@@XZ 0000000180013c70 f i effects11:EffectNonRuntime.obj
 0001:00012c80       ?AsShader@?$TVariable@U?$TTopLevelVariable@UID3DX11EffectDepthStencilVariable@@@D3DX11Effects@@@D3DX11Effects@@UEAAPEAUID3DX11EffectShaderVariable@@XZ 0000000180013c80 f i effects11:EffectNonRuntime.obj
 0001:00012cd0       ?AsBlend@?$TVariable@U?$TTopLevelVariable@UID3DX11EffectDepthStencilVariable@@@D3DX11Effects@@@D3DX11Effects@@UEAAPEAUID3DX11EffectBlendVariable@@XZ 0000000180013cd0 f i effects11:EffectNonRuntime.obj
 0001:00012cf0       ?AsDepthStencil@?$TVariable@U?$TTopLevelVariable@UID3DX11EffectDepthStencilVariable@@@D3DX11Effects@@@D3DX11Effects@@UEAAPEAUID3DX11EffectDepthStencilVariable@@XZ 0000000180013cf0 f i effects11:EffectNonRuntime.obj
 0001:00012d10       ?AsRasterizer@?$TVariable@U?$TTopLevelVariable@UID3DX11EffectDepthStencilVariable@@@D3DX11Effects@@@D3DX11Effects@@UEAAPEAUID3DX11EffectRasterizerVariable@@XZ 0000000180013d10 f i effects11:EffectNonRuntime.obj
 0001:00012d30       ?AsSampler@?$TVariable@U?$TTopLevelVariable@UID3DX11EffectDepthStencilVariable@@@D3DX11Effects@@@D3DX11Effects@@UEAAPEAUID3DX11EffectSamplerVariable@@XZ 0000000180013d30 f i effects11:EffectNonRuntime.obj
 0001:00012d50       ?SetRawValue@?$TVariable@U?$TTopLevelVariable@UID3DX11EffectDepthStencilVariable@@@D3DX11Effects@@@D3DX11Effects@@UEAAJPEBXII@Z 0000000180013d50 f i effects11:EffectNonRuntime.obj
 0001:00012d60       ?GetRawValue@?$TVariable@U?$TTopLevelVariable@UID3DX11EffectDepthStencilVariable@@@D3DX11Effects@@@D3DX11Effects@@UEAAJPEAXII@Z 0000000180013d60 f i effects11:EffectNonRuntime.obj
 0001:00012d70       ?GetTopLevelEntity@?$TTopLevelVariable@UID3DX11EffectDepthStencilVariable@@@D3DX11Effects@@QEAAPEAU?$TTopLevelVariable@UID3DX11EffectVariable@@@2@XZ 0000000180013d70 f i effects11:EffectNonRuntime.obj
 0001:00012d80       ?IsArray@?$TTopLevelVariable@UID3DX11EffectDepthStencilVariable@@@D3DX11Effects@@QEAAHXZ 0000000180013d80 f i effects11:EffectNonRuntime.obj
 0001:00012d90       ?GetMemberByIndex@?$TVariable@U?$TTopLevelVariable@UID3DX11EffectDepthStencilVariable@@@D3DX11Effects@@@D3DX11Effects@@UEAAPEAUID3DX11EffectVariable@@I@Z 0000000180013d90 f i effects11:EffectNonRuntime.obj
 0001:00012e10       ?GetMemberByName@?$TVariable@U?$TTopLevelVariable@UID3DX11EffectDepthStencilVariable@@@D3DX11Effects@@@D3DX11Effects@@UEAAPEAUID3DX11EffectVariable@@PEBD@Z 0000000180013e10 f i effects11:EffectNonRuntime.obj
 0001:00012fd0       ?GetMemberBySemantic@?$TVariable@U?$TTopLevelVariable@UID3DX11EffectDepthStencilVariable@@@D3DX11Effects@@@D3DX11Effects@@UEAAPEAUID3DX11EffectVariable@@PEBD@Z 0000000180013fd0 f i effects11:EffectNonRuntime.obj
 0001:000130b0       ?GetElement@?$TVariable@U?$TTopLevelVariable@UID3DX11EffectDepthStencilVariable@@@D3DX11Effects@@@D3DX11Effects@@UEAAPEAUID3DX11EffectVariable@@I@Z 00000001800140b0 f i effects11:EffectNonRuntime.obj
 0001:00013150       ??0?$TVariable@U?$TTopLevelVariable@UID3DX11EffectRasterizerVariable@@@D3DX11Effects@@@D3DX11Effects@@QEAA@XZ 0000000180014150 f i effects11:EffectNonRuntime.obj
 0001:00013190       ?IsValid@?$TVariable@U?$TTopLevelVariable@UID3DX11EffectRasterizerVariable@@@D3DX11Effects@@@D3DX11Effects@@UEAAHXZ 0000000180014190 f i effects11:EffectNonRuntime.obj
 0001:000131a0       ?AsScalar@?$TVariable@U?$TTopLevelVariable@UID3DX11EffectRasterizerVariable@@@D3DX11Effects@@@D3DX11Effects@@UEAAPEAUID3DX11EffectScalarVariable@@XZ 00000001800141a0 f i effects11:EffectNonRuntime.obj
 0001:000131c0       ?AsVector@?$TVariable@U?$TTopLevelVariable@UID3DX11EffectRasterizerVariable@@@D3DX11Effects@@@D3DX11Effects@@UEAAPEAUID3DX11EffectVectorVariable@@XZ 00000001800141c0 f i effects11:EffectNonRuntime.obj
 0001:000131e0       ?AsMatrix@?$TVariable@U?$TTopLevelVariable@UID3DX11EffectRasterizerVariable@@@D3DX11Effects@@@D3DX11Effects@@UEAAPEAUID3DX11EffectMatrixVariable@@XZ 00000001800141e0 f i effects11:EffectNonRuntime.obj
 0001:00013200       ?AsString@?$TVariable@U?$TTopLevelVariable@UID3DX11EffectRasterizerVariable@@@D3DX11Effects@@@D3DX11Effects@@UEAAPEAUID3DX11EffectStringVariable@@XZ 0000000180014200 f i effects11:EffectNonRuntime.obj
 0001:00013220       ?AsClassInstance@?$TVariable@U?$TTopLevelVariable@UID3DX11EffectRasterizerVariable@@@D3DX11Effects@@@D3DX11Effects@@UEAAPEAUID3DX11EffectClassInstanceVariable@@XZ 0000000180014220 f i effects11:EffectNonRuntime.obj
 0001:00013250       ?AsInterface@?$TVariable@U?$TTopLevelVariable@UID3DX11EffectRasterizerVariable@@@D3DX11Effects@@@D3DX11Effects@@UEAAPEAUID3DX11EffectInterfaceVariable@@XZ 0000000180014250 f i effects11:EffectNonRuntime.obj
 0001:00013270       ?AsShaderResource@?$TVariable@U?$TTopLevelVariable@UID3DX11EffectRasterizerVariable@@@D3DX11Effects@@@D3DX11Effects@@UEAAPEAUID3DX11EffectShaderResourceVariable@@XZ 0000000180014270 f i effects11:EffectNonRuntime.obj
 0001:000132d0       ?AsUnorderedAccessView@?$TVariable@U?$TTopLevelVariable@UID3DX11EffectRasterizerVariable@@@D3DX11Effects@@@D3DX11Effects@@UEAAPEAUID3DX11EffectUnorderedAccessViewVariable@@XZ 00000001800142d0 f i effects11:EffectNonRuntime.obj
 0001:00013330       ?AsRenderTargetView@?$TVariable@U?$TTopLevelVariable@UID3DX11EffectRasterizerVariable@@@D3DX11Effects@@@D3DX11Effects@@UEAAPEAUID3DX11EffectRenderTargetViewVariable@@XZ 0000000180014330 f i effects11:EffectNonRuntime.obj
 0001:00013350       ?AsDepthStencilView@?$TVariable@U?$TTopLevelVariable@UID3DX11EffectRasterizerVariable@@@D3DX11Effects@@@D3DX11Effects@@UEAAPEAUID3DX11EffectDepthStencilViewVariable@@XZ 0000000180014350 f i effects11:EffectNonRuntime.obj
 0001:00013370       ?AsConstantBuffer@?$TVariable@U?$TTopLevelVariable@UID3DX11EffectRasterizerVariable@@@D3DX11Effects@@@D3DX11Effects@@UEAAPEAUID3DX11EffectConstantBuffer@@XZ 0000000180014370 f i effects11:EffectNonRuntime.obj
 0001:00013380       ?AsShader@?$TVariable@U?$TTopLevelVariable@UID3DX11EffectRasterizerVariable@@@D3DX11Effects@@@D3DX11Effects@@UEAAPEAUID3DX11EffectShaderVariable@@XZ 0000000180014380 f i effects11:EffectNonRuntime.obj
 0001:000133d0       ?AsBlend@?$TVariable@U?$TTopLevelVariable@UID3DX11EffectRasterizerVariable@@@D3DX11Effects@@@D3DX11Effects@@UEAAPEAUID3DX11EffectBlendVariable@@XZ 00000001800143d0 f i effects11:EffectNonRuntime.obj
 0001:000133f0       ?AsDepthStencil@?$TVariable@U?$TTopLevelVariable@UID3DX11EffectRasterizerVariable@@@D3DX11Effects@@@D3DX11Effects@@UEAAPEAUID3DX11EffectDepthStencilVariable@@XZ 00000001800143f0 f i effects11:EffectNonRuntime.obj
 0001:00013410       ?AsRasterizer@?$TVariable@U?$TTopLevelVariable@UID3DX11EffectRasterizerVariable@@@D3DX11Effects@@@D3DX11Effects@@UEAAPEAUID3DX11EffectRasterizerVariable@@XZ 0000000180014410 f i effects11:EffectNonRuntime.obj
 0001:00013430       ?AsSampler@?$TVariable@U?$TTopLevelVariable@UID3DX11EffectRasterizerVariable@@@D3DX11Effects@@@D3DX11Effects@@UEAAPEAUID3DX11EffectSamplerVariable@@XZ 0000000180014430 f i effects11:EffectNonRuntime.obj
 0001:00013450       ?SetRawValue@?$TVariable@U?$TTopLevelVariable@UID3DX11EffectRasterizerVariable@@@D3DX11Effects@@@D3DX11Effects@@UEAAJPEBXII@Z 0000000180014450 f i effects11:EffectNonRuntime.obj
 0001:00013460       ?GetRawValue@?$TVariable@U?$TTopLevelVariable@UID3DX11EffectRasterizerVariable@@@D3DX11Effects@@@D3DX11Effects@@UEAAJPEAXII@Z 0000000180014460 f i effects11:EffectNonRuntime.obj
 0001:00013470       ?GetTopLevelEntity@?$TTopLevelVariable@UID3DX11EffectRasterizerVariable@@@D3DX11Effects@@QEAAPEAU?$TTopLevelVariable@UID3DX11EffectVariable@@@2@XZ 0000000180014470 f i effects11:EffectNonRuntime.obj
 0001:00013480       ?IsArray@?$TTopLevelVariable@UID3DX11EffectRasterizerVariable@@@D3DX11Effects@@QEAAHXZ 0000000180014480 f i effects11:EffectNonRuntime.obj
 0001:00013490       ?GetMemberByIndex@?$TVariable@U?$TTopLevelVariable@UID3DX11EffectRasterizerVariable@@@D3DX11Effects@@@D3DX11Effects@@UEAAPEAUID3DX11EffectVariable@@I@Z 0000000180014490 f i effects11:EffectNonRuntime.obj
 0001:00013510       ?GetMemberByName@?$TVariable@U?$TTopLevelVariable@UID3DX11EffectRasterizerVariable@@@D3DX11Effects@@@D3DX11Effects@@UEAAPEAUID3DX11EffectVariable@@PEBD@Z 0000000180014510 f i effects11:EffectNonRuntime.obj
 0001:000136d0       ?GetMemberBySemantic@?$TVariable@U?$TTopLevelVariable@UID3DX11EffectRasterizerVariable@@@D3DX11Effects@@@D3DX11Effects@@UEAAPEAUID3DX11EffectVariable@@PEBD@Z 00000001800146d0 f i effects11:EffectNonRuntime.obj
 0001:000137b0       ?GetElement@?$TVariable@U?$TTopLevelVariable@UID3DX11EffectRasterizerVariable@@@D3DX11Effects@@@D3DX11Effects@@UEAAPEAUID3DX11EffectVariable@@I@Z 00000001800147b0 f i effects11:EffectNonRuntime.obj
 0001:00013850       ??0?$TVariable@U?$TTopLevelVariable@UID3DX11EffectSamplerVariable@@@D3DX11Effects@@@D3DX11Effects@@QEAA@XZ 0000000180014850 f i effects11:EffectNonRuntime.obj
 0001:00013890       ?IsValid@?$TVariable@U?$TTopLevelVariable@UID3DX11EffectSamplerVariable@@@D3DX11Effects@@@D3DX11Effects@@UEAAHXZ 0000000180014890 f i effects11:EffectNonRuntime.obj
 0001:000138a0       ?AsScalar@?$TVariable@U?$TTopLevelVariable@UID3DX11EffectSamplerVariable@@@D3DX11Effects@@@D3DX11Effects@@UEAAPEAUID3DX11EffectScalarVariable@@XZ 00000001800148a0 f i effects11:EffectNonRuntime.obj
 0001:000138c0       ?AsVector@?$TVariable@U?$TTopLevelVariable@UID3DX11EffectSamplerVariable@@@D3DX11Effects@@@D3DX11Effects@@UEAAPEAUID3DX11EffectVectorVariable@@XZ 00000001800148c0 f i effects11:EffectNonRuntime.obj
 0001:000138e0       ?AsMatrix@?$TVariable@U?$TTopLevelVariable@UID3DX11EffectSamplerVariable@@@D3DX11Effects@@@D3DX11Effects@@UEAAPEAUID3DX11EffectMatrixVariable@@XZ 00000001800148e0 f i effects11:EffectNonRuntime.obj
 0001:00013900       ?AsString@?$TVariable@U?$TTopLevelVariable@UID3DX11EffectSamplerVariable@@@D3DX11Effects@@@D3DX11Effects@@UEAAPEAUID3DX11EffectStringVariable@@XZ 0000000180014900 f i effects11:EffectNonRuntime.obj
 0001:00013920       ?AsClassInstance@?$TVariable@U?$TTopLevelVariable@UID3DX11EffectSamplerVariable@@@D3DX11Effects@@@D3DX11Effects@@UEAAPEAUID3DX11EffectClassInstanceVariable@@XZ 0000000180014920 f i effects11:EffectNonRuntime.obj
 0001:00013950       ?AsInterface@?$TVariable@U?$TTopLevelVariable@UID3DX11EffectSamplerVariable@@@D3DX11Effects@@@D3DX11Effects@@UEAAPEAUID3DX11EffectInterfaceVariable@@XZ 0000000180014950 f i effects11:EffectNonRuntime.obj
 0001:00013970       ?AsShaderResource@?$TVariable@U?$TTopLevelVariable@UID3DX11EffectSamplerVariable@@@D3DX11Effects@@@D3DX11Effects@@UEAAPEAUID3DX11EffectShaderResourceVariable@@XZ 0000000180014970 f i effects11:EffectNonRuntime.obj
 0001:000139d0       ?AsUnorderedAccessView@?$TVariable@U?$TTopLevelVariable@UID3DX11EffectSamplerVariable@@@D3DX11Effects@@@D3DX11Effects@@UEAAPEAUID3DX11EffectUnorderedAccessViewVariable@@XZ 00000001800149d0 f i effects11:EffectNonRuntime.obj
 0001:00013a30       ?AsRenderTargetView@?$TVariable@U?$TTopLevelVariable@UID3DX11EffectSamplerVariable@@@D3DX11Effects@@@D3DX11Effects@@UEAAPEAUID3DX11EffectRenderTargetViewVariable@@XZ 0000000180014a30 f i effects11:EffectNonRuntime.obj
 0001:00013a50       ?AsDepthStencilView@?$TVariable@U?$TTopLevelVariable@UID3DX11EffectSamplerVariable@@@D3DX11Effects@@@D3DX11Effects@@UEAAPEAUID3DX11EffectDepthStencilViewVariable@@XZ 0000000180014a50 f i effects11:EffectNonRuntime.obj
 0001:00013a70       ?AsConstantBuffer@?$TVariable@U?$TTopLevelVariable@UID3DX11EffectSamplerVariable@@@D3DX11Effects@@@D3DX11Effects@@UEAAPEAUID3DX11EffectConstantBuffer@@XZ 0000000180014a70 f i effects11:EffectNonRuntime.obj
 0001:00013a80       ?AsShader@?$TVariable@U?$TTopLevelVariable@UID3DX11EffectSamplerVariable@@@D3DX11Effects@@@D3DX11Effects@@UEAAPEAUID3DX11EffectShaderVariable@@XZ 0000000180014a80 f i effects11:EffectNonRuntime.obj
 0001:00013ad0       ?AsBlend@?$TVariable@U?$TTopLevelVariable@UID3DX11EffectSamplerVariable@@@D3DX11Effects@@@D3DX11Effects@@UEAAPEAUID3DX11EffectBlendVariable@@XZ 0000000180014ad0 f i effects11:EffectNonRuntime.obj
 0001:00013af0       ?AsDepthStencil@?$TVariable@U?$TTopLevelVariable@UID3DX11EffectSamplerVariable@@@D3DX11Effects@@@D3DX11Effects@@UEAAPEAUID3DX11EffectDepthStencilVariable@@XZ 0000000180014af0 f i effects11:EffectNonRuntime.obj
 0001:00013b10       ?AsRasterizer@?$TVariable@U?$TTopLevelVariable@UID3DX11EffectSamplerVariable@@@D3DX11Effects@@@D3DX11Effects@@UEAAPEAUID3DX11EffectRasterizerVariable@@XZ 0000000180014b10 f i effects11:EffectNonRuntime.obj
 0001:00013b30       ?AsSampler@?$TVariable@U?$TTopLevelVariable@UID3DX11EffectSamplerVariable@@@D3DX11Effects@@@D3DX11Effects@@UEAAPEAUID3DX11EffectSamplerVariable@@XZ 0000000180014b30 f i effects11:EffectNonRuntime.obj
 0001:00013b50       ?SetRawValue@?$TVariable@U?$TTopLevelVariable@UID3DX11EffectSamplerVariable@@@D3DX11Effects@@@D3DX11Effects@@UEAAJPEBXII@Z 0000000180014b50 f i effects11:EffectNonRuntime.obj
 0001:00013b60       ?GetRawValue@?$TVariable@U?$TTopLevelVariable@UID3DX11EffectSamplerVariable@@@D3DX11Effects@@@D3DX11Effects@@UEAAJPEAXII@Z 0000000180014b60 f i effects11:EffectNonRuntime.obj
 0001:00013b70       ?GetTopLevelEntity@?$TTopLevelVariable@UID3DX11EffectSamplerVariable@@@D3DX11Effects@@QEAAPEAU?$TTopLevelVariable@UID3DX11EffectVariable@@@2@XZ 0000000180014b70 f i effects11:EffectNonRuntime.obj
 0001:00013b80       ?IsArray@?$TTopLevelVariable@UID3DX11EffectSamplerVariable@@@D3DX11Effects@@QEAAHXZ 0000000180014b80 f i effects11:EffectNonRuntime.obj
 0001:00013b90       ?GetMemberByIndex@?$TVariable@U?$TTopLevelVariable@UID3DX11EffectSamplerVariable@@@D3DX11Effects@@@D3DX11Effects@@UEAAPEAUID3DX11EffectVariable@@I@Z 0000000180014b90 f i effects11:EffectNonRuntime.obj
 0001:00013c10       ?GetMemberByName@?$TVariable@U?$TTopLevelVariable@UID3DX11EffectSamplerVariable@@@D3DX11Effects@@@D3DX11Effects@@UEAAPEAUID3DX11EffectVariable@@PEBD@Z 0000000180014c10 f i effects11:EffectNonRuntime.obj
 0001:00013dd0       ?GetMemberBySemantic@?$TVariable@U?$TTopLevelVariable@UID3DX11EffectSamplerVariable@@@D3DX11Effects@@@D3DX11Effects@@UEAAPEAUID3DX11EffectVariable@@PEBD@Z 0000000180014dd0 f i effects11:EffectNonRuntime.obj
 0001:00013eb0       ?GetElement@?$TVariable@U?$TTopLevelVariable@UID3DX11EffectSamplerVariable@@@D3DX11Effects@@@D3DX11Effects@@UEAAPEAUID3DX11EffectVariable@@I@Z 0000000180014eb0 f i effects11:EffectNonRuntime.obj
 0001:00013f50       ?Clear@?$CEffectVectorOwner@USSingleElementType@D3DX11Effects@@@@QEAAXXZ 0000000180014f50 f i effects11:EffectNonRuntime.obj
 0001:00013f80       ?Clear@?$CEffectVector@PEAUSSingleElementType@D3DX11Effects@@@@QEAAXXZ 0000000180014f80 f i effects11:EffectNonRuntime.obj
 0001:00013fb0       ?Clear@?$CEffectVectorOwner@USMember@D3DX11Effects@@@@QEAAXXZ 0000000180014fb0 f i effects11:EffectNonRuntime.obj
 0001:00013fe0       ?Clear@?$CEffectVector@PEAUSMember@D3DX11Effects@@@@QEAAXXZ 0000000180014fe0 f i effects11:EffectNonRuntime.obj
 0001:00014010       ?Clear@?$CEffectVector@E@@QEAAXXZ 0000000180015010 f i effects11:EffectNonRuntime.obj
 0001:00014040       ?Clear@?$CEffectVector@PEAUSInterface@D3DX11Effects@@@@QEAAXXZ 0000000180015040 f i effects11:EffectNonRuntime.obj
 0001:00014070       ?Grow@?$CEffectVector@UD3D11_SO_DECLARATION_ENTRY@@@@IEAAJXZ 0000000180015070 f i effects11:EffectNonRuntime.obj
 0001:00014080       ?Cleanup@?$CEffectHashTableWithPrivateHeap@PEAUSType@D3DX11Effects@@$1?AreTypesEqual@CEffect@2@KAHAEBQEAU12@0@Z@@QEAAXXZ 0000000180015080 f i effects11:EffectNonRuntime.obj
 0001:000140c0       ??1?$CEffectHashTable@PEAUSType@D3DX11Effects@@$1?AreTypesEqual@CEffect@2@KAHAEBQEAU12@0@Z@@QEAA@XZ 00000001800150c0 f i effects11:EffectNonRuntime.obj
 0001:000140d0       ?Grow@?$CEffectHashTable@PEAUSType@D3DX11Effects@@$1?AreTypesEqual@CEffect@2@KAHAEBQEAU12@0@Z@@QEAAJIIPEAPEAX_N@Z 00000001800150d0 f i effects11:EffectNonRuntime.obj
 0001:000142b0       ?Cleanup@?$CEffectHashTableWithPrivateHeap@PEBD$1?AreStringsEqual@CEffect@D3DX11Effects@@KAHAEBQEBD0@Z@@QEAAXXZ 00000001800152b0 f i effects11:EffectNonRuntime.obj
 0001:000142f0       ??1?$CEffectHashTable@PEBD$1?AreStringsEqual@CEffect@D3DX11Effects@@KAHAEBQEBD0@Z@@QEAA@XZ 00000001800152f0 f i effects11:EffectNonRuntime.obj
 0001:00014300       ?Grow@?$CEffectHashTable@PEBD$1?AreStringsEqual@CEffect@D3DX11Effects@@KAHAEBQEBD0@Z@@QEAAJIIPEAPEAX_N@Z 0000000180015300 f i effects11:EffectNonRuntime.obj
 0001:000144e0       ?Cleanup@?$CEffectHashTableWithPrivateHeap@USPointerMapping@D3DX11Effects@@$1?AreMappingsEqual@12@SAHAEBU12@0@Z@@QEAAXXZ 00000001800154e0 f i effects11:EffectNonRuntime.obj
 0001:00014520       ??1?$CEffectHashTable@USPointerMapping@D3DX11Effects@@$1?AreMappingsEqual@12@SAHAEBU12@0@Z@@QEAA@XZ 0000000180015520 f i effects11:EffectNonRuntime.obj
 0001:00014530       ?Grow@?$CEffectHashTable@USPointerMapping@D3DX11Effects@@$1?AreMappingsEqual@12@SAHAEBU12@0@Z@@QEAAJIIPEAPEAX_N@Z 0000000180015530 f i effects11:EffectNonRuntime.obj
 0001:00014710       ?AddSemantic@CSOParser@D3DX11Effects@@IEAAJPEAD@Z 0000000180015710 f i effects11:EffectNonRuntime.obj
 0001:000147a0       ??0?$TNumericVariable@U?$TVariable@U?$TMember@UID3DX11EffectVariable@@@D3DX11Effects@@@D3DX11Effects@@$00@D3DX11Effects@@QEAA@XZ 00000001800157a0 f i effects11:EffectNonRuntime.obj
 0001:000147f0       ?GetTickCount@CEffect@D3DX11Effects@@QEBA_KXZ 00000001800157f0 f i effects11:EffectNonRuntime.obj
 0001:00014800       ?GetRawValue@?$TNumericVariable@U?$TVariable@U?$TMember@UID3DX11EffectVariable@@@D3DX11Effects@@@D3DX11Effects@@$00@D3DX11Effects@@UEAAJPEAXII@Z 0000000180015800 f i effects11:EffectNonRuntime.obj
 0001:00014830       ?DirtyVariable@?$TGlobalVariable@UID3DX11EffectVariable@@@D3DX11Effects@@QEAAXXZ 0000000180015830 f i effects11:EffectNonRuntime.obj
 0001:00014850       ?DirtyVariable@?$TMember@UID3DX11EffectVariable@@@D3DX11Effects@@QEAAXXZ 0000000180015850 f i effects11:EffectNonRuntime.obj
 0001:00014870       ?SetRawValue@?$TNumericVariable@U?$TVariable@U?$TMember@UID3DX11EffectVariable@@@D3DX11Effects@@@D3DX11Effects@@$00@D3DX11Effects@@UEAAJPEBXII@Z 0000000180015870 f i effects11:EffectNonRuntime.obj
 0001:00014880       ??0?$TNumericVariable@U?$TVariable@U?$TMember@UID3DX11EffectVariable@@@D3DX11Effects@@@D3DX11Effects@@$0A@@D3DX11Effects@@QEAA@XZ 0000000180015880 f i effects11:EffectNonRuntime.obj
 0001:000148c0       ?GetRawValue@?$TNumericVariable@U?$TVariable@U?$TMember@UID3DX11EffectVariable@@@D3DX11Effects@@@D3DX11Effects@@$0A@@D3DX11Effects@@UEAAJPEAXII@Z 00000001800158c0 f i effects11:EffectNonRuntime.obj
 0001:000148f0       ?SetRawValue@?$TNumericVariable@U?$TVariable@U?$TMember@UID3DX11EffectVariable@@@D3DX11Effects@@@D3DX11Effects@@$0A@@D3DX11Effects@@UEAAJPEBXII@Z 00000001800158f0 f i effects11:EffectNonRuntime.obj
 0001:00014940       ??0?$TVariable@U?$TMember@UID3DX11EffectClassInstanceVariable@@@D3DX11Effects@@@D3DX11Effects@@QEAA@XZ 0000000180015940 f i effects11:EffectNonRuntime.obj
 0001:00014980       ?IsValid@?$TVariable@U?$TMember@UID3DX11EffectClassInstanceVariable@@@D3DX11Effects@@@D3DX11Effects@@UEAAHXZ 0000000180015980 f i effects11:EffectNonRuntime.obj
 0001:00014990       ?AsScalar@?$TVariable@U?$TMember@UID3DX11EffectClassInstanceVariable@@@D3DX11Effects@@@D3DX11Effects@@UEAAPEAUID3DX11EffectScalarVariable@@XZ 0000000180015990 f i effects11:EffectNonRuntime.obj
 0001:000149b0       ?AsVector@?$TVariable@U?$TMember@UID3DX11EffectClassInstanceVariable@@@D3DX11Effects@@@D3DX11Effects@@UEAAPEAUID3DX11EffectVectorVariable@@XZ 00000001800159b0 f i effects11:EffectNonRuntime.obj
 0001:000149d0       ?AsMatrix@?$TVariable@U?$TMember@UID3DX11EffectClassInstanceVariable@@@D3DX11Effects@@@D3DX11Effects@@UEAAPEAUID3DX11EffectMatrixVariable@@XZ 00000001800159d0 f i effects11:EffectNonRuntime.obj
 0001:000149f0       ?AsString@?$TVariable@U?$TMember@UID3DX11EffectClassInstanceVariable@@@D3DX11Effects@@@D3DX11Effects@@UEAAPEAUID3DX11EffectStringVariable@@XZ 00000001800159f0 f i effects11:EffectNonRuntime.obj
 0001:00014a10       ?AsClassInstance@?$TVariable@U?$TMember@UID3DX11EffectClassInstanceVariable@@@D3DX11Effects@@@D3DX11Effects@@UEAAPEAUID3DX11EffectClassInstanceVariable@@XZ 0000000180015a10 f i effects11:EffectNonRuntime.obj
 0001:00014a40       ?AsInterface@?$TVariable@U?$TMember@UID3DX11EffectClassInstanceVariable@@@D3DX11Effects@@@D3DX11Effects@@UEAAPEAUID3DX11EffectInterfaceVariable@@XZ 0000000180015a40 f i effects11:EffectNonRuntime.obj
 0001:00014a60       ?AsShaderResource@?$TVariable@U?$TMember@UID3DX11EffectClassInstanceVariable@@@D3DX11Effects@@@D3DX11Effects@@UEAAPEAUID3DX11EffectShaderResourceVariable@@XZ 0000000180015a60 f i effects11:EffectNonRuntime.obj
 0001:00014ac0       ?AsUnorderedAccessView@?$TVariable@U?$TMember@UID3DX11EffectClassInstanceVariable@@@D3DX11Effects@@@D3DX11Effects@@UEAAPEAUID3DX11EffectUnorderedAccessViewVariable@@XZ 0000000180015ac0 f i effects11:EffectNonRuntime.obj
 0001:00014b20       ?AsRenderTargetView@?$TVariable@U?$TMember@UID3DX11EffectClassInstanceVariable@@@D3DX11Effects@@@D3DX11Effects@@UEAAPEAUID3DX11EffectRenderTargetViewVariable@@XZ 0000000180015b20 f i effects11:EffectNonRuntime.obj
 0001:00014b40       ?AsDepthStencilView@?$TVariable@U?$TMember@UID3DX11EffectClassInstanceVariable@@@D3DX11Effects@@@D3DX11Effects@@UEAAPEAUID3DX11EffectDepthStencilViewVariable@@XZ 0000000180015b40 f i effects11:EffectNonRuntime.obj
 0001:00014b60       ?AsConstantBuffer@?$TVariable@U?$TMember@UID3DX11EffectClassInstanceVariable@@@D3DX11Effects@@@D3DX11Effects@@UEAAPEAUID3DX11EffectConstantBuffer@@XZ 0000000180015b60 f i effects11:EffectNonRuntime.obj
 0001:00014b70       ?AsShader@?$TVariable@U?$TMember@UID3DX11EffectClassInstanceVariable@@@D3DX11Effects@@@D3DX11Effects@@UEAAPEAUID3DX11EffectShaderVariable@@XZ 0000000180015b70 f i effects11:EffectNonRuntime.obj
 0001:00014bc0       ?AsBlend@?$TVariable@U?$TMember@UID3DX11EffectClassInstanceVariable@@@D3DX11Effects@@@D3DX11Effects@@UEAAPEAUID3DX11EffectBlendVariable@@XZ 0000000180015bc0 f i effects11:EffectNonRuntime.obj
 0001:00014be0       ?AsDepthStencil@?$TVariable@U?$TMember@UID3DX11EffectClassInstanceVariable@@@D3DX11Effects@@@D3DX11Effects@@UEAAPEAUID3DX11EffectDepthStencilVariable@@XZ 0000000180015be0 f i effects11:EffectNonRuntime.obj
 0001:00014c00       ?AsRasterizer@?$TVariable@U?$TMember@UID3DX11EffectClassInstanceVariable@@@D3DX11Effects@@@D3DX11Effects@@UEAAPEAUID3DX11EffectRasterizerVariable@@XZ 0000000180015c00 f i effects11:EffectNonRuntime.obj
 0001:00014c20       ?AsSampler@?$TVariable@U?$TMember@UID3DX11EffectClassInstanceVariable@@@D3DX11Effects@@@D3DX11Effects@@UEAAPEAUID3DX11EffectSamplerVariable@@XZ 0000000180015c20 f i effects11:EffectNonRuntime.obj
 0001:00014c40       ?SetRawValue@?$TVariable@U?$TMember@UID3DX11EffectClassInstanceVariable@@@D3DX11Effects@@@D3DX11Effects@@UEAAJPEBXII@Z 0000000180015c40 f i effects11:EffectNonRuntime.obj
 0001:00014c50       ?GetRawValue@?$TVariable@U?$TMember@UID3DX11EffectClassInstanceVariable@@@D3DX11Effects@@@D3DX11Effects@@UEAAJPEAXII@Z 0000000180015c50 f i effects11:EffectNonRuntime.obj
 0001:00014c60       ?GetTopLevelEntity@?$TMember@UID3DX11EffectClassInstanceVariable@@@D3DX11Effects@@QEAAPEAU?$TTopLevelVariable@UID3DX11EffectVariable@@@2@XZ 0000000180015c60 f i effects11:EffectNonRuntime.obj
 0001:00014c70       ?IsArray@?$TMember@UID3DX11EffectClassInstanceVariable@@@D3DX11Effects@@QEAAHXZ 0000000180015c70 f i effects11:EffectNonRuntime.obj
 0001:00014c90       ?GetMemberByIndex@?$TVariable@U?$TMember@UID3DX11EffectClassInstanceVariable@@@D3DX11Effects@@@D3DX11Effects@@UEAAPEAUID3DX11EffectVariable@@I@Z 0000000180015c90 f i effects11:EffectNonRuntime.obj
 0001:00014d20       ?GetMemberByName@?$TVariable@U?$TMember@UID3DX11EffectClassInstanceVariable@@@D3DX11Effects@@@D3DX11Effects@@UEAAPEAUID3DX11EffectVariable@@PEBD@Z 0000000180015d20 f i effects11:EffectNonRuntime.obj
 0001:00014ee0       ?GetMemberBySemantic@?$TVariable@U?$TMember@UID3DX11EffectClassInstanceVariable@@@D3DX11Effects@@@D3DX11Effects@@UEAAPEAUID3DX11EffectVariable@@PEBD@Z 0000000180015ee0 f i effects11:EffectNonRuntime.obj
 0001:00014fc0       ?GetElement@?$TVariable@U?$TMember@UID3DX11EffectClassInstanceVariable@@@D3DX11Effects@@@D3DX11Effects@@UEAAPEAUID3DX11EffectVariable@@I@Z 0000000180015fc0 f i effects11:EffectNonRuntime.obj
 0001:00015080       ??0?$TVariable@U?$TMember@UID3DX11EffectInterfaceVariable@@@D3DX11Effects@@@D3DX11Effects@@QEAA@XZ 0000000180016080 f i effects11:EffectNonRuntime.obj
 0001:000150c0       ?IsValid@?$TVariable@U?$TMember@UID3DX11EffectInterfaceVariable@@@D3DX11Effects@@@D3DX11Effects@@UEAAHXZ 00000001800160c0 f i effects11:EffectNonRuntime.obj
 0001:000150d0       ?AsScalar@?$TVariable@U?$TMember@UID3DX11EffectInterfaceVariable@@@D3DX11Effects@@@D3DX11Effects@@UEAAPEAUID3DX11EffectScalarVariable@@XZ 00000001800160d0 f i effects11:EffectNonRuntime.obj
 0001:000150f0       ?AsVector@?$TVariable@U?$TMember@UID3DX11EffectInterfaceVariable@@@D3DX11Effects@@@D3DX11Effects@@UEAAPEAUID3DX11EffectVectorVariable@@XZ 00000001800160f0 f i effects11:EffectNonRuntime.obj
 0001:00015110       ?AsMatrix@?$TVariable@U?$TMember@UID3DX11EffectInterfaceVariable@@@D3DX11Effects@@@D3DX11Effects@@UEAAPEAUID3DX11EffectMatrixVariable@@XZ 0000000180016110 f i effects11:EffectNonRuntime.obj
 0001:00015130       ?AsString@?$TVariable@U?$TMember@UID3DX11EffectInterfaceVariable@@@D3DX11Effects@@@D3DX11Effects@@UEAAPEAUID3DX11EffectStringVariable@@XZ 0000000180016130 f i effects11:EffectNonRuntime.obj
 0001:00015150       ?AsClassInstance@?$TVariable@U?$TMember@UID3DX11EffectInterfaceVariable@@@D3DX11Effects@@@D3DX11Effects@@UEAAPEAUID3DX11EffectClassInstanceVariable@@XZ 0000000180016150 f i effects11:EffectNonRuntime.obj
 0001:00015180       ?AsInterface@?$TVariable@U?$TMember@UID3DX11EffectInterfaceVariable@@@D3DX11Effects@@@D3DX11Effects@@UEAAPEAUID3DX11EffectInterfaceVariable@@XZ 0000000180016180 f i effects11:EffectNonRuntime.obj
 0001:000151a0       ?AsShaderResource@?$TVariable@U?$TMember@UID3DX11EffectInterfaceVariable@@@D3DX11Effects@@@D3DX11Effects@@UEAAPEAUID3DX11EffectShaderResourceVariable@@XZ 00000001800161a0 f i effects11:EffectNonRuntime.obj
 0001:00015200       ?AsUnorderedAccessView@?$TVariable@U?$TMember@UID3DX11EffectInterfaceVariable@@@D3DX11Effects@@@D3DX11Effects@@UEAAPEAUID3DX11EffectUnorderedAccessViewVariable@@XZ 0000000180016200 f i effects11:EffectNonRuntime.obj
 0001:00015260       ?AsRenderTargetView@?$TVariable@U?$TMember@UID3DX11EffectInterfaceVariable@@@D3DX11Effects@@@D3DX11Effects@@UEAAPEAUID3DX11EffectRenderTargetViewVariable@@XZ 0000000180016260 f i effects11:EffectNonRuntime.obj
 0001:00015280       ?AsDepthStencilView@?$TVariable@U?$TMember@UID3DX11EffectInterfaceVariable@@@D3DX11Effects@@@D3DX11Effects@@UEAAPEAUID3DX11EffectDepthStencilViewVariable@@XZ 0000000180016280 f i effects11:EffectNonRuntime.obj
 0001:000152a0       ?AsConstantBuffer@?$TVariable@U?$TMember@UID3DX11EffectInterfaceVariable@@@D3DX11Effects@@@D3DX11Effects@@UEAAPEAUID3DX11EffectConstantBuffer@@XZ 00000001800162a0 f i effects11:EffectNonRuntime.obj
 0001:000152b0       ?AsShader@?$TVariable@U?$TMember@UID3DX11EffectInterfaceVariable@@@D3DX11Effects@@@D3DX11Effects@@UEAAPEAUID3DX11EffectShaderVariable@@XZ 00000001800162b0 f i effects11:EffectNonRuntime.obj
 0001:00015300       ?AsBlend@?$TVariable@U?$TMember@UID3DX11EffectInterfaceVariable@@@D3DX11Effects@@@D3DX11Effects@@UEAAPEAUID3DX11EffectBlendVariable@@XZ 0000000180016300 f i effects11:EffectNonRuntime.obj
 0001:00015320       ?AsDepthStencil@?$TVariable@U?$TMember@UID3DX11EffectInterfaceVariable@@@D3DX11Effects@@@D3DX11Effects@@UEAAPEAUID3DX11EffectDepthStencilVariable@@XZ 0000000180016320 f i effects11:EffectNonRuntime.obj
 0001:00015340       ?AsRasterizer@?$TVariable@U?$TMember@UID3DX11EffectInterfaceVariable@@@D3DX11Effects@@@D3DX11Effects@@UEAAPEAUID3DX11EffectRasterizerVariable@@XZ 0000000180016340 f i effects11:EffectNonRuntime.obj
 0001:00015360       ?AsSampler@?$TVariable@U?$TMember@UID3DX11EffectInterfaceVariable@@@D3DX11Effects@@@D3DX11Effects@@UEAAPEAUID3DX11EffectSamplerVariable@@XZ 0000000180016360 f i effects11:EffectNonRuntime.obj
 0001:00015380       ?SetRawValue@?$TVariable@U?$TMember@UID3DX11EffectInterfaceVariable@@@D3DX11Effects@@@D3DX11Effects@@UEAAJPEBXII@Z 0000000180016380 f i effects11:EffectNonRuntime.obj
 0001:00015390       ?GetRawValue@?$TVariable@U?$TMember@UID3DX11EffectInterfaceVariable@@@D3DX11Effects@@@D3DX11Effects@@UEAAJPEAXII@Z 0000000180016390 f i effects11:EffectNonRuntime.obj
 0001:000153a0       ?GetTopLevelEntity@?$TMember@UID3DX11EffectInterfaceVariable@@@D3DX11Effects@@QEAAPEAU?$TTopLevelVariable@UID3DX11EffectVariable@@@2@XZ 00000001800163a0 f i effects11:EffectNonRuntime.obj
 0001:000153b0       ?IsArray@?$TMember@UID3DX11EffectInterfaceVariable@@@D3DX11Effects@@QEAAHXZ 00000001800163b0 f i effects11:EffectNonRuntime.obj
 0001:000153d0       ?GetMemberByIndex@?$TVariable@U?$TMember@UID3DX11EffectInterfaceVariable@@@D3DX11Effects@@@D3DX11Effects@@UEAAPEAUID3DX11EffectVariable@@I@Z 00000001800163d0 f i effects11:EffectNonRuntime.obj
 0001:00015460       ?GetMemberByName@?$TVariable@U?$TMember@UID3DX11EffectInterfaceVariable@@@D3DX11Effects@@@D3DX11Effects@@UEAAPEAUID3DX11EffectVariable@@PEBD@Z 0000000180016460 f i effects11:EffectNonRuntime.obj
 0001:00015620       ?GetMemberBySemantic@?$TVariable@U?$TMember@UID3DX11EffectInterfaceVariable@@@D3DX11Effects@@@D3DX11Effects@@UEAAPEAUID3DX11EffectVariable@@PEBD@Z 0000000180016620 f i effects11:EffectNonRuntime.obj
 0001:00015700       ?GetElement@?$TVariable@U?$TMember@UID3DX11EffectInterfaceVariable@@@D3DX11Effects@@@D3DX11Effects@@UEAAPEAUID3DX11EffectVariable@@I@Z 0000000180016700 f i effects11:EffectNonRuntime.obj
 0001:000157c0       ??0?$TVariable@U?$TMember@UID3DX11EffectStringVariable@@@D3DX11Effects@@@D3DX11Effects@@QEAA@XZ 00000001800167c0 f i effects11:EffectNonRuntime.obj
 0001:00015800       ?IsValid@?$TVariable@U?$TMember@UID3DX11EffectStringVariable@@@D3DX11Effects@@@D3DX11Effects@@UEAAHXZ 0000000180016800 f i effects11:EffectNonRuntime.obj
 0001:00015810       ?AsScalar@?$TVariable@U?$TMember@UID3DX11EffectStringVariable@@@D3DX11Effects@@@D3DX11Effects@@UEAAPEAUID3DX11EffectScalarVariable@@XZ 0000000180016810 f i effects11:EffectNonRuntime.obj
 0001:00015830       ?AsVector@?$TVariable@U?$TMember@UID3DX11EffectStringVariable@@@D3DX11Effects@@@D3DX11Effects@@UEAAPEAUID3DX11EffectVectorVariable@@XZ 0000000180016830 f i effects11:EffectNonRuntime.obj
 0001:00015850       ?AsMatrix@?$TVariable@U?$TMember@UID3DX11EffectStringVariable@@@D3DX11Effects@@@D3DX11Effects@@UEAAPEAUID3DX11EffectMatrixVariable@@XZ 0000000180016850 f i effects11:EffectNonRuntime.obj
 0001:00015870       ?AsString@?$TVariable@U?$TMember@UID3DX11EffectStringVariable@@@D3DX11Effects@@@D3DX11Effects@@UEAAPEAUID3DX11EffectStringVariable@@XZ 0000000180016870 f i effects11:EffectNonRuntime.obj
 0001:00015890       ?AsClassInstance@?$TVariable@U?$TMember@UID3DX11EffectStringVariable@@@D3DX11Effects@@@D3DX11Effects@@UEAAPEAUID3DX11EffectClassInstanceVariable@@XZ 0000000180016890 f i effects11:EffectNonRuntime.obj
 0001:000158c0       ?AsInterface@?$TVariable@U?$TMember@UID3DX11EffectStringVariable@@@D3DX11Effects@@@D3DX11Effects@@UEAAPEAUID3DX11EffectInterfaceVariable@@XZ 00000001800168c0 f i effects11:EffectNonRuntime.obj
 0001:000158e0       ?AsShaderResource@?$TVariable@U?$TMember@UID3DX11EffectStringVariable@@@D3DX11Effects@@@D3DX11Effects@@UEAAPEAUID3DX11EffectShaderResourceVariable@@XZ 00000001800168e0 f i effects11:EffectNonRuntime.obj
 0001:00015940       ?AsUnorderedAccessView@?$TVariable@U?$TMember@UID3DX11EffectStringVariable@@@D3DX11Effects@@@D3DX11Effects@@UEAAPEAUID3DX11EffectUnorderedAccessViewVariable@@XZ 0000000180016940 f i effects11:EffectNonRuntime.obj
 0001:000159a0       ?AsRenderTargetView@?$TVariable@U?$TMember@UID3DX11EffectStringVariable@@@D3DX11Effects@@@D3DX11Effects@@UEAAPEAUID3DX11EffectRenderTargetViewVariable@@XZ 00000001800169a0 f i effects11:EffectNonRuntime.obj
 0001:000159c0       ?AsDepthStencilView@?$TVariable@U?$TMember@UID3DX11EffectStringVariable@@@D3DX11Effects@@@D3DX11Effects@@UEAAPEAUID3DX11EffectDepthStencilViewVariable@@XZ 00000001800169c0 f i effects11:EffectNonRuntime.obj
 0001:000159e0       ?AsConstantBuffer@?$TVariable@U?$TMember@UID3DX11EffectStringVariable@@@D3DX11Effects@@@D3DX11Effects@@UEAAPEAUID3DX11EffectConstantBuffer@@XZ 00000001800169e0 f i effects11:EffectNonRuntime.obj
 0001:000159f0       ?AsShader@?$TVariable@U?$TMember@UID3DX11EffectStringVariable@@@D3DX11Effects@@@D3DX11Effects@@UEAAPEAUID3DX11EffectShaderVariable@@XZ 00000001800169f0 f i effects11:EffectNonRuntime.obj
 0001:00015a40       ?AsBlend@?$TVariable@U?$TMember@UID3DX11EffectStringVariable@@@D3DX11Effects@@@D3DX11Effects@@UEAAPEAUID3DX11EffectBlendVariable@@XZ 0000000180016a40 f i effects11:EffectNonRuntime.obj
 0001:00015a60       ?AsDepthStencil@?$TVariable@U?$TMember@UID3DX11EffectStringVariable@@@D3DX11Effects@@@D3DX11Effects@@UEAAPEAUID3DX11EffectDepthStencilVariable@@XZ 0000000180016a60 f i effects11:EffectNonRuntime.obj
 0001:00015a80       ?AsRasterizer@?$TVariable@U?$TMember@UID3DX11EffectStringVariable@@@D3DX11Effects@@@D3DX11Effects@@UEAAPEAUID3DX11EffectRasterizerVariable@@XZ 0000000180016a80 f i effects11:EffectNonRuntime.obj
 0001:00015aa0       ?AsSampler@?$TVariable@U?$TMember@UID3DX11EffectStringVariable@@@D3DX11Effects@@@D3DX11Effects@@UEAAPEAUID3DX11EffectSamplerVariable@@XZ 0000000180016aa0 f i effects11:EffectNonRuntime.obj
 0001:00015ac0       ?SetRawValue@?$TVariable@U?$TMember@UID3DX11EffectStringVariable@@@D3DX11Effects@@@D3DX11Effects@@UEAAJPEBXII@Z 0000000180016ac0 f i effects11:EffectNonRuntime.obj
 0001:00015ad0       ?GetRawValue@?$TVariable@U?$TMember@UID3DX11EffectStringVariable@@@D3DX11Effects@@@D3DX11Effects@@UEAAJPEAXII@Z 0000000180016ad0 f i effects11:EffectNonRuntime.obj
 0001:00015ae0       ?GetTopLevelEntity@?$TMember@UID3DX11EffectStringVariable@@@D3DX11Effects@@QEAAPEAU?$TTopLevelVariable@UID3DX11EffectVariable@@@2@XZ 0000000180016ae0 f i effects11:EffectNonRuntime.obj
 0001:00015af0       ?IsArray@?$TMember@UID3DX11EffectStringVariable@@@D3DX11Effects@@QEAAHXZ 0000000180016af0 f i effects11:EffectNonRuntime.obj
 0001:00015b10       ?GetMemberByIndex@?$TVariable@U?$TMember@UID3DX11EffectStringVariable@@@D3DX11Effects@@@D3DX11Effects@@UEAAPEAUID3DX11EffectVariable@@I@Z 0000000180016b10 f i effects11:EffectNonRuntime.obj
 0001:00015ba0       ?GetMemberByName@?$TVariable@U?$TMember@UID3DX11EffectStringVariable@@@D3DX11Effects@@@D3DX11Effects@@UEAAPEAUID3DX11EffectVariable@@PEBD@Z 0000000180016ba0 f i effects11:EffectNonRuntime.obj
 0001:00015d60       ?GetMemberBySemantic@?$TVariable@U?$TMember@UID3DX11EffectStringVariable@@@D3DX11Effects@@@D3DX11Effects@@UEAAPEAUID3DX11EffectVariable@@PEBD@Z 0000000180016d60 f i effects11:EffectNonRuntime.obj
 0001:00015e40       ?GetElement@?$TVariable@U?$TMember@UID3DX11EffectStringVariable@@@D3DX11Effects@@@D3DX11Effects@@UEAAPEAUID3DX11EffectVariable@@I@Z 0000000180016e40 f i effects11:EffectNonRuntime.obj
 0001:00015f00       ??0?$TVariable@U?$TMember@UID3DX11EffectShaderResourceVariable@@@D3DX11Effects@@@D3DX11Effects@@QEAA@XZ 0000000180016f00 f i effects11:EffectNonRuntime.obj
 0001:00015f40       ?IsValid@?$TVariable@U?$TMember@UID3DX11EffectShaderResourceVariable@@@D3DX11Effects@@@D3DX11Effects@@UEAAHXZ 0000000180016f40 f i effects11:EffectNonRuntime.obj
 0001:00015f50       ?AsScalar@?$TVariable@U?$TMember@UID3DX11EffectShaderResourceVariable@@@D3DX11Effects@@@D3DX11Effects@@UEAAPEAUID3DX11EffectScalarVariable@@XZ 0000000180016f50 f i effects11:EffectNonRuntime.obj
 0001:00015f70       ?AsVector@?$TVariable@U?$TMember@UID3DX11EffectShaderResourceVariable@@@D3DX11Effects@@@D3DX11Effects@@UEAAPEAUID3DX11EffectVectorVariable@@XZ 0000000180016f70 f i effects11:EffectNonRuntime.obj
 0001:00015f90       ?AsMatrix@?$TVariable@U?$TMember@UID3DX11EffectShaderResourceVariable@@@D3DX11Effects@@@D3DX11Effects@@UEAAPEAUID3DX11EffectMatrixVariable@@XZ 0000000180016f90 f i effects11:EffectNonRuntime.obj
 0001:00015fb0       ?AsString@?$TVariable@U?$TMember@UID3DX11EffectShaderResourceVariable@@@D3DX11Effects@@@D3DX11Effects@@UEAAPEAUID3DX11EffectStringVariable@@XZ 0000000180016fb0 f i effects11:EffectNonRuntime.obj
 0001:00015fd0       ?AsClassInstance@?$TVariable@U?$TMember@UID3DX11EffectShaderResourceVariable@@@D3DX11Effects@@@D3DX11Effects@@UEAAPEAUID3DX11EffectClassInstanceVariable@@XZ 0000000180016fd0 f i effects11:EffectNonRuntime.obj
 0001:00016000       ?AsInterface@?$TVariable@U?$TMember@UID3DX11EffectShaderResourceVariable@@@D3DX11Effects@@@D3DX11Effects@@UEAAPEAUID3DX11EffectInterfaceVariable@@XZ 0000000180017000 f i effects11:EffectNonRuntime.obj
 0001:00016020       ?AsShaderResource@?$TVariable@U?$TMember@UID3DX11EffectShaderResourceVariable@@@D3DX11Effects@@@D3DX11Effects@@UEAAPEAUID3DX11EffectShaderResourceVariable@@XZ 0000000180017020 f i effects11:EffectNonRuntime.obj
 0001:00016080       ?AsUnorderedAccessView@?$TVariable@U?$TMember@UID3DX11EffectShaderResourceVariable@@@D3DX11Effects@@@D3DX11Effects@@UEAAPEAUID3DX11EffectUnorderedAccessViewVariable@@XZ 0000000180017080 f i effects11:EffectNonRuntime.obj
 0001:000160e0       ?AsRenderTargetView@?$TVariable@U?$TMember@UID3DX11EffectShaderResourceVariable@@@D3DX11Effects@@@D3DX11Effects@@UEAAPEAUID3DX11EffectRenderTargetViewVariable@@XZ 00000001800170e0 f i effects11:EffectNonRuntime.obj
 0001:00016100       ?AsDepthStencilView@?$TVariable@U?$TMember@UID3DX11EffectShaderResourceVariable@@@D3DX11Effects@@@D3DX11Effects@@UEAAPEAUID3DX11EffectDepthStencilViewVariable@@XZ 0000000180017100 f i effects11:EffectNonRuntime.obj
 0001:00016120       ?AsConstantBuffer@?$TVariable@U?$TMember@UID3DX11EffectShaderResourceVariable@@@D3DX11Effects@@@D3DX11Effects@@UEAAPEAUID3DX11EffectConstantBuffer@@XZ 0000000180017120 f i effects11:EffectNonRuntime.obj
 0001:00016130       ?AsShader@?$TVariable@U?$TMember@UID3DX11EffectShaderResourceVariable@@@D3DX11Effects@@@D3DX11Effects@@UEAAPEAUID3DX11EffectShaderVariable@@XZ 0000000180017130 f i effects11:EffectNonRuntime.obj
 0001:00016180       ?AsBlend@?$TVariable@U?$TMember@UID3DX11EffectShaderResourceVariable@@@D3DX11Effects@@@D3DX11Effects@@UEAAPEAUID3DX11EffectBlendVariable@@XZ 0000000180017180 f i effects11:EffectNonRuntime.obj
 0001:000161a0       ?AsDepthStencil@?$TVariable@U?$TMember@UID3DX11EffectShaderResourceVariable@@@D3DX11Effects@@@D3DX11Effects@@UEAAPEAUID3DX11EffectDepthStencilVariable@@XZ 00000001800171a0 f i effects11:EffectNonRuntime.obj
 0001:000161c0       ?AsRasterizer@?$TVariable@U?$TMember@UID3DX11EffectShaderResourceVariable@@@D3DX11Effects@@@D3DX11Effects@@UEAAPEAUID3DX11EffectRasterizerVariable@@XZ 00000001800171c0 f i effects11:EffectNonRuntime.obj
 0001:000161e0       ?AsSampler@?$TVariable@U?$TMember@UID3DX11EffectShaderResourceVariable@@@D3DX11Effects@@@D3DX11Effects@@UEAAPEAUID3DX11EffectSamplerVariable@@XZ 00000001800171e0 f i effects11:EffectNonRuntime.obj
 0001:00016200       ?SetRawValue@?$TVariable@U?$TMember@UID3DX11EffectShaderResourceVariable@@@D3DX11Effects@@@D3DX11Effects@@UEAAJPEBXII@Z 0000000180017200 f i effects11:EffectNonRuntime.obj
 0001:00016210       ?GetRawValue@?$TVariable@U?$TMember@UID3DX11EffectShaderResourceVariable@@@D3DX11Effects@@@D3DX11Effects@@UEAAJPEAXII@Z 0000000180017210 f i effects11:EffectNonRuntime.obj
 0001:00016220       ?GetTopLevelEntity@?$TMember@UID3DX11EffectShaderResourceVariable@@@D3DX11Effects@@QEAAPEAU?$TTopLevelVariable@UID3DX11EffectVariable@@@2@XZ 0000000180017220 f i effects11:EffectNonRuntime.obj
 0001:00016230       ?IsArray@?$TMember@UID3DX11EffectShaderResourceVariable@@@D3DX11Effects@@QEAAHXZ 0000000180017230 f i effects11:EffectNonRuntime.obj
 0001:00016250       ?GetMemberByIndex@?$TVariable@U?$TMember@UID3DX11EffectShaderResourceVariable@@@D3DX11Effects@@@D3DX11Effects@@UEAAPEAUID3DX11EffectVariable@@I@Z 0000000180017250 f i effects11:EffectNonRuntime.obj
 0001:000162e0       ?GetMemberByName@?$TVariable@U?$TMember@UID3DX11EffectShaderResourceVariable@@@D3DX11Effects@@@D3DX11Effects@@UEAAPEAUID3DX11EffectVariable@@PEBD@Z 00000001800172e0 f i effects11:EffectNonRuntime.obj
 0001:000164a0       ?GetMemberBySemantic@?$TVariable@U?$TMember@UID3DX11EffectShaderResourceVariable@@@D3DX11Effects@@@D3DX11Effects@@UEAAPEAUID3DX11EffectVariable@@PEBD@Z 00000001800174a0 f i effects11:EffectNonRuntime.obj
 0001:00016580       ?GetElement@?$TVariable@U?$TMember@UID3DX11EffectShaderResourceVariable@@@D3DX11Effects@@@D3DX11Effects@@UEAAPEAUID3DX11EffectVariable@@I@Z 0000000180017580 f i effects11:EffectNonRuntime.obj
 0001:00016640       ??0?$TVariable@U?$TMember@UID3DX11EffectUnorderedAccessViewVariable@@@D3DX11Effects@@@D3DX11Effects@@QEAA@XZ 0000000180017640 f i effects11:EffectNonRuntime.obj
 0001:00016680       ?IsValid@?$TVariable@U?$TMember@UID3DX11EffectUnorderedAccessViewVariable@@@D3DX11Effects@@@D3DX11Effects@@UEAAHXZ 0000000180017680 f i effects11:EffectNonRuntime.obj
 0001:00016690       ?AsScalar@?$TVariable@U?$TMember@UID3DX11EffectUnorderedAccessViewVariable@@@D3DX11Effects@@@D3DX11Effects@@UEAAPEAUID3DX11EffectScalarVariable@@XZ 0000000180017690 f i effects11:EffectNonRuntime.obj
 0001:000166b0       ?AsVector@?$TVariable@U?$TMember@UID3DX11EffectUnorderedAccessViewVariable@@@D3DX11Effects@@@D3DX11Effects@@UEAAPEAUID3DX11EffectVectorVariable@@XZ 00000001800176b0 f i effects11:EffectNonRuntime.obj
 0001:000166d0       ?AsMatrix@?$TVariable@U?$TMember@UID3DX11EffectUnorderedAccessViewVariable@@@D3DX11Effects@@@D3DX11Effects@@UEAAPEAUID3DX11EffectMatrixVariable@@XZ 00000001800176d0 f i effects11:EffectNonRuntime.obj
 0001:000166f0       ?AsString@?$TVariable@U?$TMember@UID3DX11EffectUnorderedAccessViewVariable@@@D3DX11Effects@@@D3DX11Effects@@UEAAPEAUID3DX11EffectStringVariable@@XZ 00000001800176f0 f i effects11:EffectNonRuntime.obj
 0001:00016710       ?AsClassInstance@?$TVariable@U?$TMember@UID3DX11EffectUnorderedAccessViewVariable@@@D3DX11Effects@@@D3DX11Effects@@UEAAPEAUID3DX11EffectClassInstanceVariable@@XZ 0000000180017710 f i effects11:EffectNonRuntime.obj
 0001:00016740       ?AsInterface@?$TVariable@U?$TMember@UID3DX11EffectUnorderedAccessViewVariable@@@D3DX11Effects@@@D3DX11Effects@@UEAAPEAUID3DX11EffectInterfaceVariable@@XZ 0000000180017740 f i effects11:EffectNonRuntime.obj
 0001:00016760       ?AsShaderResource@?$TVariable@U?$TMember@UID3DX11EffectUnorderedAccessViewVariable@@@D3DX11Effects@@@D3DX11Effects@@UEAAPEAUID3DX11EffectShaderResourceVariable@@XZ 0000000180017760 f i effects11:EffectNonRuntime.obj
 0001:000167c0       ?AsUnorderedAccessView@?$TVariable@U?$TMember@UID3DX11EffectUnorderedAccessViewVariable@@@D3DX11Effects@@@D3DX11Effects@@UEAAPEAUID3DX11EffectUnorderedAccessViewVariable@@XZ 00000001800177c0 f i effects11:EffectNonRuntime.obj
 0001:00016820       ?AsRenderTargetView@?$TVariable@U?$TMember@UID3DX11EffectUnorderedAccessViewVariable@@@D3DX11Effects@@@D3DX11Effects@@UEAAPEAUID3DX11EffectRenderTargetViewVariable@@XZ 0000000180017820 f i effects11:EffectNonRuntime.obj
 0001:00016840       ?AsDepthStencilView@?$TVariable@U?$TMember@UID3DX11EffectUnorderedAccessViewVariable@@@D3DX11Effects@@@D3DX11Effects@@UEAAPEAUID3DX11EffectDepthStencilViewVariable@@XZ 0000000180017840 f i effects11:EffectNonRuntime.obj
 0001:00016860       ?AsConstantBuffer@?$TVariable@U?$TMember@UID3DX11EffectUnorderedAccessViewVariable@@@D3DX11Effects@@@D3DX11Effects@@UEAAPEAUID3DX11EffectConstantBuffer@@XZ 0000000180017860 f i effects11:EffectNonRuntime.obj
 0001:00016870       ?AsShader@?$TVariable@U?$TMember@UID3DX11EffectUnorderedAccessViewVariable@@@D3DX11Effects@@@D3DX11Effects@@UEAAPEAUID3DX11EffectShaderVariable@@XZ 0000000180017870 f i effects11:EffectNonRuntime.obj
 0001:000168c0       ?AsBlend@?$TVariable@U?$TMember@UID3DX11EffectUnorderedAccessViewVariable@@@D3DX11Effects@@@D3DX11Effects@@UEAAPEAUID3DX11EffectBlendVariable@@XZ 00000001800178c0 f i effects11:EffectNonRuntime.obj
 0001:000168e0       ?AsDepthStencil@?$TVariable@U?$TMember@UID3DX11EffectUnorderedAccessViewVariable@@@D3DX11Effects@@@D3DX11Effects@@UEAAPEAUID3DX11EffectDepthStencilVariable@@XZ 00000001800178e0 f i effects11:EffectNonRuntime.obj
 0001:00016900       ?AsRasterizer@?$TVariable@U?$TMember@UID3DX11EffectUnorderedAccessViewVariable@@@D3DX11Effects@@@D3DX11Effects@@UEAAPEAUID3DX11EffectRasterizerVariable@@XZ 0000000180017900 f i effects11:EffectNonRuntime.obj
 0001:00016920       ?AsSampler@?$TVariable@U?$TMember@UID3DX11EffectUnorderedAccessViewVariable@@@D3DX11Effects@@@D3DX11Effects@@UEAAPEAUID3DX11EffectSamplerVariable@@XZ 0000000180017920 f i effects11:EffectNonRuntime.obj
 0001:00016940       ?SetRawValue@?$TVariable@U?$TMember@UID3DX11EffectUnorderedAccessViewVariable@@@D3DX11Effects@@@D3DX11Effects@@UEAAJPEBXII@Z 0000000180017940 f i effects11:EffectNonRuntime.obj
 0001:00016950       ?GetRawValue@?$TVariable@U?$TMember@UID3DX11EffectUnorderedAccessViewVariable@@@D3DX11Effects@@@D3DX11Effects@@UEAAJPEAXII@Z 0000000180017950 f i effects11:EffectNonRuntime.obj
 0001:00016960       ?GetTopLevelEntity@?$TMember@UID3DX11EffectUnorderedAccessViewVariable@@@D3DX11Effects@@QEAAPEAU?$TTopLevelVariable@UID3DX11EffectVariable@@@2@XZ 0000000180017960 f i effects11:EffectNonRuntime.obj
 0001:00016970       ?IsArray@?$TMember@UID3DX11EffectUnorderedAccessViewVariable@@@D3DX11Effects@@QEAAHXZ 0000000180017970 f i effects11:EffectNonRuntime.obj
 0001:00016990       ?GetMemberByIndex@?$TVariable@U?$TMember@UID3DX11EffectUnorderedAccessViewVariable@@@D3DX11Effects@@@D3DX11Effects@@UEAAPEAUID3DX11EffectVariable@@I@Z 0000000180017990 f i effects11:EffectNonRuntime.obj
 0001:00016a20       ?GetMemberByName@?$TVariable@U?$TMember@UID3DX11EffectUnorderedAccessViewVariable@@@D3DX11Effects@@@D3DX11Effects@@UEAAPEAUID3DX11EffectVariable@@PEBD@Z 0000000180017a20 f i effects11:EffectNonRuntime.obj
 0001:00016be0       ?GetMemberBySemantic@?$TVariable@U?$TMember@UID3DX11EffectUnorderedAccessViewVariable@@@D3DX11Effects@@@D3DX11Effects@@UEAAPEAUID3DX11EffectVariable@@PEBD@Z 0000000180017be0 f i effects11:EffectNonRuntime.obj
 0001:00016cc0       ?GetElement@?$TVariable@U?$TMember@UID3DX11EffectUnorderedAccessViewVariable@@@D3DX11Effects@@@D3DX11Effects@@UEAAPEAUID3DX11EffectVariable@@I@Z 0000000180017cc0 f i effects11:EffectNonRuntime.obj
 0001:00016d80       ??0?$TVariable@U?$TMember@UID3DX11EffectShaderVariable@@@D3DX11Effects@@@D3DX11Effects@@QEAA@XZ 0000000180017d80 f i effects11:EffectNonRuntime.obj
 0001:00016dc0       ?IsValid@?$TVariable@U?$TMember@UID3DX11EffectShaderVariable@@@D3DX11Effects@@@D3DX11Effects@@UEAAHXZ 0000000180017dc0 f i effects11:EffectNonRuntime.obj
 0001:00016dd0       ?AsScalar@?$TVariable@U?$TMember@UID3DX11EffectShaderVariable@@@D3DX11Effects@@@D3DX11Effects@@UEAAPEAUID3DX11EffectScalarVariable@@XZ 0000000180017dd0 f i effects11:EffectNonRuntime.obj
 0001:00016df0       ?AsVector@?$TVariable@U?$TMember@UID3DX11EffectShaderVariable@@@D3DX11Effects@@@D3DX11Effects@@UEAAPEAUID3DX11EffectVectorVariable@@XZ 0000000180017df0 f i effects11:EffectNonRuntime.obj
 0001:00016e10       ?AsMatrix@?$TVariable@U?$TMember@UID3DX11EffectShaderVariable@@@D3DX11Effects@@@D3DX11Effects@@UEAAPEAUID3DX11EffectMatrixVariable@@XZ 0000000180017e10 f i effects11:EffectNonRuntime.obj
 0001:00016e30       ?AsString@?$TVariable@U?$TMember@UID3DX11EffectShaderVariable@@@D3DX11Effects@@@D3DX11Effects@@UEAAPEAUID3DX11EffectStringVariable@@XZ 0000000180017e30 f i effects11:EffectNonRuntime.obj
 0001:00016e50       ?AsClassInstance@?$TVariable@U?$TMember@UID3DX11EffectShaderVariable@@@D3DX11Effects@@@D3DX11Effects@@UEAAPEAUID3DX11EffectClassInstanceVariable@@XZ 0000000180017e50 f i effects11:EffectNonRuntime.obj
 0001:00016e80       ?AsInterface@?$TVariable@U?$TMember@UID3DX11EffectShaderVariable@@@D3DX11Effects@@@D3DX11Effects@@UEAAPEAUID3DX11EffectInterfaceVariable@@XZ 0000000180017e80 f i effects11:EffectNonRuntime.obj
 0001:00016ea0       ?AsShaderResource@?$TVariable@U?$TMember@UID3DX11EffectShaderVariable@@@D3DX11Effects@@@D3DX11Effects@@UEAAPEAUID3DX11EffectShaderResourceVariable@@XZ 0000000180017ea0 f i effects11:EffectNonRuntime.obj
 0001:00016f00       ?AsUnorderedAccessView@?$TVariable@U?$TMember@UID3DX11EffectShaderVariable@@@D3DX11Effects@@@D3DX11Effects@@UEAAPEAUID3DX11EffectUnorderedAccessViewVariable@@XZ 0000000180017f00 f i effects11:EffectNonRuntime.obj
 0001:00016f60       ?AsRenderTargetView@?$TVariable@U?$TMember@UID3DX11EffectShaderVariable@@@D3DX11Effects@@@D3DX11Effects@@UEAAPEAUID3DX11EffectRenderTargetViewVariable@@XZ 0000000180017f60 f i effects11:EffectNonRuntime.obj
 0001:00016f80       ?AsDepthStencilView@?$TVariable@U?$TMember@UID3DX11EffectShaderVariable@@@D3DX11Effects@@@D3DX11Effects@@UEAAPEAUID3DX11EffectDepthStencilViewVariable@@XZ 0000000180017f80 f i effects11:EffectNonRuntime.obj
 0001:00016fa0       ?AsConstantBuffer@?$TVariable@U?$TMember@UID3DX11EffectShaderVariable@@@D3DX11Effects@@@D3DX11Effects@@UEAAPEAUID3DX11EffectConstantBuffer@@XZ 0000000180017fa0 f i effects11:EffectNonRuntime.obj
 0001:00016fb0       ?AsShader@?$TVariable@U?$TMember@UID3DX11EffectShaderVariable@@@D3DX11Effects@@@D3DX11Effects@@UEAAPEAUID3DX11EffectShaderVariable@@XZ 0000000180017fb0 f i effects11:EffectNonRuntime.obj
 0001:00017000       ?AsBlend@?$TVariable@U?$TMember@UID3DX11EffectShaderVariable@@@D3DX11Effects@@@D3DX11Effects@@UEAAPEAUID3DX11EffectBlendVariable@@XZ 0000000180018000 f i effects11:EffectNonRuntime.obj
 0001:00017020       ?AsDepthStencil@?$TVariable@U?$TMember@UID3DX11EffectShaderVariable@@@D3DX11Effects@@@D3DX11Effects@@UEAAPEAUID3DX11EffectDepthStencilVariable@@XZ 0000000180018020 f i effects11:EffectNonRuntime.obj
 0001:00017040       ?AsRasterizer@?$TVariable@U?$TMember@UID3DX11EffectShaderVariable@@@D3DX11Effects@@@D3DX11Effects@@UEAAPEAUID3DX11EffectRasterizerVariable@@XZ 0000000180018040 f i effects11:EffectNonRuntime.obj
 0001:00017060       ?AsSampler@?$TVariable@U?$TMember@UID3DX11EffectShaderVariable@@@D3DX11Effects@@@D3DX11Effects@@UEAAPEAUID3DX11EffectSamplerVariable@@XZ 0000000180018060 f i effects11:EffectNonRuntime.obj
 0001:00017080       ?SetRawValue@?$TVariable@U?$TMember@UID3DX11EffectShaderVariable@@@D3DX11Effects@@@D3DX11Effects@@UEAAJPEBXII@Z 0000000180018080 f i effects11:EffectNonRuntime.obj
 0001:00017090       ?GetRawValue@?$TVariable@U?$TMember@UID3DX11EffectShaderVariable@@@D3DX11Effects@@@D3DX11Effects@@UEAAJPEAXII@Z 0000000180018090 f i effects11:EffectNonRuntime.obj
 0001:000170a0       ?GetTopLevelEntity@?$TMember@UID3DX11EffectShaderVariable@@@D3DX11Effects@@QEAAPEAU?$TTopLevelVariable@UID3DX11EffectVariable@@@2@XZ 00000001800180a0 f i effects11:EffectNonRuntime.obj
 0001:000170b0       ?IsArray@?$TMember@UID3DX11EffectShaderVariable@@@D3DX11Effects@@QEAAHXZ 00000001800180b0 f i effects11:EffectNonRuntime.obj
 0001:000170d0       ?GetMemberByIndex@?$TVariable@U?$TMember@UID3DX11EffectShaderVariable@@@D3DX11Effects@@@D3DX11Effects@@UEAAPEAUID3DX11EffectVariable@@I@Z 00000001800180d0 f i effects11:EffectNonRuntime.obj
 0001:00017160       ?GetMemberByName@?$TVariable@U?$TMember@UID3DX11EffectShaderVariable@@@D3DX11Effects@@@D3DX11Effects@@UEAAPEAUID3DX11EffectVariable@@PEBD@Z 0000000180018160 f i effects11:EffectNonRuntime.obj
 0001:00017320       ?GetMemberBySemantic@?$TVariable@U?$TMember@UID3DX11EffectShaderVariable@@@D3DX11Effects@@@D3DX11Effects@@UEAAPEAUID3DX11EffectVariable@@PEBD@Z 0000000180018320 f i effects11:EffectNonRuntime.obj
 0001:00017400       ?GetElement@?$TVariable@U?$TMember@UID3DX11EffectShaderVariable@@@D3DX11Effects@@@D3DX11Effects@@UEAAPEAUID3DX11EffectVariable@@I@Z 0000000180018400 f i effects11:EffectNonRuntime.obj
 0001:000174c0       ??0?$TVariable@U?$TMember@UID3DX11EffectBlendVariable@@@D3DX11Effects@@@D3DX11Effects@@QEAA@XZ 00000001800184c0 f i effects11:EffectNonRuntime.obj
 0001:00017500       ?IsValid@?$TVariable@U?$TMember@UID3DX11EffectBlendVariable@@@D3DX11Effects@@@D3DX11Effects@@UEAAHXZ 0000000180018500 f i effects11:EffectNonRuntime.obj
 0001:00017510       ?AsScalar@?$TVariable@U?$TMember@UID3DX11EffectBlendVariable@@@D3DX11Effects@@@D3DX11Effects@@UEAAPEAUID3DX11EffectScalarVariable@@XZ 0000000180018510 f i effects11:EffectNonRuntime.obj
 0001:00017530       ?AsVector@?$TVariable@U?$TMember@UID3DX11EffectBlendVariable@@@D3DX11Effects@@@D3DX11Effects@@UEAAPEAUID3DX11EffectVectorVariable@@XZ 0000000180018530 f i effects11:EffectNonRuntime.obj
 0001:00017550       ?AsMatrix@?$TVariable@U?$TMember@UID3DX11EffectBlendVariable@@@D3DX11Effects@@@D3DX11Effects@@UEAAPEAUID3DX11EffectMatrixVariable@@XZ 0000000180018550 f i effects11:EffectNonRuntime.obj
 0001:00017570       ?AsString@?$TVariable@U?$TMember@UID3DX11EffectBlendVariable@@@D3DX11Effects@@@D3DX11Effects@@UEAAPEAUID3DX11EffectStringVariable@@XZ 0000000180018570 f i effects11:EffectNonRuntime.obj
 0001:00017590       ?AsClassInstance@?$TVariable@U?$TMember@UID3DX11EffectBlendVariable@@@D3DX11Effects@@@D3DX11Effects@@UEAAPEAUID3DX11EffectClassInstanceVariable@@XZ 0000000180018590 f i effects11:EffectNonRuntime.obj
 0001:000175c0       ?AsInterface@?$TVariable@U?$TMember@UID3DX11EffectBlendVariable@@@D3DX11Effects@@@D3DX11Effects@@UEAAPEAUID3DX11EffectInterfaceVariable@@XZ 00000001800185c0 f i effects11:EffectNonRuntime.obj
 0001:000175e0       ?AsShaderResource@?$TVariable@U?$TMember@UID3DX11EffectBlendVariable@@@D3DX11Effects@@@D3DX11Effects@@UEAAPEAUID3DX11EffectShaderResourceVariable@@XZ 00000001800185e0 f i effects11:EffectNonRuntime.obj
 0001:00017640       ?AsUnorderedAccessView@?$TVariable@U?$TMember@UID3DX11EffectBlendVariable@@@D3DX11Effects@@@D3DX11Effects@@UEAAPEAUID3DX11EffectUnorderedAccessViewVariable@@XZ 0000000180018640 f i effects11:EffectNonRuntime.obj
 0001:000176a0       ?AsRenderTargetView@?$TVariable@U?$TMember@UID3DX11EffectBlendVariable@@@D3DX11Effects@@@D3DX11Effects@@UEAAPEAUID3DX11EffectRenderTargetViewVariable@@XZ 00000001800186a0 f i effects11:EffectNonRuntime.obj
 0001:000176c0       ?AsDepthStencilView@?$TVariable@U?$TMember@UID3DX11EffectBlendVariable@@@D3DX11Effects@@@D3DX11Effects@@UEAAPEAUID3DX11EffectDepthStencilViewVariable@@XZ 00000001800186c0 f i effects11:EffectNonRuntime.obj
 0001:000176e0       ?AsConstantBuffer@?$TVariable@U?$TMember@UID3DX11EffectBlendVariable@@@D3DX11Effects@@@D3DX11Effects@@UEAAPEAUID3DX11EffectConstantBuffer@@XZ 00000001800186e0 f i effects11:EffectNonRuntime.obj
 0001:000176f0       ?AsShader@?$TVariable@U?$TMember@UID3DX11EffectBlendVariable@@@D3DX11Effects@@@D3DX11Effects@@UEAAPEAUID3DX11EffectShaderVariable@@XZ 00000001800186f0 f i effects11:EffectNonRuntime.obj
 0001:00017740       ?AsBlend@?$TVariable@U?$TMember@UID3DX11EffectBlendVariable@@@D3DX11Effects@@@D3DX11Effects@@UEAAPEAUID3DX11EffectBlendVariable@@XZ 0000000180018740 f i effects11:EffectNonRuntime.obj
 0001:00017760       ?AsDepthStencil@?$TVariable@U?$TMember@UID3DX11EffectBlendVariable@@@D3DX11Effects@@@D3DX11Effects@@UEAAPEAUID3DX11EffectDepthStencilVariable@@XZ 0000000180018760 f i effects11:EffectNonRuntime.obj
 0001:00017780       ?AsRasterizer@?$TVariable@U?$TMember@UID3DX11EffectBlendVariable@@@D3DX11Effects@@@D3DX11Effects@@UEAAPEAUID3DX11EffectRasterizerVariable@@XZ 0000000180018780 f i effects11:EffectNonRuntime.obj
 0001:000177a0       ?AsSampler@?$TVariable@U?$TMember@UID3DX11EffectBlendVariable@@@D3DX11Effects@@@D3DX11Effects@@UEAAPEAUID3DX11EffectSamplerVariable@@XZ 00000001800187a0 f i effects11:EffectNonRuntime.obj
 0001:000177c0       ?SetRawValue@?$TVariable@U?$TMember@UID3DX11EffectBlendVariable@@@D3DX11Effects@@@D3DX11Effects@@UEAAJPEBXII@Z 00000001800187c0 f i effects11:EffectNonRuntime.obj
 0001:000177d0       ?GetRawValue@?$TVariable@U?$TMember@UID3DX11EffectBlendVariable@@@D3DX11Effects@@@D3DX11Effects@@UEAAJPEAXII@Z 00000001800187d0 f i effects11:EffectNonRuntime.obj
 0001:000177e0       ?GetTopLevelEntity@?$TMember@UID3DX11EffectBlendVariable@@@D3DX11Effects@@QEAAPEAU?$TTopLevelVariable@UID3DX11EffectVariable@@@2@XZ 00000001800187e0 f i effects11:EffectNonRuntime.obj
 0001:000177f0       ?IsArray@?$TMember@UID3DX11EffectBlendVariable@@@D3DX11Effects@@QEAAHXZ 00000001800187f0 f i effects11:EffectNonRuntime.obj
 0001:00017810       ?GetMemberByIndex@?$TVariable@U?$TMember@UID3DX11EffectBlendVariable@@@D3DX11Effects@@@D3DX11Effects@@UEAAPEAUID3DX11EffectVariable@@I@Z 0000000180018810 f i effects11:EffectNonRuntime.obj
 0001:000178a0       ?GetMemberByName@?$TVariable@U?$TMember@UID3DX11EffectBlendVariable@@@D3DX11Effects@@@D3DX11Effects@@UEAAPEAUID3DX11EffectVariable@@PEBD@Z 00000001800188a0 f i effects11:EffectNonRuntime.obj
 0001:00017a60       ?GetMemberBySemantic@?$TVariable@U?$TMember@UID3DX11EffectBlendVariable@@@D3DX11Effects@@@D3DX11Effects@@UEAAPEAUID3DX11EffectVariable@@PEBD@Z 0000000180018a60 f i effects11:EffectNonRuntime.obj
 0001:00017b40       ?GetElement@?$TVariable@U?$TMember@UID3DX11EffectBlendVariable@@@D3DX11Effects@@@D3DX11Effects@@UEAAPEAUID3DX11EffectVariable@@I@Z 0000000180018b40 f i effects11:EffectNonRuntime.obj
 0001:00017c00       ??0?$TVariable@U?$TMember@UID3DX11EffectRasterizerVariable@@@D3DX11Effects@@@D3DX11Effects@@QEAA@XZ 0000000180018c00 f i effects11:EffectNonRuntime.obj
 0001:00017c40       ?IsValid@?$TVariable@U?$TMember@UID3DX11EffectRasterizerVariable@@@D3DX11Effects@@@D3DX11Effects@@UEAAHXZ 0000000180018c40 f i effects11:EffectNonRuntime.obj
 0001:00017c50       ?AsScalar@?$TVariable@U?$TMember@UID3DX11EffectRasterizerVariable@@@D3DX11Effects@@@D3DX11Effects@@UEAAPEAUID3DX11EffectScalarVariable@@XZ 0000000180018c50 f i effects11:EffectNonRuntime.obj
 0001:00017c70       ?AsVector@?$TVariable@U?$TMember@UID3DX11EffectRasterizerVariable@@@D3DX11Effects@@@D3DX11Effects@@UEAAPEAUID3DX11EffectVectorVariable@@XZ 0000000180018c70 f i effects11:EffectNonRuntime.obj
 0001:00017c90       ?AsMatrix@?$TVariable@U?$TMember@UID3DX11EffectRasterizerVariable@@@D3DX11Effects@@@D3DX11Effects@@UEAAPEAUID3DX11EffectMatrixVariable@@XZ 0000000180018c90 f i effects11:EffectNonRuntime.obj
 0001:00017cb0       ?AsString@?$TVariable@U?$TMember@UID3DX11EffectRasterizerVariable@@@D3DX11Effects@@@D3DX11Effects@@UEAAPEAUID3DX11EffectStringVariable@@XZ 0000000180018cb0 f i effects11:EffectNonRuntime.obj
 0001:00017cd0       ?AsClassInstance@?$TVariable@U?$TMember@UID3DX11EffectRasterizerVariable@@@D3DX11Effects@@@D3DX11Effects@@UEAAPEAUID3DX11EffectClassInstanceVariable@@XZ 0000000180018cd0 f i effects11:EffectNonRuntime.obj
 0001:00017d00       ?AsInterface@?$TVariable@U?$TMember@UID3DX11EffectRasterizerVariable@@@D3DX11Effects@@@D3DX11Effects@@UEAAPEAUID3DX11EffectInterfaceVariable@@XZ 0000000180018d00 f i effects11:EffectNonRuntime.obj
 0001:00017d20       ?AsShaderResource@?$TVariable@U?$TMember@UID3DX11EffectRasterizerVariable@@@D3DX11Effects@@@D3DX11Effects@@UEAAPEAUID3DX11EffectShaderResourceVariable@@XZ 0000000180018d20 f i effects11:EffectNonRuntime.obj
 0001:00017d80       ?AsUnorderedAccessView@?$TVariable@U?$TMember@UID3DX11EffectRasterizerVariable@@@D3DX11Effects@@@D3DX11Effects@@UEAAPEAUID3DX11EffectUnorderedAccessViewVariable@@XZ 0000000180018d80 f i effects11:EffectNonRuntime.obj
 0001:00017de0       ?AsRenderTargetView@?$TVariable@U?$TMember@UID3DX11EffectRasterizerVariable@@@D3DX11Effects@@@D3DX11Effects@@UEAAPEAUID3DX11EffectRenderTargetViewVariable@@XZ 0000000180018de0 f i effects11:EffectNonRuntime.obj
 0001:00017e00       ?AsDepthStencilView@?$TVariable@U?$TMember@UID3DX11EffectRasterizerVariable@@@D3DX11Effects@@@D3DX11Effects@@UEAAPEAUID3DX11EffectDepthStencilViewVariable@@XZ 0000000180018e00 f i effects11:EffectNonRuntime.obj
 0001:00017e20       ?AsConstantBuffer@?$TVariable@U?$TMember@UID3DX11EffectRasterizerVariable@@@D3DX11Effects@@@D3DX11Effects@@UEAAPEAUID3DX11EffectConstantBuffer@@XZ 0000000180018e20 f i effects11:EffectNonRuntime.obj
 0001:00017e30       ?AsShader@?$TVariable@U?$TMember@UID3DX11EffectRasterizerVariable@@@D3DX11Effects@@@D3DX11Effects@@UEAAPEAUID3DX11EffectShaderVariable@@XZ 0000000180018e30 f i effects11:EffectNonRuntime.obj
 0001:00017e80       ?AsBlend@?$TVariable@U?$TMember@UID3DX11EffectRasterizerVariable@@@D3DX11Effects@@@D3DX11Effects@@UEAAPEAUID3DX11EffectBlendVariable@@XZ 0000000180018e80 f i effects11:EffectNonRuntime.obj
 0001:00017ea0       ?AsDepthStencil@?$TVariable@U?$TMember@UID3DX11EffectRasterizerVariable@@@D3DX11Effects@@@D3DX11Effects@@UEAAPEAUID3DX11EffectDepthStencilVariable@@XZ 0000000180018ea0 f i effects11:EffectNonRuntime.obj
 0001:00017ec0       ?AsRasterizer@?$TVariable@U?$TMember@UID3DX11EffectRasterizerVariable@@@D3DX11Effects@@@D3DX11Effects@@UEAAPEAUID3DX11EffectRasterizerVariable@@XZ 0000000180018ec0 f i effects11:EffectNonRuntime.obj
 0001:00017ee0       ?AsSampler@?$TVariable@U?$TMember@UID3DX11EffectRasterizerVariable@@@D3DX11Effects@@@D3DX11Effects@@UEAAPEAUID3DX11EffectSamplerVariable@@XZ 0000000180018ee0 f i effects11:EffectNonRuntime.obj
 0001:00017f00       ?SetRawValue@?$TVariable@U?$TMember@UID3DX11EffectRasterizerVariable@@@D3DX11Effects@@@D3DX11Effects@@UEAAJPEBXII@Z 0000000180018f00 f i effects11:EffectNonRuntime.obj
 0001:00017f10       ?GetRawValue@?$TVariable@U?$TMember@UID3DX11EffectRasterizerVariable@@@D3DX11Effects@@@D3DX11Effects@@UEAAJPEAXII@Z 0000000180018f10 f i effects11:EffectNonRuntime.obj
 0001:00017f20       ?GetTopLevelEntity@?$TMember@UID3DX11EffectRasterizerVariable@@@D3DX11Effects@@QEAAPEAU?$TTopLevelVariable@UID3DX11EffectVariable@@@2@XZ 0000000180018f20 f i effects11:EffectNonRuntime.obj
 0001:00017f30       ?IsArray@?$TMember@UID3DX11EffectRasterizerVariable@@@D3DX11Effects@@QEAAHXZ 0000000180018f30 f i effects11:EffectNonRuntime.obj
 0001:00017f50       ?GetMemberByIndex@?$TVariable@U?$TMember@UID3DX11EffectRasterizerVariable@@@D3DX11Effects@@@D3DX11Effects@@UEAAPEAUID3DX11EffectVariable@@I@Z 0000000180018f50 f i effects11:EffectNonRuntime.obj
 0001:00017fe0       ?GetMemberByName@?$TVariable@U?$TMember@UID3DX11EffectRasterizerVariable@@@D3DX11Effects@@@D3DX11Effects@@UEAAPEAUID3DX11EffectVariable@@PEBD@Z 0000000180018fe0 f i effects11:EffectNonRuntime.obj
 0001:000181a0       ?GetMemberBySemantic@?$TVariable@U?$TMember@UID3DX11EffectRasterizerVariable@@@D3DX11Effects@@@D3DX11Effects@@UEAAPEAUID3DX11EffectVariable@@PEBD@Z 00000001800191a0 f i effects11:EffectNonRuntime.obj
 0001:00018280       ?GetElement@?$TVariable@U?$TMember@UID3DX11EffectRasterizerVariable@@@D3DX11Effects@@@D3DX11Effects@@UEAAPEAUID3DX11EffectVariable@@I@Z 0000000180019280 f i effects11:EffectNonRuntime.obj
 0001:00018340       ??0?$TVariable@U?$TMember@UID3DX11EffectDepthStencilVariable@@@D3DX11Effects@@@D3DX11Effects@@QEAA@XZ 0000000180019340 f i effects11:EffectNonRuntime.obj
 0001:00018380       ?IsValid@?$TVariable@U?$TMember@UID3DX11EffectDepthStencilVariable@@@D3DX11Effects@@@D3DX11Effects@@UEAAHXZ 0000000180019380 f i effects11:EffectNonRuntime.obj
 0001:00018390       ?AsScalar@?$TVariable@U?$TMember@UID3DX11EffectDepthStencilVariable@@@D3DX11Effects@@@D3DX11Effects@@UEAAPEAUID3DX11EffectScalarVariable@@XZ 0000000180019390 f i effects11:EffectNonRuntime.obj
 0001:000183b0       ?AsVector@?$TVariable@U?$TMember@UID3DX11EffectDepthStencilVariable@@@D3DX11Effects@@@D3DX11Effects@@UEAAPEAUID3DX11EffectVectorVariable@@XZ 00000001800193b0 f i effects11:EffectNonRuntime.obj
 0001:000183d0       ?AsMatrix@?$TVariable@U?$TMember@UID3DX11EffectDepthStencilVariable@@@D3DX11Effects@@@D3DX11Effects@@UEAAPEAUID3DX11EffectMatrixVariable@@XZ 00000001800193d0 f i effects11:EffectNonRuntime.obj
 0001:000183f0       ?AsString@?$TVariable@U?$TMember@UID3DX11EffectDepthStencilVariable@@@D3DX11Effects@@@D3DX11Effects@@UEAAPEAUID3DX11EffectStringVariable@@XZ 00000001800193f0 f i effects11:EffectNonRuntime.obj
 0001:00018410       ?AsClassInstance@?$TVariable@U?$TMember@UID3DX11EffectDepthStencilVariable@@@D3DX11Effects@@@D3DX11Effects@@UEAAPEAUID3DX11EffectClassInstanceVariable@@XZ 0000000180019410 f i effects11:EffectNonRuntime.obj
 0001:00018440       ?AsInterface@?$TVariable@U?$TMember@UID3DX11EffectDepthStencilVariable@@@D3DX11Effects@@@D3DX11Effects@@UEAAPEAUID3DX11EffectInterfaceVariable@@XZ 0000000180019440 f i effects11:EffectNonRuntime.obj
 0001:00018460       ?AsShaderResource@?$TVariable@U?$TMember@UID3DX11EffectDepthStencilVariable@@@D3DX11Effects@@@D3DX11Effects@@UEAAPEAUID3DX11EffectShaderResourceVariable@@XZ 0000000180019460 f i effects11:EffectNonRuntime.obj
 0001:000184c0       ?AsUnorderedAccessView@?$TVariable@U?$TMember@UID3DX11EffectDepthStencilVariable@@@D3DX11Effects@@@D3DX11Effects@@UEAAPEAUID3DX11EffectUnorderedAccessViewVariable@@XZ 00000001800194c0 f i effects11:EffectNonRuntime.obj
 0001:00018520       ?AsRenderTargetView@?$TVariable@U?$TMember@UID3DX11EffectDepthStencilVariable@@@D3DX11Effects@@@D3DX11Effects@@UEAAPEAUID3DX11EffectRenderTargetViewVariable@@XZ 0000000180019520 f i effects11:EffectNonRuntime.obj
 0001:00018540       ?AsDepthStencilView@?$TVariable@U?$TMember@UID3DX11EffectDepthStencilVariable@@@D3DX11Effects@@@D3DX11Effects@@UEAAPEAUID3DX11EffectDepthStencilViewVariable@@XZ 0000000180019540 f i effects11:EffectNonRuntime.obj
 0001:00018560       ?AsConstantBuffer@?$TVariable@U?$TMember@UID3DX11EffectDepthStencilVariable@@@D3DX11Effects@@@D3DX11Effects@@UEAAPEAUID3DX11EffectConstantBuffer@@XZ 0000000180019560 f i effects11:EffectNonRuntime.obj
 0001:00018570       ?AsShader@?$TVariable@U?$TMember@UID3DX11EffectDepthStencilVariable@@@D3DX11Effects@@@D3DX11Effects@@UEAAPEAUID3DX11EffectShaderVariable@@XZ 0000000180019570 f i effects11:EffectNonRuntime.obj
 0001:000185c0       ?AsBlend@?$TVariable@U?$TMember@UID3DX11EffectDepthStencilVariable@@@D3DX11Effects@@@D3DX11Effects@@UEAAPEAUID3DX11EffectBlendVariable@@XZ 00000001800195c0 f i effects11:EffectNonRuntime.obj
 0001:000185e0       ?AsDepthStencil@?$TVariable@U?$TMember@UID3DX11EffectDepthStencilVariable@@@D3DX11Effects@@@D3DX11Effects@@UEAAPEAUID3DX11EffectDepthStencilVariable@@XZ 00000001800195e0 f i effects11:EffectNonRuntime.obj
 0001:00018600       ?AsRasterizer@?$TVariable@U?$TMember@UID3DX11EffectDepthStencilVariable@@@D3DX11Effects@@@D3DX11Effects@@UEAAPEAUID3DX11EffectRasterizerVariable@@XZ 0000000180019600 f i effects11:EffectNonRuntime.obj
 0001:00018620       ?AsSampler@?$TVariable@U?$TMember@UID3DX11EffectDepthStencilVariable@@@D3DX11Effects@@@D3DX11Effects@@UEAAPEAUID3DX11EffectSamplerVariable@@XZ 0000000180019620 f i effects11:EffectNonRuntime.obj
 0001:00018640       ?SetRawValue@?$TVariable@U?$TMember@UID3DX11EffectDepthStencilVariable@@@D3DX11Effects@@@D3DX11Effects@@UEAAJPEBXII@Z 0000000180019640 f i effects11:EffectNonRuntime.obj
 0001:00018650       ?GetRawValue@?$TVariable@U?$TMember@UID3DX11EffectDepthStencilVariable@@@D3DX11Effects@@@D3DX11Effects@@UEAAJPEAXII@Z 0000000180019650 f i effects11:EffectNonRuntime.obj
 0001:00018660       ?GetTopLevelEntity@?$TMember@UID3DX11EffectDepthStencilVariable@@@D3DX11Effects@@QEAAPEAU?$TTopLevelVariable@UID3DX11EffectVariable@@@2@XZ 0000000180019660 f i effects11:EffectNonRuntime.obj
 0001:00018670       ?IsArray@?$TMember@UID3DX11EffectDepthStencilVariable@@@D3DX11Effects@@QEAAHXZ 0000000180019670 f i effects11:EffectNonRuntime.obj
 0001:00018690       ?GetMemberByIndex@?$TVariable@U?$TMember@UID3DX11EffectDepthStencilVariable@@@D3DX11Effects@@@D3DX11Effects@@UEAAPEAUID3DX11EffectVariable@@I@Z 0000000180019690 f i effects11:EffectNonRuntime.obj
 0001:00018720       ?GetMemberByName@?$TVariable@U?$TMember@UID3DX11EffectDepthStencilVariable@@@D3DX11Effects@@@D3DX11Effects@@UEAAPEAUID3DX11EffectVariable@@PEBD@Z 0000000180019720 f i effects11:EffectNonRuntime.obj
 0001:000188e0       ?GetMemberBySemantic@?$TVariable@U?$TMember@UID3DX11EffectDepthStencilVariable@@@D3DX11Effects@@@D3DX11Effects@@UEAAPEAUID3DX11EffectVariable@@PEBD@Z 00000001800198e0 f i effects11:EffectNonRuntime.obj
 0001:000189c0       ?GetElement@?$TVariable@U?$TMember@UID3DX11EffectDepthStencilVariable@@@D3DX11Effects@@@D3DX11Effects@@UEAAPEAUID3DX11EffectVariable@@I@Z 00000001800199c0 f i effects11:EffectNonRuntime.obj
 0001:00018a80       ??0?$TVariable@U?$TMember@UID3DX11EffectSamplerVariable@@@D3DX11Effects@@@D3DX11Effects@@QEAA@XZ 0000000180019a80 f i effects11:EffectNonRuntime.obj
 0001:00018ac0       ?IsValid@?$TVariable@U?$TMember@UID3DX11EffectSamplerVariable@@@D3DX11Effects@@@D3DX11Effects@@UEAAHXZ 0000000180019ac0 f i effects11:EffectNonRuntime.obj
 0001:00018ad0       ?AsScalar@?$TVariable@U?$TMember@UID3DX11EffectSamplerVariable@@@D3DX11Effects@@@D3DX11Effects@@UEAAPEAUID3DX11EffectScalarVariable@@XZ 0000000180019ad0 f i effects11:EffectNonRuntime.obj
 0001:00018af0       ?AsVector@?$TVariable@U?$TMember@UID3DX11EffectSamplerVariable@@@D3DX11Effects@@@D3DX11Effects@@UEAAPEAUID3DX11EffectVectorVariable@@XZ 0000000180019af0 f i effects11:EffectNonRuntime.obj
 0001:00018b10       ?AsMatrix@?$TVariable@U?$TMember@UID3DX11EffectSamplerVariable@@@D3DX11Effects@@@D3DX11Effects@@UEAAPEAUID3DX11EffectMatrixVariable@@XZ 0000000180019b10 f i effects11:EffectNonRuntime.obj
 0001:00018b30       ?AsString@?$TVariable@U?$TMember@UID3DX11EffectSamplerVariable@@@D3DX11Effects@@@D3DX11Effects@@UEAAPEAUID3DX11EffectStringVariable@@XZ 0000000180019b30 f i effects11:EffectNonRuntime.obj
 0001:00018b50       ?AsClassInstance@?$TVariable@U?$TMember@UID3DX11EffectSamplerVariable@@@D3DX11Effects@@@D3DX11Effects@@UEAAPEAUID3DX11EffectClassInstanceVariable@@XZ 0000000180019b50 f i effects11:EffectNonRuntime.obj
 0001:00018b80       ?AsInterface@?$TVariable@U?$TMember@UID3DX11EffectSamplerVariable@@@D3DX11Effects@@@D3DX11Effects@@UEAAPEAUID3DX11EffectInterfaceVariable@@XZ 0000000180019b80 f i effects11:EffectNonRuntime.obj
 0001:00018ba0       ?AsShaderResource@?$TVariable@U?$TMember@UID3DX11EffectSamplerVariable@@@D3DX11Effects@@@D3DX11Effects@@UEAAPEAUID3DX11EffectShaderResourceVariable@@XZ 0000000180019ba0 f i effects11:EffectNonRuntime.obj
 0001:00018c00       ?AsUnorderedAccessView@?$TVariable@U?$TMember@UID3DX11EffectSamplerVariable@@@D3DX11Effects@@@D3DX11Effects@@UEAAPEAUID3DX11EffectUnorderedAccessViewVariable@@XZ 0000000180019c00 f i effects11:EffectNonRuntime.obj
 0001:00018c60       ?AsRenderTargetView@?$TVariable@U?$TMember@UID3DX11EffectSamplerVariable@@@D3DX11Effects@@@D3DX11Effects@@UEAAPEAUID3DX11EffectRenderTargetViewVariable@@XZ 0000000180019c60 f i effects11:EffectNonRuntime.obj
 0001:00018c80       ?AsDepthStencilView@?$TVariable@U?$TMember@UID3DX11EffectSamplerVariable@@@D3DX11Effects@@@D3DX11Effects@@UEAAPEAUID3DX11EffectDepthStencilViewVariable@@XZ 0000000180019c80 f i effects11:EffectNonRuntime.obj
 0001:00018ca0       ?AsConstantBuffer@?$TVariable@U?$TMember@UID3DX11EffectSamplerVariable@@@D3DX11Effects@@@D3DX11Effects@@UEAAPEAUID3DX11EffectConstantBuffer@@XZ 0000000180019ca0 f i effects11:EffectNonRuntime.obj
 0001:00018cb0       ?AsShader@?$TVariable@U?$TMember@UID3DX11EffectSamplerVariable@@@D3DX11Effects@@@D3DX11Effects@@UEAAPEAUID3DX11EffectShaderVariable@@XZ 0000000180019cb0 f i effects11:EffectNonRuntime.obj
 0001:00018d00       ?AsBlend@?$TVariable@U?$TMember@UID3DX11EffectSamplerVariable@@@D3DX11Effects@@@D3DX11Effects@@UEAAPEAUID3DX11EffectBlendVariable@@XZ 0000000180019d00 f i effects11:EffectNonRuntime.obj
 0001:00018d20       ?AsDepthStencil@?$TVariable@U?$TMember@UID3DX11EffectSamplerVariable@@@D3DX11Effects@@@D3DX11Effects@@UEAAPEAUID3DX11EffectDepthStencilVariable@@XZ 0000000180019d20 f i effects11:EffectNonRuntime.obj
 0001:00018d40       ?AsRasterizer@?$TVariable@U?$TMember@UID3DX11EffectSamplerVariable@@@D3DX11Effects@@@D3DX11Effects@@UEAAPEAUID3DX11EffectRasterizerVariable@@XZ 0000000180019d40 f i effects11:EffectNonRuntime.obj
 0001:00018d60       ?AsSampler@?$TVariable@U?$TMember@UID3DX11EffectSamplerVariable@@@D3DX11Effects@@@D3DX11Effects@@UEAAPEAUID3DX11EffectSamplerVariable@@XZ 0000000180019d60 f i effects11:EffectNonRuntime.obj
 0001:00018d80       ?SetRawValue@?$TVariable@U?$TMember@UID3DX11EffectSamplerVariable@@@D3DX11Effects@@@D3DX11Effects@@UEAAJPEBXII@Z 0000000180019d80 f i effects11:EffectNonRuntime.obj
 0001:00018d90       ?GetRawValue@?$TVariable@U?$TMember@UID3DX11EffectSamplerVariable@@@D3DX11Effects@@@D3DX11Effects@@UEAAJPEAXII@Z 0000000180019d90 f i effects11:EffectNonRuntime.obj
 0001:00018da0       ?GetTopLevelEntity@?$TMember@UID3DX11EffectSamplerVariable@@@D3DX11Effects@@QEAAPEAU?$TTopLevelVariable@UID3DX11EffectVariable@@@2@XZ 0000000180019da0 f i effects11:EffectNonRuntime.obj
 0001:00018db0       ?IsArray@?$TMember@UID3DX11EffectSamplerVariable@@@D3DX11Effects@@QEAAHXZ 0000000180019db0 f i effects11:EffectNonRuntime.obj
 0001:00018dd0       ?GetMemberByIndex@?$TVariable@U?$TMember@UID3DX11EffectSamplerVariable@@@D3DX11Effects@@@D3DX11Effects@@UEAAPEAUID3DX11EffectVariable@@I@Z 0000000180019dd0 f i effects11:EffectNonRuntime.obj
 0001:00018e60       ?GetMemberByName@?$TVariable@U?$TMember@UID3DX11EffectSamplerVariable@@@D3DX11Effects@@@D3DX11Effects@@UEAAPEAUID3DX11EffectVariable@@PEBD@Z 0000000180019e60 f i effects11:EffectNonRuntime.obj
 0001:00019020       ?GetMemberBySemantic@?$TVariable@U?$TMember@UID3DX11EffectSamplerVariable@@@D3DX11Effects@@@D3DX11Effects@@UEAAPEAUID3DX11EffectVariable@@PEBD@Z 000000018001a020 f i effects11:EffectNonRuntime.obj
 0001:00019100       ?GetElement@?$TVariable@U?$TMember@UID3DX11EffectSamplerVariable@@@D3DX11Effects@@@D3DX11Effects@@UEAAPEAUID3DX11EffectVariable@@I@Z 000000018001a100 f i effects11:EffectNonRuntime.obj
 0001:000191c0       ??0?$TVariable@U?$TMember@UID3DX11EffectDepthStencilViewVariable@@@D3DX11Effects@@@D3DX11Effects@@QEAA@XZ 000000018001a1c0 f i effects11:EffectNonRuntime.obj
 0001:00019200       ?IsValid@?$TVariable@U?$TMember@UID3DX11EffectDepthStencilViewVariable@@@D3DX11Effects@@@D3DX11Effects@@UEAAHXZ 000000018001a200 f i effects11:EffectNonRuntime.obj
 0001:00019210       ?AsScalar@?$TVariable@U?$TMember@UID3DX11EffectDepthStencilViewVariable@@@D3DX11Effects@@@D3DX11Effects@@UEAAPEAUID3DX11EffectScalarVariable@@XZ 000000018001a210 f i effects11:EffectNonRuntime.obj
 0001:00019230       ?AsVector@?$TVariable@U?$TMember@UID3DX11EffectDepthStencilViewVariable@@@D3DX11Effects@@@D3DX11Effects@@UEAAPEAUID3DX11EffectVectorVariable@@XZ 000000018001a230 f i effects11:EffectNonRuntime.obj
 0001:00019250       ?AsMatrix@?$TVariable@U?$TMember@UID3DX11EffectDepthStencilViewVariable@@@D3DX11Effects@@@D3DX11Effects@@UEAAPEAUID3DX11EffectMatrixVariable@@XZ 000000018001a250 f i effects11:EffectNonRuntime.obj
 0001:00019270       ?AsString@?$TVariable@U?$TMember@UID3DX11EffectDepthStencilViewVariable@@@D3DX11Effects@@@D3DX11Effects@@UEAAPEAUID3DX11EffectStringVariable@@XZ 000000018001a270 f i effects11:EffectNonRuntime.obj
 0001:00019290       ?AsClassInstance@?$TVariable@U?$TMember@UID3DX11EffectDepthStencilViewVariable@@@D3DX11Effects@@@D3DX11Effects@@UEAAPEAUID3DX11EffectClassInstanceVariable@@XZ 000000018001a290 f i effects11:EffectNonRuntime.obj
 0001:000192c0       ?AsInterface@?$TVariable@U?$TMember@UID3DX11EffectDepthStencilViewVariable@@@D3DX11Effects@@@D3DX11Effects@@UEAAPEAUID3DX11EffectInterfaceVariable@@XZ 000000018001a2c0 f i effects11:EffectNonRuntime.obj
 0001:000192e0       ?AsShaderResource@?$TVariable@U?$TMember@UID3DX11EffectDepthStencilViewVariable@@@D3DX11Effects@@@D3DX11Effects@@UEAAPEAUID3DX11EffectShaderResourceVariable@@XZ 000000018001a2e0 f i effects11:EffectNonRuntime.obj
 0001:00019340       ?AsUnorderedAccessView@?$TVariable@U?$TMember@UID3DX11EffectDepthStencilViewVariable@@@D3DX11Effects@@@D3DX11Effects@@UEAAPEAUID3DX11EffectUnorderedAccessViewVariable@@XZ 000000018001a340 f i effects11:EffectNonRuntime.obj
 0001:000193a0       ?AsRenderTargetView@?$TVariable@U?$TMember@UID3DX11EffectDepthStencilViewVariable@@@D3DX11Effects@@@D3DX11Effects@@UEAAPEAUID3DX11EffectRenderTargetViewVariable@@XZ 000000018001a3a0 f i effects11:EffectNonRuntime.obj
 0001:000193c0       ?AsDepthStencilView@?$TVariable@U?$TMember@UID3DX11EffectDepthStencilViewVariable@@@D3DX11Effects@@@D3DX11Effects@@UEAAPEAUID3DX11EffectDepthStencilViewVariable@@XZ 000000018001a3c0 f i effects11:EffectNonRuntime.obj
 0001:000193e0       ?AsConstantBuffer@?$TVariable@U?$TMember@UID3DX11EffectDepthStencilViewVariable@@@D3DX11Effects@@@D3DX11Effects@@UEAAPEAUID3DX11EffectConstantBuffer@@XZ 000000018001a3e0 f i effects11:EffectNonRuntime.obj
 0001:000193f0       ?AsShader@?$TVariable@U?$TMember@UID3DX11EffectDepthStencilViewVariable@@@D3DX11Effects@@@D3DX11Effects@@UEAAPEAUID3DX11EffectShaderVariable@@XZ 000000018001a3f0 f i effects11:EffectNonRuntime.obj
 0001:00019440       ?AsBlend@?$TVariable@U?$TMember@UID3DX11EffectDepthStencilViewVariable@@@D3DX11Effects@@@D3DX11Effects@@UEAAPEAUID3DX11EffectBlendVariable@@XZ 000000018001a440 f i effects11:EffectNonRuntime.obj
 0001:00019460       ?AsDepthStencil@?$TVariable@U?$TMember@UID3DX11EffectDepthStencilViewVariable@@@D3DX11Effects@@@D3DX11Effects@@UEAAPEAUID3DX11EffectDepthStencilVariable@@XZ 000000018001a460 f i effects11:EffectNonRuntime.obj
 0001:00019480       ?AsRasterizer@?$TVariable@U?$TMember@UID3DX11EffectDepthStencilViewVariable@@@D3DX11Effects@@@D3DX11Effects@@UEAAPEAUID3DX11EffectRasterizerVariable@@XZ 000000018001a480 f i effects11:EffectNonRuntime.obj
 0001:000194a0       ?AsSampler@?$TVariable@U?$TMember@UID3DX11EffectDepthStencilViewVariable@@@D3DX11Effects@@@D3DX11Effects@@UEAAPEAUID3DX11EffectSamplerVariable@@XZ 000000018001a4a0 f i effects11:EffectNonRuntime.obj
 0001:000194c0       ?SetRawValue@?$TVariable@U?$TMember@UID3DX11EffectDepthStencilViewVariable@@@D3DX11Effects@@@D3DX11Effects@@UEAAJPEBXII@Z 000000018001a4c0 f i effects11:EffectNonRuntime.obj
 0001:000194d0       ?GetRawValue@?$TVariable@U?$TMember@UID3DX11EffectDepthStencilViewVariable@@@D3DX11Effects@@@D3DX11Effects@@UEAAJPEAXII@Z 000000018001a4d0 f i effects11:EffectNonRuntime.obj
 0001:000194e0       ?GetTopLevelEntity@?$TMember@UID3DX11EffectDepthStencilViewVariable@@@D3DX11Effects@@QEAAPEAU?$TTopLevelVariable@UID3DX11EffectVariable@@@2@XZ 000000018001a4e0 f i effects11:EffectNonRuntime.obj
 0001:000194f0       ?IsArray@?$TMember@UID3DX11EffectDepthStencilViewVariable@@@D3DX11Effects@@QEAAHXZ 000000018001a4f0 f i effects11:EffectNonRuntime.obj
 0001:00019510       ?GetMemberByIndex@?$TVariable@U?$TMember@UID3DX11EffectDepthStencilViewVariable@@@D3DX11Effects@@@D3DX11Effects@@UEAAPEAUID3DX11EffectVariable@@I@Z 000000018001a510 f i effects11:EffectNonRuntime.obj
 0001:000195a0       ?GetMemberByName@?$TVariable@U?$TMember@UID3DX11EffectDepthStencilViewVariable@@@D3DX11Effects@@@D3DX11Effects@@UEAAPEAUID3DX11EffectVariable@@PEBD@Z 000000018001a5a0 f i effects11:EffectNonRuntime.obj
 0001:00019760       ?GetMemberBySemantic@?$TVariable@U?$TMember@UID3DX11EffectDepthStencilViewVariable@@@D3DX11Effects@@@D3DX11Effects@@UEAAPEAUID3DX11EffectVariable@@PEBD@Z 000000018001a760 f i effects11:EffectNonRuntime.obj
 0001:00019840       ?GetElement@?$TVariable@U?$TMember@UID3DX11EffectDepthStencilViewVariable@@@D3DX11Effects@@@D3DX11Effects@@UEAAPEAUID3DX11EffectVariable@@I@Z 000000018001a840 f i effects11:EffectNonRuntime.obj
 0001:00019900       ??0?$TVariable@U?$TMember@UID3DX11EffectRenderTargetViewVariable@@@D3DX11Effects@@@D3DX11Effects@@QEAA@XZ 000000018001a900 f i effects11:EffectNonRuntime.obj
 0001:00019940       ?IsValid@?$TVariable@U?$TMember@UID3DX11EffectRenderTargetViewVariable@@@D3DX11Effects@@@D3DX11Effects@@UEAAHXZ 000000018001a940 f i effects11:EffectNonRuntime.obj
 0001:00019950       ?AsScalar@?$TVariable@U?$TMember@UID3DX11EffectRenderTargetViewVariable@@@D3DX11Effects@@@D3DX11Effects@@UEAAPEAUID3DX11EffectScalarVariable@@XZ 000000018001a950 f i effects11:EffectNonRuntime.obj
 0001:00019970       ?AsVector@?$TVariable@U?$TMember@UID3DX11EffectRenderTargetViewVariable@@@D3DX11Effects@@@D3DX11Effects@@UEAAPEAUID3DX11EffectVectorVariable@@XZ 000000018001a970 f i effects11:EffectNonRuntime.obj
 0001:00019990       ?AsMatrix@?$TVariable@U?$TMember@UID3DX11EffectRenderTargetViewVariable@@@D3DX11Effects@@@D3DX11Effects@@UEAAPEAUID3DX11EffectMatrixVariable@@XZ 000000018001a990 f i effects11:EffectNonRuntime.obj
 0001:000199b0       ?AsString@?$TVariable@U?$TMember@UID3DX11EffectRenderTargetViewVariable@@@D3DX11Effects@@@D3DX11Effects@@UEAAPEAUID3DX11EffectStringVariable@@XZ 000000018001a9b0 f i effects11:EffectNonRuntime.obj
 0001:000199d0       ?AsClassInstance@?$TVariable@U?$TMember@UID3DX11EffectRenderTargetViewVariable@@@D3DX11Effects@@@D3DX11Effects@@UEAAPEAUID3DX11EffectClassInstanceVariable@@XZ 000000018001a9d0 f i effects11:EffectNonRuntime.obj
 0001:00019a00       ?AsInterface@?$TVariable@U?$TMember@UID3DX11EffectRenderTargetViewVariable@@@D3DX11Effects@@@D3DX11Effects@@UEAAPEAUID3DX11EffectInterfaceVariable@@XZ 000000018001aa00 f i effects11:EffectNonRuntime.obj
 0001:00019a20       ?AsShaderResource@?$TVariable@U?$TMember@UID3DX11EffectRenderTargetViewVariable@@@D3DX11Effects@@@D3DX11Effects@@UEAAPEAUID3DX11EffectShaderResourceVariable@@XZ 000000018001aa20 f i effects11:EffectNonRuntime.obj
 0001:00019a80       ?AsUnorderedAccessView@?$TVariable@U?$TMember@UID3DX11EffectRenderTargetViewVariable@@@D3DX11Effects@@@D3DX11Effects@@UEAAPEAUID3DX11EffectUnorderedAccessViewVariable@@XZ 000000018001aa80 f i effects11:EffectNonRuntime.obj
 0001:00019ae0       ?AsRenderTargetView@?$TVariable@U?$TMember@UID3DX11EffectRenderTargetViewVariable@@@D3DX11Effects@@@D3DX11Effects@@UEAAPEAUID3DX11EffectRenderTargetViewVariable@@XZ 000000018001aae0 f i effects11:EffectNonRuntime.obj
 0001:00019b00       ?AsDepthStencilView@?$TVariable@U?$TMember@UID3DX11EffectRenderTargetViewVariable@@@D3DX11Effects@@@D3DX11Effects@@UEAAPEAUID3DX11EffectDepthStencilViewVariable@@XZ 000000018001ab00 f i effects11:EffectNonRuntime.obj
 0001:00019b20       ?AsConstantBuffer@?$TVariable@U?$TMember@UID3DX11EffectRenderTargetViewVariable@@@D3DX11Effects@@@D3DX11Effects@@UEAAPEAUID3DX11EffectConstantBuffer@@XZ 000000018001ab20 f i effects11:EffectNonRuntime.obj
 0001:00019b30       ?AsShader@?$TVariable@U?$TMember@UID3DX11EffectRenderTargetViewVariable@@@D3DX11Effects@@@D3DX11Effects@@UEAAPEAUID3DX11EffectShaderVariable@@XZ 000000018001ab30 f i effects11:EffectNonRuntime.obj
 0001:00019b80       ?AsBlend@?$TVariable@U?$TMember@UID3DX11EffectRenderTargetViewVariable@@@D3DX11Effects@@@D3DX11Effects@@UEAAPEAUID3DX11EffectBlendVariable@@XZ 000000018001ab80 f i effects11:EffectNonRuntime.obj
 0001:00019ba0       ?AsDepthStencil@?$TVariable@U?$TMember@UID3DX11EffectRenderTargetViewVariable@@@D3DX11Effects@@@D3DX11Effects@@UEAAPEAUID3DX11EffectDepthStencilVariable@@XZ 000000018001aba0 f i effects11:EffectNonRuntime.obj
 0001:00019bc0       ?AsRasterizer@?$TVariable@U?$TMember@UID3DX11EffectRenderTargetViewVariable@@@D3DX11Effects@@@D3DX11Effects@@UEAAPEAUID3DX11EffectRasterizerVariable@@XZ 000000018001abc0 f i effects11:EffectNonRuntime.obj
 0001:00019be0       ?AsSampler@?$TVariable@U?$TMember@UID3DX11EffectRenderTargetViewVariable@@@D3DX11Effects@@@D3DX11Effects@@UEAAPEAUID3DX11EffectSamplerVariable@@XZ 000000018001abe0 f i effects11:EffectNonRuntime.obj
 0001:00019c00       ?SetRawValue@?$TVariable@U?$TMember@UID3DX11EffectRenderTargetViewVariable@@@D3DX11Effects@@@D3DX11Effects@@UEAAJPEBXII@Z 000000018001ac00 f i effects11:EffectNonRuntime.obj
 0001:00019c10       ?GetRawValue@?$TVariable@U?$TMember@UID3DX11EffectRenderTargetViewVariable@@@D3DX11Effects@@@D3DX11Effects@@UEAAJPEAXII@Z 000000018001ac10 f i effects11:EffectNonRuntime.obj
 0001:00019c20       ?GetTopLevelEntity@?$TMember@UID3DX11EffectRenderTargetViewVariable@@@D3DX11Effects@@QEAAPEAU?$TTopLevelVariable@UID3DX11EffectVariable@@@2@XZ 000000018001ac20 f i effects11:EffectNonRuntime.obj
 0001:00019c30       ?IsArray@?$TMember@UID3DX11EffectRenderTargetViewVariable@@@D3DX11Effects@@QEAAHXZ 000000018001ac30 f i effects11:EffectNonRuntime.obj
 0001:00019c50       ?GetMemberByIndex@?$TVariable@U?$TMember@UID3DX11EffectRenderTargetViewVariable@@@D3DX11Effects@@@D3DX11Effects@@UEAAPEAUID3DX11EffectVariable@@I@Z 000000018001ac50 f i effects11:EffectNonRuntime.obj
 0001:00019ce0       ?GetMemberByName@?$TVariable@U?$TMember@UID3DX11EffectRenderTargetViewVariable@@@D3DX11Effects@@@D3DX11Effects@@UEAAPEAUID3DX11EffectVariable@@PEBD@Z 000000018001ace0 f i effects11:EffectNonRuntime.obj
 0001:00019ea0       ?GetMemberBySemantic@?$TVariable@U?$TMember@UID3DX11EffectRenderTargetViewVariable@@@D3DX11Effects@@@D3DX11Effects@@UEAAPEAUID3DX11EffectVariable@@PEBD@Z 000000018001aea0 f i effects11:EffectNonRuntime.obj
 0001:00019f80       ?GetElement@?$TVariable@U?$TMember@UID3DX11EffectRenderTargetViewVariable@@@D3DX11Effects@@@D3DX11Effects@@UEAAPEAUID3DX11EffectVariable@@I@Z 000000018001af80 f i effects11:EffectNonRuntime.obj
 0001:0001a040       ??0?$TVariable@U?$TMember@UID3DX11EffectMatrixVariable@@@D3DX11Effects@@@D3DX11Effects@@QEAA@XZ 000000018001b040 f i effects11:EffectNonRuntime.obj
 0001:0001a080       ?IsValid@?$TVariable@U?$TMember@UID3DX11EffectMatrixVariable@@@D3DX11Effects@@@D3DX11Effects@@UEAAHXZ 000000018001b080 f i effects11:EffectNonRuntime.obj
 0001:0001a090       ?AsScalar@?$TVariable@U?$TMember@UID3DX11EffectMatrixVariable@@@D3DX11Effects@@@D3DX11Effects@@UEAAPEAUID3DX11EffectScalarVariable@@XZ 000000018001b090 f i effects11:EffectNonRuntime.obj
 0001:0001a0b0       ?AsVector@?$TVariable@U?$TMember@UID3DX11EffectMatrixVariable@@@D3DX11Effects@@@D3DX11Effects@@UEAAPEAUID3DX11EffectVectorVariable@@XZ 000000018001b0b0 f i effects11:EffectNonRuntime.obj
 0001:0001a0d0       ?AsMatrix@?$TVariable@U?$TMember@UID3DX11EffectMatrixVariable@@@D3DX11Effects@@@D3DX11Effects@@UEAAPEAUID3DX11EffectMatrixVariable@@XZ 000000018001b0d0 f i effects11:EffectNonRuntime.obj
 0001:0001a0f0       ?AsString@?$TVariable@U?$TMember@UID3DX11EffectMatrixVariable@@@D3DX11Effects@@@D3DX11Effects@@UEAAPEAUID3DX11EffectStringVariable@@XZ 000000018001b0f0 f i effects11:EffectNonRuntime.obj
 0001:0001a110       ?AsClassInstance@?$TVariable@U?$TMember@UID3DX11EffectMatrixVariable@@@D3DX11Effects@@@D3DX11Effects@@UEAAPEAUID3DX11EffectClassInstanceVariable@@XZ 000000018001b110 f i effects11:EffectNonRuntime.obj
 0001:0001a140       ?AsInterface@?$TVariable@U?$TMember@UID3DX11EffectMatrixVariable@@@D3DX11Effects@@@D3DX11Effects@@UEAAPEAUID3DX11EffectInterfaceVariable@@XZ 000000018001b140 f i effects11:EffectNonRuntime.obj
 0001:0001a160       ?AsShaderResource@?$TVariable@U?$TMember@UID3DX11EffectMatrixVariable@@@D3DX11Effects@@@D3DX11Effects@@UEAAPEAUID3DX11EffectShaderResourceVariable@@XZ 000000018001b160 f i effects11:EffectNonRuntime.obj
 0001:0001a1c0       ?AsUnorderedAccessView@?$TVariable@U?$TMember@UID3DX11EffectMatrixVariable@@@D3DX11Effects@@@D3DX11Effects@@UEAAPEAUID3DX11EffectUnorderedAccessViewVariable@@XZ 000000018001b1c0 f i effects11:EffectNonRuntime.obj
 0001:0001a220       ?AsRenderTargetView@?$TVariable@U?$TMember@UID3DX11EffectMatrixVariable@@@D3DX11Effects@@@D3DX11Effects@@UEAAPEAUID3DX11EffectRenderTargetViewVariable@@XZ 000000018001b220 f i effects11:EffectNonRuntime.obj
 0001:0001a240       ?AsDepthStencilView@?$TVariable@U?$TMember@UID3DX11EffectMatrixVariable@@@D3DX11Effects@@@D3DX11Effects@@UEAAPEAUID3DX11EffectDepthStencilViewVariable@@XZ 000000018001b240 f i effects11:EffectNonRuntime.obj
 0001:0001a260       ?AsConstantBuffer@?$TVariable@U?$TMember@UID3DX11EffectMatrixVariable@@@D3DX11Effects@@@D3DX11Effects@@UEAAPEAUID3DX11EffectConstantBuffer@@XZ 000000018001b260 f i effects11:EffectNonRuntime.obj
 0001:0001a270       ?AsShader@?$TVariable@U?$TMember@UID3DX11EffectMatrixVariable@@@D3DX11Effects@@@D3DX11Effects@@UEAAPEAUID3DX11EffectShaderVariable@@XZ 000000018001b270 f i effects11:EffectNonRuntime.obj
 0001:0001a2c0       ?AsBlend@?$TVariable@U?$TMember@UID3DX11EffectMatrixVariable@@@D3DX11Effects@@@D3DX11Effects@@UEAAPEAUID3DX11EffectBlendVariable@@XZ 000000018001b2c0 f i effects11:EffectNonRuntime.obj
 0001:0001a2e0       ?AsDepthStencil@?$TVariable@U?$TMember@UID3DX11EffectMatrixVariable@@@D3DX11Effects@@@D3DX11Effects@@UEAAPEAUID3DX11EffectDepthStencilVariable@@XZ 000000018001b2e0 f i effects11:EffectNonRuntime.obj
 0001:0001a300       ?AsRasterizer@?$TVariable@U?$TMember@UID3DX11EffectMatrixVariable@@@D3DX11Effects@@@D3DX11Effects@@UEAAPEAUID3DX11EffectRasterizerVariable@@XZ 000000018001b300 f i effects11:EffectNonRuntime.obj
 0001:0001a320       ?AsSampler@?$TVariable@U?$TMember@UID3DX11EffectMatrixVariable@@@D3DX11Effects@@@D3DX11Effects@@UEAAPEAUID3DX11EffectSamplerVariable@@XZ 000000018001b320 f i effects11:EffectNonRuntime.obj
 0001:0001a340       ?SetRawValue@?$TVariable@U?$TMember@UID3DX11EffectMatrixVariable@@@D3DX11Effects@@@D3DX11Effects@@UEAAJPEBXII@Z 000000018001b340 f i effects11:EffectNonRuntime.obj
 0001:0001a350       ?GetRawValue@?$TVariable@U?$TMember@UID3DX11EffectMatrixVariable@@@D3DX11Effects@@@D3DX11Effects@@UEAAJPEAXII@Z 000000018001b350 f i effects11:EffectNonRuntime.obj
 0001:0001a360       ?GetTopLevelEntity@?$TMember@UID3DX11EffectMatrixVariable@@@D3DX11Effects@@QEAAPEAU?$TTopLevelVariable@UID3DX11EffectVariable@@@2@XZ 000000018001b360 f i effects11:EffectNonRuntime.obj
 0001:0001a370       ?IsArray@?$TMember@UID3DX11EffectMatrixVariable@@@D3DX11Effects@@QEAAHXZ 000000018001b370 f i effects11:EffectNonRuntime.obj
 0001:0001a390       ?GetMemberByIndex@?$TVariable@U?$TMember@UID3DX11EffectMatrixVariable@@@D3DX11Effects@@@D3DX11Effects@@UEAAPEAUID3DX11EffectVariable@@I@Z 000000018001b390 f i effects11:EffectNonRuntime.obj
 0001:0001a420       ?GetMemberByName@?$TVariable@U?$TMember@UID3DX11EffectMatrixVariable@@@D3DX11Effects@@@D3DX11Effects@@UEAAPEAUID3DX11EffectVariable@@PEBD@Z 000000018001b420 f i effects11:EffectNonRuntime.obj
 0001:0001a5e0       ?GetMemberBySemantic@?$TVariable@U?$TMember@UID3DX11EffectMatrixVariable@@@D3DX11Effects@@@D3DX11Effects@@UEAAPEAUID3DX11EffectVariable@@PEBD@Z 000000018001b5e0 f i effects11:EffectNonRuntime.obj
 0001:0001a6c0       ?GetElement@?$TVariable@U?$TMember@UID3DX11EffectMatrixVariable@@@D3DX11Effects@@@D3DX11Effects@@UEAAPEAUID3DX11EffectVariable@@I@Z 000000018001b6c0 f i effects11:EffectNonRuntime.obj
 0001:0001a780       ??0?$TVariable@U?$TMember@UID3DX11EffectVectorVariable@@@D3DX11Effects@@@D3DX11Effects@@QEAA@XZ 000000018001b780 f i effects11:EffectNonRuntime.obj
 0001:0001a7c0       ?IsValid@?$TVariable@U?$TMember@UID3DX11EffectVectorVariable@@@D3DX11Effects@@@D3DX11Effects@@UEAAHXZ 000000018001b7c0 f i effects11:EffectNonRuntime.obj
 0001:0001a7d0       ?AsScalar@?$TVariable@U?$TMember@UID3DX11EffectVectorVariable@@@D3DX11Effects@@@D3DX11Effects@@UEAAPEAUID3DX11EffectScalarVariable@@XZ 000000018001b7d0 f i effects11:EffectNonRuntime.obj
 0001:0001a7f0       ?AsVector@?$TVariable@U?$TMember@UID3DX11EffectVectorVariable@@@D3DX11Effects@@@D3DX11Effects@@UEAAPEAUID3DX11EffectVectorVariable@@XZ 000000018001b7f0 f i effects11:EffectNonRuntime.obj
 0001:0001a810       ?AsMatrix@?$TVariable@U?$TMember@UID3DX11EffectVectorVariable@@@D3DX11Effects@@@D3DX11Effects@@UEAAPEAUID3DX11EffectMatrixVariable@@XZ 000000018001b810 f i effects11:EffectNonRuntime.obj
 0001:0001a830       ?AsString@?$TVariable@U?$TMember@UID3DX11EffectVectorVariable@@@D3DX11Effects@@@D3DX11Effects@@UEAAPEAUID3DX11EffectStringVariable@@XZ 000000018001b830 f i effects11:EffectNonRuntime.obj
 0001:0001a850       ?AsClassInstance@?$TVariable@U?$TMember@UID3DX11EffectVectorVariable@@@D3DX11Effects@@@D3DX11Effects@@UEAAPEAUID3DX11EffectClassInstanceVariable@@XZ 000000018001b850 f i effects11:EffectNonRuntime.obj
 0001:0001a880       ?AsInterface@?$TVariable@U?$TMember@UID3DX11EffectVectorVariable@@@D3DX11Effects@@@D3DX11Effects@@UEAAPEAUID3DX11EffectInterfaceVariable@@XZ 000000018001b880 f i effects11:EffectNonRuntime.obj
 0001:0001a8a0       ?AsShaderResource@?$TVariable@U?$TMember@UID3DX11EffectVectorVariable@@@D3DX11Effects@@@D3DX11Effects@@UEAAPEAUID3DX11EffectShaderResourceVariable@@XZ 000000018001b8a0 f i effects11:EffectNonRuntime.obj
 0001:0001a900       ?AsUnorderedAccessView@?$TVariable@U?$TMember@UID3DX11EffectVectorVariable@@@D3DX11Effects@@@D3DX11Effects@@UEAAPEAUID3DX11EffectUnorderedAccessViewVariable@@XZ 000000018001b900 f i effects11:EffectNonRuntime.obj
 0001:0001a960       ?AsRenderTargetView@?$TVariable@U?$TMember@UID3DX11EffectVectorVariable@@@D3DX11Effects@@@D3DX11Effects@@UEAAPEAUID3DX11EffectRenderTargetViewVariable@@XZ 000000018001b960 f i effects11:EffectNonRuntime.obj
 0001:0001a980       ?AsDepthStencilView@?$TVariable@U?$TMember@UID3DX11EffectVectorVariable@@@D3DX11Effects@@@D3DX11Effects@@UEAAPEAUID3DX11EffectDepthStencilViewVariable@@XZ 000000018001b980 f i effects11:EffectNonRuntime.obj
 0001:0001a9a0       ?AsConstantBuffer@?$TVariable@U?$TMember@UID3DX11EffectVectorVariable@@@D3DX11Effects@@@D3DX11Effects@@UEAAPEAUID3DX11EffectConstantBuffer@@XZ 000000018001b9a0 f i effects11:EffectNonRuntime.obj
 0001:0001a9b0       ?AsShader@?$TVariable@U?$TMember@UID3DX11EffectVectorVariable@@@D3DX11Effects@@@D3DX11Effects@@UEAAPEAUID3DX11EffectShaderVariable@@XZ 000000018001b9b0 f i effects11:EffectNonRuntime.obj
 0001:0001aa00       ?AsBlend@?$TVariable@U?$TMember@UID3DX11EffectVectorVariable@@@D3DX11Effects@@@D3DX11Effects@@UEAAPEAUID3DX11EffectBlendVariable@@XZ 000000018001ba00 f i effects11:EffectNonRuntime.obj
 0001:0001aa20       ?AsDepthStencil@?$TVariable@U?$TMember@UID3DX11EffectVectorVariable@@@D3DX11Effects@@@D3DX11Effects@@UEAAPEAUID3DX11EffectDepthStencilVariable@@XZ 000000018001ba20 f i effects11:EffectNonRuntime.obj
 0001:0001aa40       ?AsRasterizer@?$TVariable@U?$TMember@UID3DX11EffectVectorVariable@@@D3DX11Effects@@@D3DX11Effects@@UEAAPEAUID3DX11EffectRasterizerVariable@@XZ 000000018001ba40 f i effects11:EffectNonRuntime.obj
 0001:0001aa60       ?AsSampler@?$TVariable@U?$TMember@UID3DX11EffectVectorVariable@@@D3DX11Effects@@@D3DX11Effects@@UEAAPEAUID3DX11EffectSamplerVariable@@XZ 000000018001ba60 f i effects11:EffectNonRuntime.obj
 0001:0001aa80       ?SetRawValue@?$TVariable@U?$TMember@UID3DX11EffectVectorVariable@@@D3DX11Effects@@@D3DX11Effects@@UEAAJPEBXII@Z 000000018001ba80 f i effects11:EffectNonRuntime.obj
 0001:0001aa90       ?GetRawValue@?$TVariable@U?$TMember@UID3DX11EffectVectorVariable@@@D3DX11Effects@@@D3DX11Effects@@UEAAJPEAXII@Z 000000018001ba90 f i effects11:EffectNonRuntime.obj
 0001:0001aaa0       ?GetTopLevelEntity@?$TMember@UID3DX11EffectVectorVariable@@@D3DX11Effects@@QEAAPEAU?$TTopLevelVariable@UID3DX11EffectVariable@@@2@XZ 000000018001baa0 f i effects11:EffectNonRuntime.obj
 0001:0001aab0       ?IsArray@?$TMember@UID3DX11EffectVectorVariable@@@D3DX11Effects@@QEAAHXZ 000000018001bab0 f i effects11:EffectNonRuntime.obj
 0001:0001aad0       ?GetMemberByIndex@?$TVariable@U?$TMember@UID3DX11EffectVectorVariable@@@D3DX11Effects@@@D3DX11Effects@@UEAAPEAUID3DX11EffectVariable@@I@Z 000000018001bad0 f i effects11:EffectNonRuntime.obj
 0001:0001ab60       ?GetMemberByName@?$TVariable@U?$TMember@UID3DX11EffectVectorVariable@@@D3DX11Effects@@@D3DX11Effects@@UEAAPEAUID3DX11EffectVariable@@PEBD@Z 000000018001bb60 f i effects11:EffectNonRuntime.obj
 0001:0001ad20       ?GetMemberBySemantic@?$TVariable@U?$TMember@UID3DX11EffectVectorVariable@@@D3DX11Effects@@@D3DX11Effects@@UEAAPEAUID3DX11EffectVariable@@PEBD@Z 000000018001bd20 f i effects11:EffectNonRuntime.obj
 0001:0001ae00       ?GetElement@?$TVariable@U?$TMember@UID3DX11EffectVectorVariable@@@D3DX11Effects@@@D3DX11Effects@@UEAAPEAUID3DX11EffectVariable@@I@Z 000000018001be00 f i effects11:EffectNonRuntime.obj
 0001:0001aec0       ??0?$TVariable@U?$TMember@UID3DX11EffectScalarVariable@@@D3DX11Effects@@@D3DX11Effects@@QEAA@XZ 000000018001bec0 f i effects11:EffectNonRuntime.obj
 0001:0001af00       ?IsValid@?$TVariable@U?$TMember@UID3DX11EffectScalarVariable@@@D3DX11Effects@@@D3DX11Effects@@UEAAHXZ 000000018001bf00 f i effects11:EffectNonRuntime.obj
 0001:0001af10       ?AsScalar@?$TVariable@U?$TMember@UID3DX11EffectScalarVariable@@@D3DX11Effects@@@D3DX11Effects@@UEAAPEAUID3DX11EffectScalarVariable@@XZ 000000018001bf10 f i effects11:EffectNonRuntime.obj
 0001:0001af30       ?AsVector@?$TVariable@U?$TMember@UID3DX11EffectScalarVariable@@@D3DX11Effects@@@D3DX11Effects@@UEAAPEAUID3DX11EffectVectorVariable@@XZ 000000018001bf30 f i effects11:EffectNonRuntime.obj
 0001:0001af50       ?AsMatrix@?$TVariable@U?$TMember@UID3DX11EffectScalarVariable@@@D3DX11Effects@@@D3DX11Effects@@UEAAPEAUID3DX11EffectMatrixVariable@@XZ 000000018001bf50 f i effects11:EffectNonRuntime.obj
 0001:0001af70       ?AsString@?$TVariable@U?$TMember@UID3DX11EffectScalarVariable@@@D3DX11Effects@@@D3DX11Effects@@UEAAPEAUID3DX11EffectStringVariable@@XZ 000000018001bf70 f i effects11:EffectNonRuntime.obj
 0001:0001af90       ?AsClassInstance@?$TVariable@U?$TMember@UID3DX11EffectScalarVariable@@@D3DX11Effects@@@D3DX11Effects@@UEAAPEAUID3DX11EffectClassInstanceVariable@@XZ 000000018001bf90 f i effects11:EffectNonRuntime.obj
 0001:0001afc0       ?AsInterface@?$TVariable@U?$TMember@UID3DX11EffectScalarVariable@@@D3DX11Effects@@@D3DX11Effects@@UEAAPEAUID3DX11EffectInterfaceVariable@@XZ 000000018001bfc0 f i effects11:EffectNonRuntime.obj
 0001:0001afe0       ?AsShaderResource@?$TVariable@U?$TMember@UID3DX11EffectScalarVariable@@@D3DX11Effects@@@D3DX11Effects@@UEAAPEAUID3DX11EffectShaderResourceVariable@@XZ 000000018001bfe0 f i effects11:EffectNonRuntime.obj
 0001:0001b040       ?AsUnorderedAccessView@?$TVariable@U?$TMember@UID3DX11EffectScalarVariable@@@D3DX11Effects@@@D3DX11Effects@@UEAAPEAUID3DX11EffectUnorderedAccessViewVariable@@XZ 000000018001c040 f i effects11:EffectNonRuntime.obj
 0001:0001b0a0       ?AsRenderTargetView@?$TVariable@U?$TMember@UID3DX11EffectScalarVariable@@@D3DX11Effects@@@D3DX11Effects@@UEAAPEAUID3DX11EffectRenderTargetViewVariable@@XZ 000000018001c0a0 f i effects11:EffectNonRuntime.obj
 0001:0001b0c0       ?AsDepthStencilView@?$TVariable@U?$TMember@UID3DX11EffectScalarVariable@@@D3DX11Effects@@@D3DX11Effects@@UEAAPEAUID3DX11EffectDepthStencilViewVariable@@XZ 000000018001c0c0 f i effects11:EffectNonRuntime.obj
 0001:0001b0e0       ?AsConstantBuffer@?$TVariable@U?$TMember@UID3DX11EffectScalarVariable@@@D3DX11Effects@@@D3DX11Effects@@UEAAPEAUID3DX11EffectConstantBuffer@@XZ 000000018001c0e0 f i effects11:EffectNonRuntime.obj
 0001:0001b0f0       ?AsShader@?$TVariable@U?$TMember@UID3DX11EffectScalarVariable@@@D3DX11Effects@@@D3DX11Effects@@UEAAPEAUID3DX11EffectShaderVariable@@XZ 000000018001c0f0 f i effects11:EffectNonRuntime.obj
 0001:0001b140       ?AsBlend@?$TVariable@U?$TMember@UID3DX11EffectScalarVariable@@@D3DX11Effects@@@D3DX11Effects@@UEAAPEAUID3DX11EffectBlendVariable@@XZ 000000018001c140 f i effects11:EffectNonRuntime.obj
 0001:0001b160       ?AsDepthStencil@?$TVariable@U?$TMember@UID3DX11EffectScalarVariable@@@D3DX11Effects@@@D3DX11Effects@@UEAAPEAUID3DX11EffectDepthStencilVariable@@XZ 000000018001c160 f i effects11:EffectNonRuntime.obj
 0001:0001b180       ?AsRasterizer@?$TVariable@U?$TMember@UID3DX11EffectScalarVariable@@@D3DX11Effects@@@D3DX11Effects@@UEAAPEAUID3DX11EffectRasterizerVariable@@XZ 000000018001c180 f i effects11:EffectNonRuntime.obj
 0001:0001b1a0       ?AsSampler@?$TVariable@U?$TMember@UID3DX11EffectScalarVariable@@@D3DX11Effects@@@D3DX11Effects@@UEAAPEAUID3DX11EffectSamplerVariable@@XZ 000000018001c1a0 f i effects11:EffectNonRuntime.obj
 0001:0001b1c0       ?SetRawValue@?$TVariable@U?$TMember@UID3DX11EffectScalarVariable@@@D3DX11Effects@@@D3DX11Effects@@UEAAJPEBXII@Z 000000018001c1c0 f i effects11:EffectNonRuntime.obj
 0001:0001b1d0       ?GetRawValue@?$TVariable@U?$TMember@UID3DX11EffectScalarVariable@@@D3DX11Effects@@@D3DX11Effects@@UEAAJPEAXII@Z 000000018001c1d0 f i effects11:EffectNonRuntime.obj
 0001:0001b1e0       ?GetTopLevelEntity@?$TMember@UID3DX11EffectScalarVariable@@@D3DX11Effects@@QEAAPEAU?$TTopLevelVariable@UID3DX11EffectVariable@@@2@XZ 000000018001c1e0 f i effects11:EffectNonRuntime.obj
 0001:0001b1f0       ?IsArray@?$TMember@UID3DX11EffectScalarVariable@@@D3DX11Effects@@QEAAHXZ 000000018001c1f0 f i effects11:EffectNonRuntime.obj
 0001:0001b210       ?GetMemberByIndex@?$TVariable@U?$TMember@UID3DX11EffectScalarVariable@@@D3DX11Effects@@@D3DX11Effects@@UEAAPEAUID3DX11EffectVariable@@I@Z 000000018001c210 f i effects11:EffectNonRuntime.obj
 0001:0001b2a0       ?GetMemberByName@?$TVariable@U?$TMember@UID3DX11EffectScalarVariable@@@D3DX11Effects@@@D3DX11Effects@@UEAAPEAUID3DX11EffectVariable@@PEBD@Z 000000018001c2a0 f i effects11:EffectNonRuntime.obj
 0001:0001b460       ?GetMemberBySemantic@?$TVariable@U?$TMember@UID3DX11EffectScalarVariable@@@D3DX11Effects@@@D3DX11Effects@@UEAAPEAUID3DX11EffectVariable@@PEBD@Z 000000018001c460 f i effects11:EffectNonRuntime.obj
 0001:0001b540       ?GetElement@?$TVariable@U?$TMember@UID3DX11EffectScalarVariable@@@D3DX11Effects@@@D3DX11Effects@@UEAAPEAUID3DX11EffectVariable@@I@Z 000000018001c540 f i effects11:EffectNonRuntime.obj
 0001:0001b600       ??0?$TNumericVariable@U?$TGlobalVariable@UID3DX11EffectVariable@@@D3DX11Effects@@$0A@@D3DX11Effects@@QEAA@XZ 000000018001c600 f i effects11:EffectNonRuntime.obj
 0001:0001b650       ?GetRawValue@?$TNumericVariable@U?$TGlobalVariable@UID3DX11EffectVariable@@@D3DX11Effects@@$0A@@D3DX11Effects@@UEAAJPEAXII@Z 000000018001c650 f i effects11:EffectNonRuntime.obj
 0001:0001b680       ?SetRawValue@?$TNumericVariable@U?$TGlobalVariable@UID3DX11EffectVariable@@@D3DX11Effects@@$0A@@D3DX11Effects@@UEAAJPEBXII@Z 000000018001c680 f i effects11:EffectNonRuntime.obj
 0001:0001b6c0       ??0?$TAnnotation@UID3DX11EffectVariable@@@D3DX11Effects@@QEAA@XZ 000000018001c6c0 f i effects11:EffectNonRuntime.obj
 0001:0001b700       ?GetDesc@?$TAnnotation@UID3DX11EffectVariable@@@D3DX11Effects@@UEAAJPEAU_D3DX11_EFFECT_VARIABLE_DESC@@@Z 000000018001c700 f i effects11:EffectNonRuntime.obj
 0001:0001b740       ?GetAnnotationByIndex@?$TAnnotation@UID3DX11EffectVariable@@@D3DX11Effects@@UEAAPEAUID3DX11EffectVariable@@I@Z 000000018001c740 f i effects11:EffectNonRuntime.obj
 0001:0001b750       ?GetAnnotationByName@?$TAnnotation@UID3DX11EffectVariable@@@D3DX11Effects@@UEAAPEAUID3DX11EffectVariable@@PEBD@Z 000000018001c750 f i effects11:EffectNonRuntime.obj
 0001:0001b760       ?GetParentConstantBuffer@?$TAnnotation@UID3DX11EffectVariable@@@D3DX11Effects@@UEAAPEAUID3DX11EffectConstantBuffer@@XZ 000000018001c760 f i effects11:EffectNonRuntime.obj
 0001:0001b770       ??0?$TVariable@U?$TTopLevelVariable@UID3DX11EffectStringVariable@@@D3DX11Effects@@@D3DX11Effects@@QEAA@XZ 000000018001c770 f i effects11:EffectNonRuntime.obj
 0001:0001b7b0       ?IsValid@?$TVariable@U?$TTopLevelVariable@UID3DX11EffectStringVariable@@@D3DX11Effects@@@D3DX11Effects@@UEAAHXZ 000000018001c7b0 f i effects11:EffectNonRuntime.obj
 0001:0001b7c0       ?AsScalar@?$TVariable@U?$TTopLevelVariable@UID3DX11EffectStringVariable@@@D3DX11Effects@@@D3DX11Effects@@UEAAPEAUID3DX11EffectScalarVariable@@XZ 000000018001c7c0 f i effects11:EffectNonRuntime.obj
 0001:0001b7e0       ?AsVector@?$TVariable@U?$TTopLevelVariable@UID3DX11EffectStringVariable@@@D3DX11Effects@@@D3DX11Effects@@UEAAPEAUID3DX11EffectVectorVariable@@XZ 000000018001c7e0 f i effects11:EffectNonRuntime.obj
 0001:0001b800       ?AsMatrix@?$TVariable@U?$TTopLevelVariable@UID3DX11EffectStringVariable@@@D3DX11Effects@@@D3DX11Effects@@UEAAPEAUID3DX11EffectMatrixVariable@@XZ 000000018001c800 f i effects11:EffectNonRuntime.obj
 0001:0001b820       ?AsString@?$TVariable@U?$TTopLevelVariable@UID3DX11EffectStringVariable@@@D3DX11Effects@@@D3DX11Effects@@UEAAPEAUID3DX11EffectStringVariable@@XZ 000000018001c820 f i effects11:EffectNonRuntime.obj
 0001:0001b840       ?AsClassInstance@?$TVariable@U?$TTopLevelVariable@UID3DX11EffectStringVariable@@@D3DX11Effects@@@D3DX11Effects@@UEAAPEAUID3DX11EffectClassInstanceVariable@@XZ 000000018001c840 f i effects11:EffectNonRuntime.obj
 0001:0001b870       ?AsInterface@?$TVariable@U?$TTopLevelVariable@UID3DX11EffectStringVariable@@@D3DX11Effects@@@D3DX11Effects@@UEAAPEAUID3DX11EffectInterfaceVariable@@XZ 000000018001c870 f i effects11:EffectNonRuntime.obj
 0001:0001b890       ?AsShaderResource@?$TVariable@U?$TTopLevelVariable@UID3DX11EffectStringVariable@@@D3DX11Effects@@@D3DX11Effects@@UEAAPEAUID3DX11EffectShaderResourceVariable@@XZ 000000018001c890 f i effects11:EffectNonRuntime.obj
 0001:0001b8f0       ?AsUnorderedAccessView@?$TVariable@U?$TTopLevelVariable@UID3DX11EffectStringVariable@@@D3DX11Effects@@@D3DX11Effects@@UEAAPEAUID3DX11EffectUnorderedAccessViewVariable@@XZ 000000018001c8f0 f i effects11:EffectNonRuntime.obj
 0001:0001b950       ?AsRenderTargetView@?$TVariable@U?$TTopLevelVariable@UID3DX11EffectStringVariable@@@D3DX11Effects@@@D3DX11Effects@@UEAAPEAUID3DX11EffectRenderTargetViewVariable@@XZ 000000018001c950 f i effects11:EffectNonRuntime.obj
 0001:0001b970       ?AsDepthStencilView@?$TVariable@U?$TTopLevelVariable@UID3DX11EffectStringVariable@@@D3DX11Effects@@@D3DX11Effects@@UEAAPEAUID3DX11EffectDepthStencilViewVariable@@XZ 000000018001c970 f i effects11:EffectNonRuntime.obj
 0001:0001b990       ?AsConstantBuffer@?$TVariable@U?$TTopLevelVariable@UID3DX11EffectStringVariable@@@D3DX11Effects@@@D3DX11Effects@@UEAAPEAUID3DX11EffectConstantBuffer@@XZ 000000018001c990 f i effects11:EffectNonRuntime.obj
 0001:0001b9a0       ?AsShader@?$TVariable@U?$TTopLevelVariable@UID3DX11EffectStringVariable@@@D3DX11Effects@@@D3DX11Effects@@UEAAPEAUID3DX11EffectShaderVariable@@XZ 000000018001c9a0 f i effects11:EffectNonRuntime.obj
 0001:0001b9f0       ?AsBlend@?$TVariable@U?$TTopLevelVariable@UID3DX11EffectStringVariable@@@D3DX11Effects@@@D3DX11Effects@@UEAAPEAUID3DX11EffectBlendVariable@@XZ 000000018001c9f0 f i effects11:EffectNonRuntime.obj
 0001:0001ba10       ?AsDepthStencil@?$TVariable@U?$TTopLevelVariable@UID3DX11EffectStringVariable@@@D3DX11Effects@@@D3DX11Effects@@UEAAPEAUID3DX11EffectDepthStencilVariable@@XZ 000000018001ca10 f i effects11:EffectNonRuntime.obj
 0001:0001ba30       ?AsRasterizer@?$TVariable@U?$TTopLevelVariable@UID3DX11EffectStringVariable@@@D3DX11Effects@@@D3DX11Effects@@UEAAPEAUID3DX11EffectRasterizerVariable@@XZ 000000018001ca30 f i effects11:EffectNonRuntime.obj
 0001:0001ba50       ?AsSampler@?$TVariable@U?$TTopLevelVariable@UID3DX11EffectStringVariable@@@D3DX11Effects@@@D3DX11Effects@@UEAAPEAUID3DX11EffectSamplerVariable@@XZ 000000018001ca50 f i effects11:EffectNonRuntime.obj
 0001:0001ba70       ?SetRawValue@?$TVariable@U?$TTopLevelVariable@UID3DX11EffectStringVariable@@@D3DX11Effects@@@D3DX11Effects@@UEAAJPEBXII@Z 000000018001ca70 f i effects11:EffectNonRuntime.obj
 0001:0001ba80       ?GetRawValue@?$TVariable@U?$TTopLevelVariable@UID3DX11EffectStringVariable@@@D3DX11Effects@@@D3DX11Effects@@UEAAJPEAXII@Z 000000018001ca80 f i effects11:EffectNonRuntime.obj
 0001:0001ba90       ?GetTopLevelEntity@?$TTopLevelVariable@UID3DX11EffectStringVariable@@@D3DX11Effects@@QEAAPEAU?$TTopLevelVariable@UID3DX11EffectVariable@@@2@XZ 000000018001ca90 f i effects11:EffectNonRuntime.obj
 0001:0001baa0       ?IsArray@?$TTopLevelVariable@UID3DX11EffectStringVariable@@@D3DX11Effects@@QEAAHXZ 000000018001caa0 f i effects11:EffectNonRuntime.obj
 0001:0001bab0       ?GetMemberByIndex@?$TVariable@U?$TTopLevelVariable@UID3DX11EffectStringVariable@@@D3DX11Effects@@@D3DX11Effects@@UEAAPEAUID3DX11EffectVariable@@I@Z 000000018001cab0 f i effects11:EffectNonRuntime.obj
 0001:0001bb30       ?GetMemberByName@?$TVariable@U?$TTopLevelVariable@UID3DX11EffectStringVariable@@@D3DX11Effects@@@D3DX11Effects@@UEAAPEAUID3DX11EffectVariable@@PEBD@Z 000000018001cb30 f i effects11:EffectNonRuntime.obj
 0001:0001bcf0       ?GetMemberBySemantic@?$TVariable@U?$TTopLevelVariable@UID3DX11EffectStringVariable@@@D3DX11Effects@@@D3DX11Effects@@UEAAPEAUID3DX11EffectVariable@@PEBD@Z 000000018001ccf0 f i effects11:EffectNonRuntime.obj
 0001:0001bdd0       ?GetElement@?$TVariable@U?$TTopLevelVariable@UID3DX11EffectStringVariable@@@D3DX11Effects@@@D3DX11Effects@@UEAAPEAUID3DX11EffectVariable@@I@Z 000000018001cdd0 f i effects11:EffectNonRuntime.obj
 0001:0001be70       ??0?$TVariable@U?$TTopLevelVariable@UID3DX11EffectMatrixVariable@@@D3DX11Effects@@@D3DX11Effects@@QEAA@XZ 000000018001ce70 f i effects11:EffectNonRuntime.obj
 0001:0001beb0       ?IsValid@?$TVariable@U?$TTopLevelVariable@UID3DX11EffectMatrixVariable@@@D3DX11Effects@@@D3DX11Effects@@UEAAHXZ 000000018001ceb0 f i effects11:EffectNonRuntime.obj
 0001:0001bec0       ?AsScalar@?$TVariable@U?$TTopLevelVariable@UID3DX11EffectMatrixVariable@@@D3DX11Effects@@@D3DX11Effects@@UEAAPEAUID3DX11EffectScalarVariable@@XZ 000000018001cec0 f i effects11:EffectNonRuntime.obj
 0001:0001bee0       ?AsVector@?$TVariable@U?$TTopLevelVariable@UID3DX11EffectMatrixVariable@@@D3DX11Effects@@@D3DX11Effects@@UEAAPEAUID3DX11EffectVectorVariable@@XZ 000000018001cee0 f i effects11:EffectNonRuntime.obj
 0001:0001bf00       ?AsMatrix@?$TVariable@U?$TTopLevelVariable@UID3DX11EffectMatrixVariable@@@D3DX11Effects@@@D3DX11Effects@@UEAAPEAUID3DX11EffectMatrixVariable@@XZ 000000018001cf00 f i effects11:EffectNonRuntime.obj
 0001:0001bf20       ?AsString@?$TVariable@U?$TTopLevelVariable@UID3DX11EffectMatrixVariable@@@D3DX11Effects@@@D3DX11Effects@@UEAAPEAUID3DX11EffectStringVariable@@XZ 000000018001cf20 f i effects11:EffectNonRuntime.obj
 0001:0001bf40       ?AsClassInstance@?$TVariable@U?$TTopLevelVariable@UID3DX11EffectMatrixVariable@@@D3DX11Effects@@@D3DX11Effects@@UEAAPEAUID3DX11EffectClassInstanceVariable@@XZ 000000018001cf40 f i effects11:EffectNonRuntime.obj
 0001:0001bf70       ?AsInterface@?$TVariable@U?$TTopLevelVariable@UID3DX11EffectMatrixVariable@@@D3DX11Effects@@@D3DX11Effects@@UEAAPEAUID3DX11EffectInterfaceVariable@@XZ 000000018001cf70 f i effects11:EffectNonRuntime.obj
 0001:0001bf90       ?AsShaderResource@?$TVariable@U?$TTopLevelVariable@UID3DX11EffectMatrixVariable@@@D3DX11Effects@@@D3DX11Effects@@UEAAPEAUID3DX11EffectShaderResourceVariable@@XZ 000000018001cf90 f i effects11:EffectNonRuntime.obj
 0001:0001bff0       ?AsUnorderedAccessView@?$TVariable@U?$TTopLevelVariable@UID3DX11EffectMatrixVariable@@@D3DX11Effects@@@D3DX11Effects@@UEAAPEAUID3DX11EffectUnorderedAccessViewVariable@@XZ 000000018001cff0 f i effects11:EffectNonRuntime.obj
 0001:0001c050       ?AsRenderTargetView@?$TVariable@U?$TTopLevelVariable@UID3DX11EffectMatrixVariable@@@D3DX11Effects@@@D3DX11Effects@@UEAAPEAUID3DX11EffectRenderTargetViewVariable@@XZ 000000018001d050 f i effects11:EffectNonRuntime.obj
 0001:0001c070       ?AsDepthStencilView@?$TVariable@U?$TTopLevelVariable@UID3DX11EffectMatrixVariable@@@D3DX11Effects@@@D3DX11Effects@@UEAAPEAUID3DX11EffectDepthStencilViewVariable@@XZ 000000018001d070 f i effects11:EffectNonRuntime.obj
 0001:0001c090       ?AsConstantBuffer@?$TVariable@U?$TTopLevelVariable@UID3DX11EffectMatrixVariable@@@D3DX11Effects@@@D3DX11Effects@@UEAAPEAUID3DX11EffectConstantBuffer@@XZ 000000018001d090 f i effects11:EffectNonRuntime.obj
 0001:0001c0a0       ?AsShader@?$TVariable@U?$TTopLevelVariable@UID3DX11EffectMatrixVariable@@@D3DX11Effects@@@D3DX11Effects@@UEAAPEAUID3DX11EffectShaderVariable@@XZ 000000018001d0a0 f i effects11:EffectNonRuntime.obj
 0001:0001c0f0       ?AsBlend@?$TVariable@U?$TTopLevelVariable@UID3DX11EffectMatrixVariable@@@D3DX11Effects@@@D3DX11Effects@@UEAAPEAUID3DX11EffectBlendVariable@@XZ 000000018001d0f0 f i effects11:EffectNonRuntime.obj
 0001:0001c110       ?AsDepthStencil@?$TVariable@U?$TTopLevelVariable@UID3DX11EffectMatrixVariable@@@D3DX11Effects@@@D3DX11Effects@@UEAAPEAUID3DX11EffectDepthStencilVariable@@XZ 000000018001d110 f i effects11:EffectNonRuntime.obj
 0001:0001c130       ?AsRasterizer@?$TVariable@U?$TTopLevelVariable@UID3DX11EffectMatrixVariable@@@D3DX11Effects@@@D3DX11Effects@@UEAAPEAUID3DX11EffectRasterizerVariable@@XZ 000000018001d130 f i effects11:EffectNonRuntime.obj
 0001:0001c150       ?AsSampler@?$TVariable@U?$TTopLevelVariable@UID3DX11EffectMatrixVariable@@@D3DX11Effects@@@D3DX11Effects@@UEAAPEAUID3DX11EffectSamplerVariable@@XZ 000000018001d150 f i effects11:EffectNonRuntime.obj
 0001:0001c170       ?SetRawValue@?$TVariable@U?$TTopLevelVariable@UID3DX11EffectMatrixVariable@@@D3DX11Effects@@@D3DX11Effects@@UEAAJPEBXII@Z 000000018001d170 f i effects11:EffectNonRuntime.obj
 0001:0001c180       ?GetRawValue@?$TVariable@U?$TTopLevelVariable@UID3DX11EffectMatrixVariable@@@D3DX11Effects@@@D3DX11Effects@@UEAAJPEAXII@Z 000000018001d180 f i effects11:EffectNonRuntime.obj
 0001:0001c190       ?GetTopLevelEntity@?$TTopLevelVariable@UID3DX11EffectMatrixVariable@@@D3DX11Effects@@QEAAPEAU?$TTopLevelVariable@UID3DX11EffectVariable@@@2@XZ 000000018001d190 f i effects11:EffectNonRuntime.obj
 0001:0001c1a0       ?IsArray@?$TTopLevelVariable@UID3DX11EffectMatrixVariable@@@D3DX11Effects@@QEAAHXZ 000000018001d1a0 f i effects11:EffectNonRuntime.obj
 0001:0001c1b0       ?GetMemberByIndex@?$TVariable@U?$TTopLevelVariable@UID3DX11EffectMatrixVariable@@@D3DX11Effects@@@D3DX11Effects@@UEAAPEAUID3DX11EffectVariable@@I@Z 000000018001d1b0 f i effects11:EffectNonRuntime.obj
 0001:0001c230       ?GetMemberByName@?$TVariable@U?$TTopLevelVariable@UID3DX11EffectMatrixVariable@@@D3DX11Effects@@@D3DX11Effects@@UEAAPEAUID3DX11EffectVariable@@PEBD@Z 000000018001d230 f i effects11:EffectNonRuntime.obj
 0001:0001c3f0       ?GetMemberBySemantic@?$TVariable@U?$TTopLevelVariable@UID3DX11EffectMatrixVariable@@@D3DX11Effects@@@D3DX11Effects@@UEAAPEAUID3DX11EffectVariable@@PEBD@Z 000000018001d3f0 f i effects11:EffectNonRuntime.obj
 0001:0001c4d0       ?GetElement@?$TVariable@U?$TTopLevelVariable@UID3DX11EffectMatrixVariable@@@D3DX11Effects@@@D3DX11Effects@@UEAAPEAUID3DX11EffectVariable@@I@Z 000000018001d4d0 f i effects11:EffectNonRuntime.obj
 0001:0001c570       ??0?$TVariable@U?$TTopLevelVariable@UID3DX11EffectVectorVariable@@@D3DX11Effects@@@D3DX11Effects@@QEAA@XZ 000000018001d570 f i effects11:EffectNonRuntime.obj
 0001:0001c5b0       ?IsValid@?$TVariable@U?$TTopLevelVariable@UID3DX11EffectVectorVariable@@@D3DX11Effects@@@D3DX11Effects@@UEAAHXZ 000000018001d5b0 f i effects11:EffectNonRuntime.obj
 0001:0001c5c0       ?AsScalar@?$TVariable@U?$TTopLevelVariable@UID3DX11EffectVectorVariable@@@D3DX11Effects@@@D3DX11Effects@@UEAAPEAUID3DX11EffectScalarVariable@@XZ 000000018001d5c0 f i effects11:EffectNonRuntime.obj
 0001:0001c5e0       ?AsVector@?$TVariable@U?$TTopLevelVariable@UID3DX11EffectVectorVariable@@@D3DX11Effects@@@D3DX11Effects@@UEAAPEAUID3DX11EffectVectorVariable@@XZ 000000018001d5e0 f i effects11:EffectNonRuntime.obj
 0001:0001c600       ?AsMatrix@?$TVariable@U?$TTopLevelVariable@UID3DX11EffectVectorVariable@@@D3DX11Effects@@@D3DX11Effects@@UEAAPEAUID3DX11EffectMatrixVariable@@XZ 000000018001d600 f i effects11:EffectNonRuntime.obj
 0001:0001c620       ?AsString@?$TVariable@U?$TTopLevelVariable@UID3DX11EffectVectorVariable@@@D3DX11Effects@@@D3DX11Effects@@UEAAPEAUID3DX11EffectStringVariable@@XZ 000000018001d620 f i effects11:EffectNonRuntime.obj
 0001:0001c640       ?AsClassInstance@?$TVariable@U?$TTopLevelVariable@UID3DX11EffectVectorVariable@@@D3DX11Effects@@@D3DX11Effects@@UEAAPEAUID3DX11EffectClassInstanceVariable@@XZ 000000018001d640 f i effects11:EffectNonRuntime.obj
 0001:0001c670       ?AsInterface@?$TVariable@U?$TTopLevelVariable@UID3DX11EffectVectorVariable@@@D3DX11Effects@@@D3DX11Effects@@UEAAPEAUID3DX11EffectInterfaceVariable@@XZ 000000018001d670 f i effects11:EffectNonRuntime.obj
 0001:0001c690       ?AsShaderResource@?$TVariable@U?$TTopLevelVariable@UID3DX11EffectVectorVariable@@@D3DX11Effects@@@D3DX11Effects@@UEAAPEAUID3DX11EffectShaderResourceVariable@@XZ 000000018001d690 f i effects11:EffectNonRuntime.obj
 0001:0001c6f0       ?AsUnorderedAccessView@?$TVariable@U?$TTopLevelVariable@UID3DX11EffectVectorVariable@@@D3DX11Effects@@@D3DX11Effects@@UEAAPEAUID3DX11EffectUnorderedAccessViewVariable@@XZ 000000018001d6f0 f i effects11:EffectNonRuntime.obj
 0001:0001c750       ?AsRenderTargetView@?$TVariable@U?$TTopLevelVariable@UID3DX11EffectVectorVariable@@@D3DX11Effects@@@D3DX11Effects@@UEAAPEAUID3DX11EffectRenderTargetViewVariable@@XZ 000000018001d750 f i effects11:EffectNonRuntime.obj
 0001:0001c770       ?AsDepthStencilView@?$TVariable@U?$TTopLevelVariable@UID3DX11EffectVectorVariable@@@D3DX11Effects@@@D3DX11Effects@@UEAAPEAUID3DX11EffectDepthStencilViewVariable@@XZ 000000018001d770 f i effects11:EffectNonRuntime.obj
 0001:0001c790       ?AsConstantBuffer@?$TVariable@U?$TTopLevelVariable@UID3DX11EffectVectorVariable@@@D3DX11Effects@@@D3DX11Effects@@UEAAPEAUID3DX11EffectConstantBuffer@@XZ 000000018001d790 f i effects11:EffectNonRuntime.obj
 0001:0001c7a0       ?AsShader@?$TVariable@U?$TTopLevelVariable@UID3DX11EffectVectorVariable@@@D3DX11Effects@@@D3DX11Effects@@UEAAPEAUID3DX11EffectShaderVariable@@XZ 000000018001d7a0 f i effects11:EffectNonRuntime.obj
 0001:0001c7f0       ?AsBlend@?$TVariable@U?$TTopLevelVariable@UID3DX11EffectVectorVariable@@@D3DX11Effects@@@D3DX11Effects@@UEAAPEAUID3DX11EffectBlendVariable@@XZ 000000018001d7f0 f i effects11:EffectNonRuntime.obj
 0001:0001c810       ?AsDepthStencil@?$TVariable@U?$TTopLevelVariable@UID3DX11EffectVectorVariable@@@D3DX11Effects@@@D3DX11Effects@@UEAAPEAUID3DX11EffectDepthStencilVariable@@XZ 000000018001d810 f i effects11:EffectNonRuntime.obj
 0001:0001c830       ?AsRasterizer@?$TVariable@U?$TTopLevelVariable@UID3DX11EffectVectorVariable@@@D3DX11Effects@@@D3DX11Effects@@UEAAPEAUID3DX11EffectRasterizerVariable@@XZ 000000018001d830 f i effects11:EffectNonRuntime.obj
 0001:0001c850       ?AsSampler@?$TVariable@U?$TTopLevelVariable@UID3DX11EffectVectorVariable@@@D3DX11Effects@@@D3DX11Effects@@UEAAPEAUID3DX11EffectSamplerVariable@@XZ 000000018001d850 f i effects11:EffectNonRuntime.obj
 0001:0001c870       ?SetRawValue@?$TVariable@U?$TTopLevelVariable@UID3DX11EffectVectorVariable@@@D3DX11Effects@@@D3DX11Effects@@UEAAJPEBXII@Z 000000018001d870 f i effects11:EffectNonRuntime.obj
 0001:0001c880       ?GetRawValue@?$TVariable@U?$TTopLevelVariable@UID3DX11EffectVectorVariable@@@D3DX11Effects@@@D3DX11Effects@@UEAAJPEAXII@Z 000000018001d880 f i effects11:EffectNonRuntime.obj
 0001:0001c890       ?GetTopLevelEntity@?$TTopLevelVariable@UID3DX11EffectVectorVariable@@@D3DX11Effects@@QEAAPEAU?$TTopLevelVariable@UID3DX11EffectVariable@@@2@XZ 000000018001d890 f i effects11:EffectNonRuntime.obj
 0001:0001c8a0       ?IsArray@?$TTopLevelVariable@UID3DX11EffectVectorVariable@@@D3DX11Effects@@QEAAHXZ 000000018001d8a0 f i effects11:EffectNonRuntime.obj
 0001:0001c8b0       ?GetMemberByIndex@?$TVariable@U?$TTopLevelVariable@UID3DX11EffectVectorVariable@@@D3DX11Effects@@@D3DX11Effects@@UEAAPEAUID3DX11EffectVariable@@I@Z 000000018001d8b0 f i effects11:EffectNonRuntime.obj
 0001:0001c930       ?GetMemberByName@?$TVariable@U?$TTopLevelVariable@UID3DX11EffectVectorVariable@@@D3DX11Effects@@@D3DX11Effects@@UEAAPEAUID3DX11EffectVariable@@PEBD@Z 000000018001d930 f i effects11:EffectNonRuntime.obj
 0001:0001caf0       ?GetMemberBySemantic@?$TVariable@U?$TTopLevelVariable@UID3DX11EffectVectorVariable@@@D3DX11Effects@@@D3DX11Effects@@UEAAPEAUID3DX11EffectVariable@@PEBD@Z 000000018001daf0 f i effects11:EffectNonRuntime.obj
 0001:0001cbd0       ?GetElement@?$TVariable@U?$TTopLevelVariable@UID3DX11EffectVectorVariable@@@D3DX11Effects@@@D3DX11Effects@@UEAAPEAUID3DX11EffectVariable@@I@Z 000000018001dbd0 f i effects11:EffectNonRuntime.obj
 0001:0001cc70       ??0?$TVariable@U?$TTopLevelVariable@UID3DX11EffectScalarVariable@@@D3DX11Effects@@@D3DX11Effects@@QEAA@XZ 000000018001dc70 f i effects11:EffectNonRuntime.obj
 0001:0001ccb0       ?IsValid@?$TVariable@U?$TTopLevelVariable@UID3DX11EffectScalarVariable@@@D3DX11Effects@@@D3DX11Effects@@UEAAHXZ 000000018001dcb0 f i effects11:EffectNonRuntime.obj
 0001:0001ccc0       ?AsScalar@?$TVariable@U?$TTopLevelVariable@UID3DX11EffectScalarVariable@@@D3DX11Effects@@@D3DX11Effects@@UEAAPEAUID3DX11EffectScalarVariable@@XZ 000000018001dcc0 f i effects11:EffectNonRuntime.obj
 0001:0001cce0       ?AsVector@?$TVariable@U?$TTopLevelVariable@UID3DX11EffectScalarVariable@@@D3DX11Effects@@@D3DX11Effects@@UEAAPEAUID3DX11EffectVectorVariable@@XZ 000000018001dce0 f i effects11:EffectNonRuntime.obj
 0001:0001cd00       ?AsMatrix@?$TVariable@U?$TTopLevelVariable@UID3DX11EffectScalarVariable@@@D3DX11Effects@@@D3DX11Effects@@UEAAPEAUID3DX11EffectMatrixVariable@@XZ 000000018001dd00 f i effects11:EffectNonRuntime.obj
 0001:0001cd20       ?AsString@?$TVariable@U?$TTopLevelVariable@UID3DX11EffectScalarVariable@@@D3DX11Effects@@@D3DX11Effects@@UEAAPEAUID3DX11EffectStringVariable@@XZ 000000018001dd20 f i effects11:EffectNonRuntime.obj
 0001:0001cd40       ?AsClassInstance@?$TVariable@U?$TTopLevelVariable@UID3DX11EffectScalarVariable@@@D3DX11Effects@@@D3DX11Effects@@UEAAPEAUID3DX11EffectClassInstanceVariable@@XZ 000000018001dd40 f i effects11:EffectNonRuntime.obj
 0001:0001cd70       ?AsInterface@?$TVariable@U?$TTopLevelVariable@UID3DX11EffectScalarVariable@@@D3DX11Effects@@@D3DX11Effects@@UEAAPEAUID3DX11EffectInterfaceVariable@@XZ 000000018001dd70 f i effects11:EffectNonRuntime.obj
 0001:0001cd90       ?AsShaderResource@?$TVariable@U?$TTopLevelVariable@UID3DX11EffectScalarVariable@@@D3DX11Effects@@@D3DX11Effects@@UEAAPEAUID3DX11EffectShaderResourceVariable@@XZ 000000018001dd90 f i effects11:EffectNonRuntime.obj
 0001:0001cdf0       ?AsUnorderedAccessView@?$TVariable@U?$TTopLevelVariable@UID3DX11EffectScalarVariable@@@D3DX11Effects@@@D3DX11Effects@@UEAAPEAUID3DX11EffectUnorderedAccessViewVariable@@XZ 000000018001ddf0 f i effects11:EffectNonRuntime.obj
 0001:0001ce50       ?AsRenderTargetView@?$TVariable@U?$TTopLevelVariable@UID3DX11EffectScalarVariable@@@D3DX11Effects@@@D3DX11Effects@@UEAAPEAUID3DX11EffectRenderTargetViewVariable@@XZ 000000018001de50 f i effects11:EffectNonRuntime.obj
 0001:0001ce70       ?AsDepthStencilView@?$TVariable@U?$TTopLevelVariable@UID3DX11EffectScalarVariable@@@D3DX11Effects@@@D3DX11Effects@@UEAAPEAUID3DX11EffectDepthStencilViewVariable@@XZ 000000018001de70 f i effects11:EffectNonRuntime.obj
 0001:0001ce90       ?AsConstantBuffer@?$TVariable@U?$TTopLevelVariable@UID3DX11EffectScalarVariable@@@D3DX11Effects@@@D3DX11Effects@@UEAAPEAUID3DX11EffectConstantBuffer@@XZ 000000018001de90 f i effects11:EffectNonRuntime.obj
 0001:0001cea0       ?AsShader@?$TVariable@U?$TTopLevelVariable@UID3DX11EffectScalarVariable@@@D3DX11Effects@@@D3DX11Effects@@UEAAPEAUID3DX11EffectShaderVariable@@XZ 000000018001dea0 f i effects11:EffectNonRuntime.obj
 0001:0001cef0       ?AsBlend@?$TVariable@U?$TTopLevelVariable@UID3DX11EffectScalarVariable@@@D3DX11Effects@@@D3DX11Effects@@UEAAPEAUID3DX11EffectBlendVariable@@XZ 000000018001def0 f i effects11:EffectNonRuntime.obj
 0001:0001cf10       ?AsDepthStencil@?$TVariable@U?$TTopLevelVariable@UID3DX11EffectScalarVariable@@@D3DX11Effects@@@D3DX11Effects@@UEAAPEAUID3DX11EffectDepthStencilVariable@@XZ 000000018001df10 f i effects11:EffectNonRuntime.obj
 0001:0001cf30       ?AsRasterizer@?$TVariable@U?$TTopLevelVariable@UID3DX11EffectScalarVariable@@@D3DX11Effects@@@D3DX11Effects@@UEAAPEAUID3DX11EffectRasterizerVariable@@XZ 000000018001df30 f i effects11:EffectNonRuntime.obj
 0001:0001cf50       ?AsSampler@?$TVariable@U?$TTopLevelVariable@UID3DX11EffectScalarVariable@@@D3DX11Effects@@@D3DX11Effects@@UEAAPEAUID3DX11EffectSamplerVariable@@XZ 000000018001df50 f i effects11:EffectNonRuntime.obj
 0001:0001cf70       ?SetRawValue@?$TVariable@U?$TTopLevelVariable@UID3DX11EffectScalarVariable@@@D3DX11Effects@@@D3DX11Effects@@UEAAJPEBXII@Z 000000018001df70 f i effects11:EffectNonRuntime.obj
 0001:0001cf80       ?GetRawValue@?$TVariable@U?$TTopLevelVariable@UID3DX11EffectScalarVariable@@@D3DX11Effects@@@D3DX11Effects@@UEAAJPEAXII@Z 000000018001df80 f i effects11:EffectNonRuntime.obj
 0001:0001cf90       ?GetTopLevelEntity@?$TTopLevelVariable@UID3DX11EffectScalarVariable@@@D3DX11Effects@@QEAAPEAU?$TTopLevelVariable@UID3DX11EffectVariable@@@2@XZ 000000018001df90 f i effects11:EffectNonRuntime.obj
 0001:0001cfa0       ?IsArray@?$TTopLevelVariable@UID3DX11EffectScalarVariable@@@D3DX11Effects@@QEAAHXZ 000000018001dfa0 f i effects11:EffectNonRuntime.obj
 0001:0001cfb0       ?GetMemberByIndex@?$TVariable@U?$TTopLevelVariable@UID3DX11EffectScalarVariable@@@D3DX11Effects@@@D3DX11Effects@@UEAAPEAUID3DX11EffectVariable@@I@Z 000000018001dfb0 f i effects11:EffectNonRuntime.obj
 0001:0001d030       ?GetMemberByName@?$TVariable@U?$TTopLevelVariable@UID3DX11EffectScalarVariable@@@D3DX11Effects@@@D3DX11Effects@@UEAAPEAUID3DX11EffectVariable@@PEBD@Z 000000018001e030 f i effects11:EffectNonRuntime.obj
 0001:0001d1f0       ?GetMemberBySemantic@?$TVariable@U?$TTopLevelVariable@UID3DX11EffectScalarVariable@@@D3DX11Effects@@@D3DX11Effects@@UEAAPEAUID3DX11EffectVariable@@PEBD@Z 000000018001e1f0 f i effects11:EffectNonRuntime.obj
 0001:0001d2d0       ?GetElement@?$TVariable@U?$TTopLevelVariable@UID3DX11EffectScalarVariable@@@D3DX11Effects@@@D3DX11Effects@@UEAAPEAUID3DX11EffectVariable@@I@Z 000000018001e2d0 f i effects11:EffectNonRuntime.obj
 0001:0001d370       ??0?$TGlobalVariable@UID3DX11EffectScalarVariable@@@D3DX11Effects@@QEAA@XZ 000000018001e370 f i effects11:EffectNonRuntime.obj
 0001:0001d3c0       ?GetDesc@?$TGlobalVariable@UID3DX11EffectScalarVariable@@@D3DX11Effects@@UEAAJPEAU_D3DX11_EFFECT_VARIABLE_DESC@@@Z 000000018001e3c0 f i effects11:EffectNonRuntime.obj
 0001:0001d440       ?GetAnnotationByIndex@?$TGlobalVariable@UID3DX11EffectScalarVariable@@@D3DX11Effects@@UEAAPEAUID3DX11EffectVariable@@I@Z 000000018001e440 f i effects11:EffectNonRuntime.obj
 0001:0001d460       ?GetAnnotationByName@?$TGlobalVariable@UID3DX11EffectScalarVariable@@@D3DX11Effects@@UEAAPEAUID3DX11EffectVariable@@PEBD@Z 000000018001e460 f i effects11:EffectNonRuntime.obj
 0001:0001d480       ?GetParentConstantBuffer@?$TGlobalVariable@UID3DX11EffectScalarVariable@@@D3DX11Effects@@UEAAPEAUID3DX11EffectConstantBuffer@@XZ 000000018001e480 f i effects11:EffectNonRuntime.obj
 0001:0001d4a0       ??0?$TGlobalVariable@UID3DX11EffectVectorVariable@@@D3DX11Effects@@QEAA@XZ 000000018001e4a0 f i effects11:EffectNonRuntime.obj
 0001:0001d4f0       ?GetDesc@?$TGlobalVariable@UID3DX11EffectVectorVariable@@@D3DX11Effects@@UEAAJPEAU_D3DX11_EFFECT_VARIABLE_DESC@@@Z 000000018001e4f0 f i effects11:EffectNonRuntime.obj
 0001:0001d570       ?GetAnnotationByIndex@?$TGlobalVariable@UID3DX11EffectVectorVariable@@@D3DX11Effects@@UEAAPEAUID3DX11EffectVariable@@I@Z 000000018001e570 f i effects11:EffectNonRuntime.obj
 0001:0001d590       ?GetAnnotationByName@?$TGlobalVariable@UID3DX11EffectVectorVariable@@@D3DX11Effects@@UEAAPEAUID3DX11EffectVariable@@PEBD@Z 000000018001e590 f i effects11:EffectNonRuntime.obj
 0001:0001d5b0       ?GetParentConstantBuffer@?$TGlobalVariable@UID3DX11EffectVectorVariable@@@D3DX11Effects@@UEAAPEAUID3DX11EffectConstantBuffer@@XZ 000000018001e5b0 f i effects11:EffectNonRuntime.obj
 0001:0001d5d0       ??0?$TGlobalVariable@UID3DX11EffectMatrixVariable@@@D3DX11Effects@@QEAA@XZ 000000018001e5d0 f i effects11:EffectNonRuntime.obj
 0001:0001d620       ?GetDesc@?$TGlobalVariable@UID3DX11EffectMatrixVariable@@@D3DX11Effects@@UEAAJPEAU_D3DX11_EFFECT_VARIABLE_DESC@@@Z 000000018001e620 f i effects11:EffectNonRuntime.obj
 0001:0001d6a0       ?GetAnnotationByIndex@?$TGlobalVariable@UID3DX11EffectMatrixVariable@@@D3DX11Effects@@UEAAPEAUID3DX11EffectVariable@@I@Z 000000018001e6a0 f i effects11:EffectNonRuntime.obj
 0001:0001d6c0       ?GetAnnotationByName@?$TGlobalVariable@UID3DX11EffectMatrixVariable@@@D3DX11Effects@@UEAAPEAUID3DX11EffectVariable@@PEBD@Z 000000018001e6c0 f i effects11:EffectNonRuntime.obj
 0001:0001d6e0       ?GetParentConstantBuffer@?$TGlobalVariable@UID3DX11EffectMatrixVariable@@@D3DX11Effects@@UEAAPEAUID3DX11EffectConstantBuffer@@XZ 000000018001e6e0 f i effects11:EffectNonRuntime.obj
 0001:0001d700       ??0?$TGlobalVariable@UID3DX11EffectStringVariable@@@D3DX11Effects@@QEAA@XZ 000000018001e700 f i effects11:EffectNonRuntime.obj
 0001:0001d750       ?GetDesc@?$TGlobalVariable@UID3DX11EffectStringVariable@@@D3DX11Effects@@UEAAJPEAU_D3DX11_EFFECT_VARIABLE_DESC@@@Z 000000018001e750 f i effects11:EffectNonRuntime.obj
 0001:0001d7d0       ?GetAnnotationByIndex@?$TGlobalVariable@UID3DX11EffectStringVariable@@@D3DX11Effects@@UEAAPEAUID3DX11EffectVariable@@I@Z 000000018001e7d0 f i effects11:EffectNonRuntime.obj
 0001:0001d7f0       ?GetAnnotationByName@?$TGlobalVariable@UID3DX11EffectStringVariable@@@D3DX11Effects@@UEAAPEAUID3DX11EffectVariable@@PEBD@Z 000000018001e7f0 f i effects11:EffectNonRuntime.obj
 0001:0001d810       ?GetParentConstantBuffer@?$TGlobalVariable@UID3DX11EffectStringVariable@@@D3DX11Effects@@UEAAPEAUID3DX11EffectConstantBuffer@@XZ 000000018001e810 f i effects11:EffectNonRuntime.obj
 0001:0001d830       ??0?$TGlobalVariable@UID3DX11EffectClassInstanceVariable@@@D3DX11Effects@@QEAA@XZ 000000018001e830 f i effects11:EffectNonRuntime.obj
 0001:0001d880       ?GetDesc@?$TGlobalVariable@UID3DX11EffectClassInstanceVariable@@@D3DX11Effects@@UEAAJPEAU_D3DX11_EFFECT_VARIABLE_DESC@@@Z 000000018001e880 f i effects11:EffectNonRuntime.obj
 0001:0001d900       ?GetAnnotationByIndex@?$TGlobalVariable@UID3DX11EffectClassInstanceVariable@@@D3DX11Effects@@UEAAPEAUID3DX11EffectVariable@@I@Z 000000018001e900 f i effects11:EffectNonRuntime.obj
 0001:0001d920       ?GetAnnotationByName@?$TGlobalVariable@UID3DX11EffectClassInstanceVariable@@@D3DX11Effects@@UEAAPEAUID3DX11EffectVariable@@PEBD@Z 000000018001e920 f i effects11:EffectNonRuntime.obj
 0001:0001d940       ?GetParentConstantBuffer@?$TGlobalVariable@UID3DX11EffectClassInstanceVariable@@@D3DX11Effects@@UEAAPEAUID3DX11EffectConstantBuffer@@XZ 000000018001e940 f i effects11:EffectNonRuntime.obj
 0001:0001d960       ??0?$TGlobalVariable@UID3DX11EffectInterfaceVariable@@@D3DX11Effects@@QEAA@XZ 000000018001e960 f i effects11:EffectNonRuntime.obj
 0001:0001d9b0       ?GetDesc@?$TGlobalVariable@UID3DX11EffectInterfaceVariable@@@D3DX11Effects@@UEAAJPEAU_D3DX11_EFFECT_VARIABLE_DESC@@@Z 000000018001e9b0 f i effects11:EffectNonRuntime.obj
 0001:0001da30       ?GetAnnotationByIndex@?$TGlobalVariable@UID3DX11EffectInterfaceVariable@@@D3DX11Effects@@UEAAPEAUID3DX11EffectVariable@@I@Z 000000018001ea30 f i effects11:EffectNonRuntime.obj
 0001:0001da50       ?GetAnnotationByName@?$TGlobalVariable@UID3DX11EffectInterfaceVariable@@@D3DX11Effects@@UEAAPEAUID3DX11EffectVariable@@PEBD@Z 000000018001ea50 f i effects11:EffectNonRuntime.obj
 0001:0001da70       ?GetParentConstantBuffer@?$TGlobalVariable@UID3DX11EffectInterfaceVariable@@@D3DX11Effects@@UEAAPEAUID3DX11EffectConstantBuffer@@XZ 000000018001ea70 f i effects11:EffectNonRuntime.obj
 0001:0001da90       ??0?$TGlobalVariable@UID3DX11EffectShaderResourceVariable@@@D3DX11Effects@@QEAA@XZ 000000018001ea90 f i effects11:EffectNonRuntime.obj
 0001:0001dae0       ?GetDesc@?$TGlobalVariable@UID3DX11EffectShaderResourceVariable@@@D3DX11Effects@@UEAAJPEAU_D3DX11_EFFECT_VARIABLE_DESC@@@Z 000000018001eae0 f i effects11:EffectNonRuntime.obj
 0001:0001db60       ?GetAnnotationByIndex@?$TGlobalVariable@UID3DX11EffectShaderResourceVariable@@@D3DX11Effects@@UEAAPEAUID3DX11EffectVariable@@I@Z 000000018001eb60 f i effects11:EffectNonRuntime.obj
 0001:0001db80       ?GetAnnotationByName@?$TGlobalVariable@UID3DX11EffectShaderResourceVariable@@@D3DX11Effects@@UEAAPEAUID3DX11EffectVariable@@PEBD@Z 000000018001eb80 f i effects11:EffectNonRuntime.obj
 0001:0001dba0       ?GetParentConstantBuffer@?$TGlobalVariable@UID3DX11EffectShaderResourceVariable@@@D3DX11Effects@@UEAAPEAUID3DX11EffectConstantBuffer@@XZ 000000018001eba0 f i effects11:EffectNonRuntime.obj
 0001:0001dbc0       ??0?$TGlobalVariable@UID3DX11EffectUnorderedAccessViewVariable@@@D3DX11Effects@@QEAA@XZ 000000018001ebc0 f i effects11:EffectNonRuntime.obj
 0001:0001dc10       ?GetDesc@?$TGlobalVariable@UID3DX11EffectUnorderedAccessViewVariable@@@D3DX11Effects@@UEAAJPEAU_D3DX11_EFFECT_VARIABLE_DESC@@@Z 000000018001ec10 f i effects11:EffectNonRuntime.obj
 0001:0001dc90       ?GetAnnotationByIndex@?$TGlobalVariable@UID3DX11EffectUnorderedAccessViewVariable@@@D3DX11Effects@@UEAAPEAUID3DX11EffectVariable@@I@Z 000000018001ec90 f i effects11:EffectNonRuntime.obj
 0001:0001dcb0       ?GetAnnotationByName@?$TGlobalVariable@UID3DX11EffectUnorderedAccessViewVariable@@@D3DX11Effects@@UEAAPEAUID3DX11EffectVariable@@PEBD@Z 000000018001ecb0 f i effects11:EffectNonRuntime.obj
 0001:0001dcd0       ?GetParentConstantBuffer@?$TGlobalVariable@UID3DX11EffectUnorderedAccessViewVariable@@@D3DX11Effects@@UEAAPEAUID3DX11EffectConstantBuffer@@XZ 000000018001ecd0 f i effects11:EffectNonRuntime.obj
 0001:0001dcf0       ??0?$TGlobalVariable@UID3DX11EffectRenderTargetViewVariable@@@D3DX11Effects@@QEAA@XZ 000000018001ecf0 f i effects11:EffectNonRuntime.obj
 0001:0001dd40       ?GetDesc@?$TGlobalVariable@UID3DX11EffectRenderTargetViewVariable@@@D3DX11Effects@@UEAAJPEAU_D3DX11_EFFECT_VARIABLE_DESC@@@Z 000000018001ed40 f i effects11:EffectNonRuntime.obj
 0001:0001ddc0       ?GetAnnotationByIndex@?$TGlobalVariable@UID3DX11EffectRenderTargetViewVariable@@@D3DX11Effects@@UEAAPEAUID3DX11EffectVariable@@I@Z 000000018001edc0 f i effects11:EffectNonRuntime.obj
 0001:0001dde0       ?GetAnnotationByName@?$TGlobalVariable@UID3DX11EffectRenderTargetViewVariable@@@D3DX11Effects@@UEAAPEAUID3DX11EffectVariable@@PEBD@Z 000000018001ede0 f i effects11:EffectNonRuntime.obj
 0001:0001de00       ?GetParentConstantBuffer@?$TGlobalVariable@UID3DX11EffectRenderTargetViewVariable@@@D3DX11Effects@@UEAAPEAUID3DX11EffectConstantBuffer@@XZ 000000018001ee00 f i effects11:EffectNonRuntime.obj
 0001:0001de20       ??0?$TGlobalVariable@UID3DX11EffectDepthStencilViewVariable@@@D3DX11Effects@@QEAA@XZ 000000018001ee20 f i effects11:EffectNonRuntime.obj
 0001:0001de70       ?GetDesc@?$TGlobalVariable@UID3DX11EffectDepthStencilViewVariable@@@D3DX11Effects@@UEAAJPEAU_D3DX11_EFFECT_VARIABLE_DESC@@@Z 000000018001ee70 f i effects11:EffectNonRuntime.obj
 0001:0001def0       ?GetAnnotationByIndex@?$TGlobalVariable@UID3DX11EffectDepthStencilViewVariable@@@D3DX11Effects@@UEAAPEAUID3DX11EffectVariable@@I@Z 000000018001eef0 f i effects11:EffectNonRuntime.obj
 0001:0001df10       ?GetAnnotationByName@?$TGlobalVariable@UID3DX11EffectDepthStencilViewVariable@@@D3DX11Effects@@UEAAPEAUID3DX11EffectVariable@@PEBD@Z 000000018001ef10 f i effects11:EffectNonRuntime.obj
 0001:0001df30       ?GetParentConstantBuffer@?$TGlobalVariable@UID3DX11EffectDepthStencilViewVariable@@@D3DX11Effects@@UEAAPEAUID3DX11EffectConstantBuffer@@XZ 000000018001ef30 f i effects11:EffectNonRuntime.obj
 0001:0001df50       ??0?$TGlobalVariable@UID3DX11EffectShaderVariable@@@D3DX11Effects@@QEAA@XZ 000000018001ef50 f i effects11:EffectNonRuntime.obj
 0001:0001dfa0       ?GetDesc@?$TGlobalVariable@UID3DX11EffectShaderVariable@@@D3DX11Effects@@UEAAJPEAU_D3DX11_EFFECT_VARIABLE_DESC@@@Z 000000018001efa0 f i effects11:EffectNonRuntime.obj
 0001:0001e020       ?GetAnnotationByIndex@?$TGlobalVariable@UID3DX11EffectShaderVariable@@@D3DX11Effects@@UEAAPEAUID3DX11EffectVariable@@I@Z 000000018001f020 f i effects11:EffectNonRuntime.obj
 0001:0001e040       ?GetAnnotationByName@?$TGlobalVariable@UID3DX11EffectShaderVariable@@@D3DX11Effects@@UEAAPEAUID3DX11EffectVariable@@PEBD@Z 000000018001f040 f i effects11:EffectNonRuntime.obj
 0001:0001e060       ?GetParentConstantBuffer@?$TGlobalVariable@UID3DX11EffectShaderVariable@@@D3DX11Effects@@UEAAPEAUID3DX11EffectConstantBuffer@@XZ 000000018001f060 f i effects11:EffectNonRuntime.obj
 0001:0001e080       ??0?$TGlobalVariable@UID3DX11EffectBlendVariable@@@D3DX11Effects@@QEAA@XZ 000000018001f080 f i effects11:EffectNonRuntime.obj
 0001:0001e0d0       ?GetDesc@?$TGlobalVariable@UID3DX11EffectBlendVariable@@@D3DX11Effects@@UEAAJPEAU_D3DX11_EFFECT_VARIABLE_DESC@@@Z 000000018001f0d0 f i effects11:EffectNonRuntime.obj
 0001:0001e150       ?GetAnnotationByIndex@?$TGlobalVariable@UID3DX11EffectBlendVariable@@@D3DX11Effects@@UEAAPEAUID3DX11EffectVariable@@I@Z 000000018001f150 f i effects11:EffectNonRuntime.obj
 0001:0001e170       ?GetAnnotationByName@?$TGlobalVariable@UID3DX11EffectBlendVariable@@@D3DX11Effects@@UEAAPEAUID3DX11EffectVariable@@PEBD@Z 000000018001f170 f i effects11:EffectNonRuntime.obj
 0001:0001e190       ?GetParentConstantBuffer@?$TGlobalVariable@UID3DX11EffectBlendVariable@@@D3DX11Effects@@UEAAPEAUID3DX11EffectConstantBuffer@@XZ 000000018001f190 f i effects11:EffectNonRuntime.obj
 0001:0001e1b0       ??0?$TGlobalVariable@UID3DX11EffectDepthStencilVariable@@@D3DX11Effects@@QEAA@XZ 000000018001f1b0 f i effects11:EffectNonRuntime.obj
 0001:0001e200       ?GetDesc@?$TGlobalVariable@UID3DX11EffectDepthStencilVariable@@@D3DX11Effects@@UEAAJPEAU_D3DX11_EFFECT_VARIABLE_DESC@@@Z 000000018001f200 f i effects11:EffectNonRuntime.obj
 0001:0001e280       ?GetAnnotationByIndex@?$TGlobalVariable@UID3DX11EffectDepthStencilVariable@@@D3DX11Effects@@UEAAPEAUID3DX11EffectVariable@@I@Z 000000018001f280 f i effects11:EffectNonRuntime.obj
 0001:0001e2a0       ?GetAnnotationByName@?$TGlobalVariable@UID3DX11EffectDepthStencilVariable@@@D3DX11Effects@@UEAAPEAUID3DX11EffectVariable@@PEBD@Z 000000018001f2a0 f i effects11:EffectNonRuntime.obj
 0001:0001e2c0       ?GetParentConstantBuffer@?$TGlobalVariable@UID3DX11EffectDepthStencilVariable@@@D3DX11Effects@@UEAAPEAUID3DX11EffectConstantBuffer@@XZ 000000018001f2c0 f i effects11:EffectNonRuntime.obj
 0001:0001e2e0       ??0?$TGlobalVariable@UID3DX11EffectRasterizerVariable@@@D3DX11Effects@@QEAA@XZ 000000018001f2e0 f i effects11:EffectNonRuntime.obj
 0001:0001e330       ?GetDesc@?$TGlobalVariable@UID3DX11EffectRasterizerVariable@@@D3DX11Effects@@UEAAJPEAU_D3DX11_EFFECT_VARIABLE_DESC@@@Z 000000018001f330 f i effects11:EffectNonRuntime.obj
 0001:0001e3b0       ?GetAnnotationByIndex@?$TGlobalVariable@UID3DX11EffectRasterizerVariable@@@D3DX11Effects@@UEAAPEAUID3DX11EffectVariable@@I@Z 000000018001f3b0 f i effects11:EffectNonRuntime.obj
 0001:0001e3d0       ?GetAnnotationByName@?$TGlobalVariable@UID3DX11EffectRasterizerVariable@@@D3DX11Effects@@UEAAPEAUID3DX11EffectVariable@@PEBD@Z 000000018001f3d0 f i effects11:EffectNonRuntime.obj
 0001:0001e3f0       ?GetParentConstantBuffer@?$TGlobalVariable@UID3DX11EffectRasterizerVariable@@@D3DX11Effects@@UEAAPEAUID3DX11EffectConstantBuffer@@XZ 000000018001f3f0 f i effects11:EffectNonRuntime.obj
 0001:0001e410       ??0?$TGlobalVariable@UID3DX11EffectSamplerVariable@@@D3DX11Effects@@QEAA@XZ 000000018001f410 f i effects11:EffectNonRuntime.obj
 0001:0001e460       ?GetDesc@?$TGlobalVariable@UID3DX11EffectSamplerVariable@@@D3DX11Effects@@UEAAJPEAU_D3DX11_EFFECT_VARIABLE_DESC@@@Z 000000018001f460 f i effects11:EffectNonRuntime.obj
 0001:0001e4e0       ?GetAnnotationByIndex@?$TGlobalVariable@UID3DX11EffectSamplerVariable@@@D3DX11Effects@@UEAAPEAUID3DX11EffectVariable@@I@Z 000000018001f4e0 f i effects11:EffectNonRuntime.obj
 0001:0001e500       ?GetAnnotationByName@?$TGlobalVariable@UID3DX11EffectSamplerVariable@@@D3DX11Effects@@UEAAPEAUID3DX11EffectVariable@@PEBD@Z 000000018001f500 f i effects11:EffectNonRuntime.obj
 0001:0001e520       ?GetParentConstantBuffer@?$TGlobalVariable@UID3DX11EffectSamplerVariable@@@D3DX11Effects@@UEAAPEAUID3DX11EffectConstantBuffer@@XZ 000000018001f520 f i effects11:EffectNonRuntime.obj
 0001:0001e540       ??1?$CEffectVector@PEAUSSingleElementType@D3DX11Effects@@@@QEAA@XZ 000000018001f540 f i effects11:EffectNonRuntime.obj
 0001:0001e570       ??1?$CEffectVector@PEAUSMember@D3DX11Effects@@@@QEAA@XZ 000000018001f570 f i effects11:EffectNonRuntime.obj
 0001:0001e5a0       ??1?$CEffectVector@E@@QEAA@XZ 000000018001f5a0 f i effects11:EffectNonRuntime.obj
 0001:0001e5d0       ??1?$CEffectVector@PEAUSInterface@D3DX11Effects@@@@QEAA@XZ 000000018001f5d0 f i effects11:EffectNonRuntime.obj
 0001:0001e600       ??1?$CEffectVector@UD3D11_SO_DECLARATION_ENTRY@@@@QEAA@XZ 000000018001f600 f i effects11:EffectNonRuntime.obj
 0001:0001e630       ?Add@?$CEffectVector@UD3D11_SO_DECLARATION_ENTRY@@@@QEAAJAEBUD3D11_SO_DECLARATION_ENTRY@@@Z 000000018001f630 f i effects11:EffectNonRuntime.obj
 0001:0001e690       ??0?$CEffectHashTableWithPrivateHeap@PEAUSType@D3DX11Effects@@$1?AreTypesEqual@CEffect@2@KAHAEBQEAU12@0@Z@@QEAA@XZ 000000018001f690 f i effects11:EffectNonRuntime.obj
 0001:0001e6b0       ??1?$CEffectHashTableWithPrivateHeap@PEAUSType@D3DX11Effects@@$1?AreTypesEqual@CEffect@2@KAHAEBQEAU12@0@Z@@QEAA@XZ 000000018001f6b0 f i effects11:EffectNonRuntime.obj
 0001:0001e6f0       ?AutoGrow@?$CEffectHashTable@PEAUSType@D3DX11Effects@@$1?AreTypesEqual@CEffect@2@KAHAEBQEAU12@0@Z@@QEAAJXZ 000000018001f6f0 f i effects11:EffectNonRuntime.obj
 0001:0001e720       ??0?$CEffectHashTableWithPrivateHeap@PEBD$1?AreStringsEqual@CEffect@D3DX11Effects@@KAHAEBQEBD0@Z@@QEAA@XZ 000000018001f720 f i effects11:EffectNonRuntime.obj
 0001:0001e740       ??1?$CEffectHashTableWithPrivateHeap@PEBD$1?AreStringsEqual@CEffect@D3DX11Effects@@KAHAEBQEBD0@Z@@QEAA@XZ 000000018001f740 f i effects11:EffectNonRuntime.obj
 0001:0001e780       ?AutoGrow@?$CEffectHashTable@PEBD$1?AreStringsEqual@CEffect@D3DX11Effects@@KAHAEBQEBD0@Z@@QEAAJXZ 000000018001f780 f i effects11:EffectNonRuntime.obj
 0001:0001e7b0       ??0?$CEffectHashTableWithPrivateHeap@USPointerMapping@D3DX11Effects@@$1?AreMappingsEqual@12@SAHAEBU12@0@Z@@QEAA@XZ 000000018001f7b0 f i effects11:EffectNonRuntime.obj
 0001:0001e7d0       ??1?$CEffectHashTableWithPrivateHeap@USPointerMapping@D3DX11Effects@@$1?AreMappingsEqual@12@SAHAEBU12@0@Z@@QEAA@XZ 000000018001f7d0 f i effects11:EffectNonRuntime.obj
 0001:0001e810       ?AutoGrow@?$CEffectHashTable@USPointerMapping@D3DX11Effects@@$1?AreMappingsEqual@12@SAHAEBU12@0@Z@@QEAAJXZ 000000018001f810 f i effects11:EffectNonRuntime.obj
 0001:0001e840       ??0CSOParser@D3DX11Effects@@QEAA@XZ 000000018001f840 f i effects11:EffectNonRuntime.obj
 0001:0001e880       ??1CSOParser@D3DX11Effects@@QEAA@XZ 000000018001f880 f i effects11:EffectNonRuntime.obj
 0001:0001e8e0       ?Parse@CSOParser@D3DX11Effects@@IEAAJIPEBD@Z 000000018001f8e0 f i effects11:EffectNonRuntime.obj
 0001:0001ea90       ??0?$CEffectVectorOwner@USSingleElementType@D3DX11Effects@@@@QEAA@XZ 000000018001fa90 f i effects11:EffectNonRuntime.obj
 0001:0001eab0       ??0?$CEffectVectorOwner@USMember@D3DX11Effects@@@@QEAA@XZ 000000018001fab0 f i effects11:EffectNonRuntime.obj
 0001:0001ead0       ??_G?$CEffectHashTableWithPrivateHeap@PEAUSType@D3DX11Effects@@$1?AreTypesEqual@CEffect@2@KAHAEBQEAU12@0@Z@@QEAAPEAXI@Z 000000018001fad0 f i effects11:EffectNonRuntime.obj
 0001:0001eb30       ??_G?$CEffectHashTableWithPrivateHeap@PEBD$1?AreStringsEqual@CEffect@D3DX11Effects@@KAHAEBQEBD0@Z@@QEAAPEAXI@Z 000000018001fb30 f i effects11:EffectNonRuntime.obj
 0001:0001eb90       ?CopyStringPool@CEffect@D3DX11Effects@@IEAAJPEAV12@AEAV?$CEffectHashTableWithPrivateHeap@USPointerMapping@D3DX11Effects@@$1?AreMappingsEqual@12@SAHAEBU12@0@Z@@@Z 000000018001fb90 f   effects11:EffectNonRuntime.obj
 0001:0001ee10       ?CopyTypePool@CEffect@D3DX11Effects@@IEAAJPEAV12@AEAV?$CEffectHashTableWithPrivateHeap@USPointerMapping@D3DX11Effects@@$1?AreMappingsEqual@12@SAHAEBU12@0@Z@@1@Z 000000018001fe10 f   effects11:EffectNonRuntime.obj
 0001:0001f2e0       ??0CEffectLoader@D3DX11Effects@@QEAA@XZ 00000001800202e0 f i effects11:EffectNonRuntime.obj
 0001:0001f350       ??1CEffectLoader@D3DX11Effects@@QEAA@XZ 0000000180020350 f i effects11:EffectNonRuntime.obj
 0001:0001f3e0       ?Optimize@CEffect@D3DX11Effects@@UEAAJXZ 00000001800203e0 f   effects11:EffectNonRuntime.obj
 0001:0001fdf0       ??0SNumericAnnotationMember@D3DX11Effects@@QEAA@XZ 0000000180020df0 f i effects11:EffectNonRuntime.obj
 0001:0001fe30       ??0SNumericGlobalVariableMember@D3DX11Effects@@QEAA@XZ 0000000180020e30 f i effects11:EffectNonRuntime.obj
 0001:0001fe70       ??0?$TClassInstanceVariable@U?$TVariable@U?$TMember@UID3DX11EffectClassInstanceVariable@@@D3DX11Effects@@@D3DX11Effects@@@D3DX11Effects@@QEAA@XZ 0000000180020e70 f i effects11:EffectNonRuntime.obj
 0001:0001feb0       ?GetClassInstance@?$TClassInstanceVariable@U?$TVariable@U?$TMember@UID3DX11EffectClassInstanceVariable@@@D3DX11Effects@@@D3DX11Effects@@@D3DX11Effects@@UEAAJPEAPEAUID3D11ClassInstance@@@Z 0000000180020eb0 f i effects11:EffectNonRuntime.obj
 0001:0001fee0       ??0?$TInterfaceVariable@U?$TVariable@U?$TMember@UID3DX11EffectInterfaceVariable@@@D3DX11Effects@@@D3DX11Effects@@@D3DX11Effects@@QEAA@XZ 0000000180020ee0 f i effects11:EffectNonRuntime.obj
 0001:0001ff20       ?SetClassInstance@?$TInterfaceVariable@U?$TVariable@U?$TMember@UID3DX11EffectInterfaceVariable@@@D3DX11Effects@@@D3DX11Effects@@@D3DX11Effects@@UEAAJPEAUID3DX11EffectClassInstanceVariable@@@Z 0000000180020f20 f i effects11:EffectNonRuntime.obj
 0001:0001ff30       ?GetClassInstance@?$TInterfaceVariable@U?$TVariable@U?$TMember@UID3DX11EffectInterfaceVariable@@@D3DX11Effects@@@D3DX11Effects@@@D3DX11Effects@@UEAAJPEAPEAUID3DX11EffectClassInstanceVariable@@@Z 0000000180020f30 f i effects11:EffectNonRuntime.obj
 0001:0001ff40       ??0?$TStringVariable@U?$TVariable@U?$TMember@UID3DX11EffectStringVariable@@@D3DX11Effects@@@D3DX11Effects@@$00@D3DX11Effects@@QEAA@XZ 0000000180020f40 f i effects11:EffectNonRuntime.obj
 0001:0001ff80       ?GetString@?$TStringVariable@U?$TVariable@U?$TMember@UID3DX11EffectStringVariable@@@D3DX11Effects@@@D3DX11Effects@@$00@D3DX11Effects@@UEAAJPEAPEBD@Z 0000000180020f80 f i effects11:EffectNonRuntime.obj
 0001:00020000       ?GetStringArray@?$TStringVariable@U?$TVariable@U?$TMember@UID3DX11EffectStringVariable@@@D3DX11Effects@@@D3DX11Effects@@$00@D3DX11Effects@@UEAAJPEAPEBDII@Z 0000000180021000 f i effects11:EffectNonRuntime.obj
 0001:00020090       ??0?$TStringVariable@U?$TVariable@U?$TMember@UID3DX11EffectStringVariable@@@D3DX11Effects@@@D3DX11Effects@@$0A@@D3DX11Effects@@QEAA@XZ 0000000180021090 f i effects11:EffectNonRuntime.obj
 0001:000200d0       ?GetString@?$TStringVariable@U?$TVariable@U?$TMember@UID3DX11EffectStringVariable@@@D3DX11Effects@@@D3DX11Effects@@$0A@@D3DX11Effects@@UEAAJPEAPEBD@Z 00000001800210d0 f i effects11:EffectNonRuntime.obj
 0001:00020150       ?GetStringArray@?$TStringVariable@U?$TVariable@U?$TMember@UID3DX11EffectStringVariable@@@D3DX11Effects@@@D3DX11Effects@@$0A@@D3DX11Effects@@UEAAJPEAPEBDII@Z 0000000180021150 f i effects11:EffectNonRuntime.obj
 0001:000201e0       ??0?$TShaderResourceVariable@U?$TVariable@U?$TMember@UID3DX11EffectShaderResourceVariable@@@D3DX11Effects@@@D3DX11Effects@@@D3DX11Effects@@QEAA@XZ 00000001800211e0 f i effects11:EffectNonRuntime.obj
 0001:00020220       ?SetResource@?$TShaderResourceVariable@U?$TVariable@U?$TMember@UID3DX11EffectShaderResourceVariable@@@D3DX11Effects@@@D3DX11Effects@@@D3DX11Effects@@UEAAJPEAUID3D11ShaderResourceView@@@Z 0000000180021220 f i effects11:EffectNonRuntime.obj
 0001:00020270       ?GetResource@?$TShaderResourceVariable@U?$TVariable@U?$TMember@UID3DX11EffectShaderResourceVariable@@@D3DX11Effects@@@D3DX11Effects@@@D3DX11Effects@@UEAAJPEAPEAUID3D11ShaderResourceView@@@Z 0000000180021270 f i effects11:EffectNonRuntime.obj
 0001:00020290       ?SetResourceArray@?$TShaderResourceVariable@U?$TVariable@U?$TMember@UID3DX11EffectShaderResourceVariable@@@D3DX11Effects@@@D3DX11Effects@@@D3DX11Effects@@UEAAJPEAPEAUID3D11ShaderResourceView@@II@Z 0000000180021290 f i effects11:EffectNonRuntime.obj
 0001:00020320       ?GetResourceArray@?$TShaderResourceVariable@U?$TVariable@U?$TMember@UID3DX11EffectShaderResourceVariable@@@D3DX11Effects@@@D3DX11Effects@@@D3DX11Effects@@UEAAJPEAPEAUID3D11ShaderResourceView@@II@Z 0000000180021320 f i effects11:EffectNonRuntime.obj
 0001:00020390       ??0?$TUnorderedAccessViewVariable@U?$TVariable@U?$TMember@UID3DX11EffectUnorderedAccessViewVariable@@@D3DX11Effects@@@D3DX11Effects@@@D3DX11Effects@@QEAA@XZ 0000000180021390 f i effects11:EffectNonRuntime.obj
 0001:000203d0       ?SetUnorderedAccessView@?$TUnorderedAccessViewVariable@U?$TVariable@U?$TMember@UID3DX11EffectUnorderedAccessViewVariable@@@D3DX11Effects@@@D3DX11Effects@@@D3DX11Effects@@UEAAJPEAUID3D11UnorderedAccessView@@@Z 00000001800213d0 f i effects11:EffectNonRuntime.obj
 0001:00020420       ?GetUnorderedAccessView@?$TUnorderedAccessViewVariable@U?$TVariable@U?$TMember@UID3DX11EffectUnorderedAccessViewVariable@@@D3DX11Effects@@@D3DX11Effects@@@D3DX11Effects@@UEAAJPEAPEAUID3D11UnorderedAccessView@@@Z 0000000180021420 f i effects11:EffectNonRuntime.obj
 0001:00020440       ?SetUnorderedAccessViewArray@?$TUnorderedAccessViewVariable@U?$TVariable@U?$TMember@UID3DX11EffectUnorderedAccessViewVariable@@@D3DX11Effects@@@D3DX11Effects@@@D3DX11Effects@@UEAAJPEAPEAUID3D11UnorderedAccessView@@II@Z 0000000180021440 f i effects11:EffectNonRuntime.obj
 0001:000204d0       ?GetUnorderedAccessViewArray@?$TUnorderedAccessViewVariable@U?$TVariable@U?$TMember@UID3DX11EffectUnorderedAccessViewVariable@@@D3DX11Effects@@@D3DX11Effects@@@D3DX11Effects@@UEAAJPEAPEAUID3D11UnorderedAccessView@@II@Z 00000001800214d0 f i effects11:EffectNonRuntime.obj
 0001:00020540       ??0?$TShaderVariable@U?$TVariable@U?$TMember@UID3DX11EffectShaderVariable@@@D3DX11Effects@@@D3DX11Effects@@@D3DX11Effects@@QEAA@XZ 0000000180021540 f i effects11:EffectNonRuntime.obj
 0001:00020580       ?GetShaderDesc@?$TShaderVariable@U?$TVariable@U?$TMember@UID3DX11EffectShaderVariable@@@D3DX11Effects@@@D3DX11Effects@@@D3DX11Effects@@UEAAJIPEAU_D3DX11_EFFECT_SHADER_DESC@@@Z 0000000180021580 f i effects11:EffectNonRuntime.obj
 0001:000205b0       ?GetVertexShader@?$TShaderVariable@U?$TVariable@U?$TMember@UID3DX11EffectShaderVariable@@@D3DX11Effects@@@D3DX11Effects@@@D3DX11Effects@@UEAAJIPEAPEAUID3D11VertexShader@@@Z 00000001800215b0 f i effects11:EffectNonRuntime.obj
 0001:00020610       ?GetGeometryShader@?$TShaderVariable@U?$TVariable@U?$TMember@UID3DX11EffectShaderVariable@@@D3DX11Effects@@@D3DX11Effects@@@D3DX11Effects@@UEAAJIPEAPEAUID3D11GeometryShader@@@Z 0000000180021610 f i effects11:EffectNonRuntime.obj
 0001:00020680       ?GetPixelShader@?$TShaderVariable@U?$TVariable@U?$TMember@UID3DX11EffectShaderVariable@@@D3DX11Effects@@@D3DX11Effects@@@D3DX11Effects@@UEAAJIPEAPEAUID3D11PixelShader@@@Z 0000000180021680 f i effects11:EffectNonRuntime.obj
 0001:000206e0       ?GetHullShader@?$TShaderVariable@U?$TVariable@U?$TMember@UID3DX11EffectShaderVariable@@@D3DX11Effects@@@D3DX11Effects@@@D3DX11Effects@@UEAAJIPEAPEAUID3D11HullShader@@@Z 00000001800216e0 f i effects11:EffectNonRuntime.obj
 0001:00020730       ?GetDomainShader@?$TShaderVariable@U?$TVariable@U?$TMember@UID3DX11EffectShaderVariable@@@D3DX11Effects@@@D3DX11Effects@@@D3DX11Effects@@UEAAJIPEAPEAUID3D11DomainShader@@@Z 0000000180021730 f i effects11:EffectNonRuntime.obj
 0001:00020780       ?GetComputeShader@?$TShaderVariable@U?$TVariable@U?$TMember@UID3DX11EffectShaderVariable@@@D3DX11Effects@@@D3DX11Effects@@@D3DX11Effects@@UEAAJIPEAPEAUID3D11ComputeShader@@@Z 0000000180021780 f i effects11:EffectNonRuntime.obj
 0001:000207d0       ?GetInputSignatureElementDesc@?$TShaderVariable@U?$TVariable@U?$TMember@UID3DX11EffectShaderVariable@@@D3DX11Effects@@@D3DX11Effects@@@D3DX11Effects@@UEAAJIIPEAU_D3D11_SIGNATURE_PARAMETER_DESC@@@Z 00000001800217d0 f i effects11:EffectNonRuntime.obj
 0001:00020970       ?GetOutputSignatureElementDesc@?$TShaderVariable@U?$TVariable@U?$TMember@UID3DX11EffectShaderVariable@@@D3DX11Effects@@@D3DX11Effects@@@D3DX11Effects@@UEAAJIIPEAU_D3D11_SIGNATURE_PARAMETER_DESC@@@Z 0000000180021970 f i effects11:EffectNonRuntime.obj
 0001:00020ab0       ?GetPatchConstantSignatureElementDesc@?$TShaderVariable@U?$TVariable@U?$TMember@UID3DX11EffectShaderVariable@@@D3DX11Effects@@@D3DX11Effects@@@D3DX11Effects@@UEAAJIIPEAU_D3D11_SIGNATURE_PARAMETER_DESC@@@Z 0000000180021ab0 f i effects11:EffectNonRuntime.obj
 0001:00020c00       ?IsValid@?$TShaderVariable@U?$TVariable@U?$TMember@UID3DX11EffectShaderVariable@@@D3DX11Effects@@@D3DX11Effects@@@D3DX11Effects@@UEAAHXZ 0000000180021c00 f i effects11:EffectNonRuntime.obj
 0001:00020c50       ??0?$TBlendVariable@U?$TVariable@U?$TMember@UID3DX11EffectBlendVariable@@@D3DX11Effects@@@D3DX11Effects@@@D3DX11Effects@@QEAA@XZ 0000000180021c50 f i effects11:EffectNonRuntime.obj
 0001:00020c90       ??0CD3D11_BLEND_DESC@@QEAA@UCD3D11_DEFAULT@@@Z 0000000180021c90 f i effects11:EffectNonRuntime.obj
 0001:00020ee0       ??1CD3D11_BLEND_DESC@@QEAA@XZ 0000000180021ee0 f i effects11:EffectNonRuntime.obj
 0001:00020ef0       ?GetBlendState@?$TBlendVariable@U?$TVariable@U?$TMember@UID3DX11EffectBlendVariable@@@D3DX11Effects@@@D3DX11Effects@@@D3DX11Effects@@UEAAJIPEAPEAUID3D11BlendState@@@Z 0000000180021ef0 f i effects11:EffectNonRuntime.obj
 0001:00020f20       ?SetBlendState@?$TBlendVariable@U?$TVariable@U?$TMember@UID3DX11EffectBlendVariable@@@D3DX11Effects@@@D3DX11Effects@@@D3DX11Effects@@UEAAJIPEAUID3D11BlendState@@@Z 0000000180021f20 f i effects11:EffectNonRuntime.obj
 0001:00020ff0       ?UndoSetBlendState@?$TBlendVariable@U?$TVariable@U?$TMember@UID3DX11EffectBlendVariable@@@D3DX11Effects@@@D3DX11Effects@@@D3DX11Effects@@UEAAJI@Z 0000000180021ff0 f i effects11:EffectNonRuntime.obj
 0001:00021090       ?GetBackingStore@?$TBlendVariable@U?$TVariable@U?$TMember@UID3DX11EffectBlendVariable@@@D3DX11Effects@@@D3DX11Effects@@@D3DX11Effects@@UEAAJIPEAUD3D11_BLEND_DESC@@@Z 0000000180022090 f i effects11:EffectNonRuntime.obj
 0001:00021140       ?IsValid@?$TBlendVariable@U?$TVariable@U?$TMember@UID3DX11EffectBlendVariable@@@D3DX11Effects@@@D3DX11Effects@@@D3DX11Effects@@UEAAHXZ 0000000180022140 f i effects11:EffectNonRuntime.obj
 0001:00021190       ??0?$TRasterizerVariable@U?$TVariable@U?$TMember@UID3DX11EffectRasterizerVariable@@@D3DX11Effects@@@D3DX11Effects@@@D3DX11Effects@@QEAA@XZ 0000000180022190 f i effects11:EffectNonRuntime.obj
 0001:000211d0       ??0CD3D11_RASTERIZER_DESC@@QEAA@UCD3D11_DEFAULT@@@Z 00000001800221d0 f i effects11:EffectNonRuntime.obj
 0001:00021200       ??1CD3D11_RASTERIZER_DESC@@QEAA@XZ 0000000180022200 f i effects11:EffectNonRuntime.obj
 0001:00021210       ?GetRasterizerState@?$TRasterizerVariable@U?$TVariable@U?$TMember@UID3DX11EffectRasterizerVariable@@@D3DX11Effects@@@D3DX11Effects@@@D3DX11Effects@@UEAAJIPEAPEAUID3D11RasterizerState@@@Z 0000000180022210 f i effects11:EffectNonRuntime.obj
 0001:00021240       ?SetRasterizerState@?$TRasterizerVariable@U?$TVariable@U?$TMember@UID3DX11EffectRasterizerVariable@@@D3DX11Effects@@@D3DX11Effects@@@D3DX11Effects@@UEAAJIPEAUID3D11RasterizerState@@@Z 0000000180022240 f i effects11:EffectNonRuntime.obj
 0001:00021310       ?UndoSetRasterizerState@?$TRasterizerVariable@U?$TVariable@U?$TMember@UID3DX11EffectRasterizerVariable@@@D3DX11Effects@@@D3DX11Effects@@@D3DX11Effects@@UEAAJI@Z 0000000180022310 f i effects11:EffectNonRuntime.obj
 0001:000213b0       ?GetBackingStore@?$TRasterizerVariable@U?$TVariable@U?$TMember@UID3DX11EffectRasterizerVariable@@@D3DX11Effects@@@D3DX11Effects@@@D3DX11Effects@@UEAAJIPEAUD3D11_RASTERIZER_DESC@@@Z 00000001800223b0 f i effects11:EffectNonRuntime.obj
 0001:00021480       ?IsValid@?$TRasterizerVariable@U?$TVariable@U?$TMember@UID3DX11EffectRasterizerVariable@@@D3DX11Effects@@@D3DX11Effects@@@D3DX11Effects@@UEAAHXZ 0000000180022480 f i effects11:EffectNonRuntime.obj
 0001:000214d0       ??0?$TDepthStencilVariable@U?$TVariable@U?$TMember@UID3DX11EffectDepthStencilVariable@@@D3DX11Effects@@@D3DX11Effects@@@D3DX11Effects@@QEAA@XZ 00000001800224d0 f i effects11:EffectNonRuntime.obj
 0001:00021510       ??0CD3D11_DEPTH_STENCIL_DESC@@QEAA@UCD3D11_DEFAULT@@@Z 0000000180022510 f i effects11:EffectNonRuntime.obj
 0001:000215a0       ??1CD3D11_DEPTH_STENCIL_DESC@@QEAA@XZ 00000001800225a0 f i effects11:EffectNonRuntime.obj
 0001:000215b0       ?GetDepthStencilState@?$TDepthStencilVariable@U?$TVariable@U?$TMember@UID3DX11EffectDepthStencilVariable@@@D3DX11Effects@@@D3DX11Effects@@@D3DX11Effects@@UEAAJIPEAPEAUID3D11DepthStencilState@@@Z 00000001800225b0 f i effects11:EffectNonRuntime.obj
 0001:000215e0       ?SetDepthStencilState@?$TDepthStencilVariable@U?$TVariable@U?$TMember@UID3DX11EffectDepthStencilVariable@@@D3DX11Effects@@@D3DX11Effects@@@D3DX11Effects@@UEAAJIPEAUID3D11DepthStencilState@@@Z 00000001800225e0 f i effects11:EffectNonRuntime.obj
 0001:000216b0       ?UndoSetDepthStencilState@?$TDepthStencilVariable@U?$TVariable@U?$TMember@UID3DX11EffectDepthStencilVariable@@@D3DX11Effects@@@D3DX11Effects@@@D3DX11Effects@@UEAAJI@Z 00000001800226b0 f i effects11:EffectNonRuntime.obj
 0001:00021750       ?GetBackingStore@?$TDepthStencilVariable@U?$TVariable@U?$TMember@UID3DX11EffectDepthStencilVariable@@@D3DX11Effects@@@D3DX11Effects@@@D3DX11Effects@@UEAAJIPEAUD3D11_DEPTH_STENCIL_DESC@@@Z 0000000180022750 f i effects11:EffectNonRuntime.obj
 0001:00021880       ?IsValid@?$TDepthStencilVariable@U?$TVariable@U?$TMember@UID3DX11EffectDepthStencilVariable@@@D3DX11Effects@@@D3DX11Effects@@@D3DX11Effects@@UEAAHXZ 0000000180022880 f i effects11:EffectNonRuntime.obj
 0001:000218d0       ??0?$TSamplerVariable@U?$TVariable@U?$TMember@UID3DX11EffectSamplerVariable@@@D3DX11Effects@@@D3DX11Effects@@@D3DX11Effects@@QEAA@XZ 00000001800228d0 f i effects11:EffectNonRuntime.obj
 0001:00021910       ??0CD3D11_SAMPLER_DESC@@QEAA@UCD3D11_DEFAULT@@@Z 0000000180022910 f i effects11:EffectNonRuntime.obj
 0001:00021970       ??1CD3D11_SAMPLER_DESC@@QEAA@XZ 0000000180022970 f i effects11:EffectNonRuntime.obj
 0001:00021980       ?GetSampler@?$TSamplerVariable@U?$TVariable@U?$TMember@UID3DX11EffectSamplerVariable@@@D3DX11Effects@@@D3DX11Effects@@@D3DX11Effects@@UEAAJIPEAPEAUID3D11SamplerState@@@Z 0000000180022980 f i effects11:EffectNonRuntime.obj
 0001:000219b0       ?GetBackingStore@?$TSamplerVariable@U?$TVariable@U?$TMember@UID3DX11EffectSamplerVariable@@@D3DX11Effects@@@D3DX11Effects@@@D3DX11Effects@@UEAAJIPEAUD3D11_SAMPLER_DESC@@@Z 00000001800229b0 f i effects11:EffectNonRuntime.obj
 0001:00021ac0       ?GetEffect@?$TMember@UID3DX11EffectSamplerVariable@@@D3DX11Effects@@QEAAPEAVCEffect@2@XZ 0000000180022ac0 f i effects11:EffectNonRuntime.obj
 0001:00021ad0       ?SetSampler@?$TSamplerVariable@U?$TVariable@U?$TMember@UID3DX11EffectSamplerVariable@@@D3DX11Effects@@@D3DX11Effects@@@D3DX11Effects@@UEAAJIPEAUID3D11SamplerState@@@Z 0000000180022ad0 f i effects11:EffectNonRuntime.obj
 0001:00021ba0       ?UndoSetSampler@?$TSamplerVariable@U?$TVariable@U?$TMember@UID3DX11EffectSamplerVariable@@@D3DX11Effects@@@D3DX11Effects@@@D3DX11Effects@@UEAAJI@Z 0000000180022ba0 f i effects11:EffectNonRuntime.obj
 0001:00021c60       ??0?$TDepthStencilViewVariable@U?$TVariable@U?$TMember@UID3DX11EffectDepthStencilViewVariable@@@D3DX11Effects@@@D3DX11Effects@@@D3DX11Effects@@QEAA@XZ 0000000180022c60 f i effects11:EffectNonRuntime.obj
 0001:00021ca0       ?SetDepthStencil@?$TDepthStencilViewVariable@U?$TVariable@U?$TMember@UID3DX11EffectDepthStencilViewVariable@@@D3DX11Effects@@@D3DX11Effects@@@D3DX11Effects@@UEAAJPEAUID3D11DepthStencilView@@@Z 0000000180022ca0 f i effects11:EffectNonRuntime.obj
 0001:00021cf0       ?GetDepthStencil@?$TDepthStencilViewVariable@U?$TVariable@U?$TMember@UID3DX11EffectDepthStencilViewVariable@@@D3DX11Effects@@@D3DX11Effects@@@D3DX11Effects@@UEAAJPEAPEAUID3D11DepthStencilView@@@Z 0000000180022cf0 f i effects11:EffectNonRuntime.obj
 0001:00021d10       ?SetDepthStencilArray@?$TDepthStencilViewVariable@U?$TVariable@U?$TMember@UID3DX11EffectDepthStencilViewVariable@@@D3DX11Effects@@@D3DX11Effects@@@D3DX11Effects@@UEAAJPEAPEAUID3D11DepthStencilView@@II@Z 0000000180022d10 f i effects11:EffectNonRuntime.obj
 0001:00021da0       ?GetDepthStencilArray@?$TDepthStencilViewVariable@U?$TVariable@U?$TMember@UID3DX11EffectDepthStencilViewVariable@@@D3DX11Effects@@@D3DX11Effects@@@D3DX11Effects@@UEAAJPEAPEAUID3D11DepthStencilView@@II@Z 0000000180022da0 f i effects11:EffectNonRuntime.obj
 0001:00021e10       ??0?$TRenderTargetViewVariable@U?$TVariable@U?$TMember@UID3DX11EffectRenderTargetViewVariable@@@D3DX11Effects@@@D3DX11Effects@@@D3DX11Effects@@QEAA@XZ 0000000180022e10 f i effects11:EffectNonRuntime.obj
 0001:00021e50       ?SetRenderTarget@?$TRenderTargetViewVariable@U?$TVariable@U?$TMember@UID3DX11EffectRenderTargetViewVariable@@@D3DX11Effects@@@D3DX11Effects@@@D3DX11Effects@@UEAAJPEAUID3D11RenderTargetView@@@Z 0000000180022e50 f i effects11:EffectNonRuntime.obj
 0001:00021ea0       ?GetRenderTarget@?$TRenderTargetViewVariable@U?$TVariable@U?$TMember@UID3DX11EffectRenderTargetViewVariable@@@D3DX11Effects@@@D3DX11Effects@@@D3DX11Effects@@UEAAJPEAPEAUID3D11RenderTargetView@@@Z 0000000180022ea0 f i effects11:EffectNonRuntime.obj
 0001:00021ec0       ?SetRenderTargetArray@?$TRenderTargetViewVariable@U?$TVariable@U?$TMember@UID3DX11EffectRenderTargetViewVariable@@@D3DX11Effects@@@D3DX11Effects@@@D3DX11Effects@@UEAAJPEAPEAUID3D11RenderTargetView@@II@Z 0000000180022ec0 f i effects11:EffectNonRuntime.obj
 0001:00021f50       ?GetRenderTargetArray@?$TRenderTargetViewVariable@U?$TVariable@U?$TMember@UID3DX11EffectRenderTargetViewVariable@@@D3DX11Effects@@@D3DX11Effects@@@D3DX11Effects@@UEAAJPEAPEAUID3D11RenderTargetView@@II@Z 0000000180022f50 f i effects11:EffectNonRuntime.obj
 0001:00021fc0       ??0?$TNumericVariable@U?$TVariable@U?$TMember@UID3DX11EffectMatrixVariable@@@D3DX11Effects@@@D3DX11Effects@@$00@D3DX11Effects@@QEAA@XZ 0000000180022fc0 f i effects11:EffectNonRuntime.obj
 0001:00022000       ?GetRawValue@?$TNumericVariable@U?$TVariable@U?$TMember@UID3DX11EffectMatrixVariable@@@D3DX11Effects@@@D3DX11Effects@@$00@D3DX11Effects@@UEAAJPEAXII@Z 0000000180023000 f i effects11:EffectNonRuntime.obj
 0001:00022030       ?DirtyVariable@?$TMember@UID3DX11EffectMatrixVariable@@@D3DX11Effects@@QEAAXXZ 0000000180023030 f i effects11:EffectNonRuntime.obj
 0001:00022050       ?SetRawValue@?$TNumericVariable@U?$TVariable@U?$TMember@UID3DX11EffectMatrixVariable@@@D3DX11Effects@@@D3DX11Effects@@$00@D3DX11Effects@@UEAAJPEBXII@Z 0000000180023050 f i effects11:EffectNonRuntime.obj
 0001:00022060       ??0?$TNumericVariable@U?$TVariable@U?$TMember@UID3DX11EffectMatrixVariable@@@D3DX11Effects@@@D3DX11Effects@@$0A@@D3DX11Effects@@QEAA@XZ 0000000180023060 f i effects11:EffectNonRuntime.obj
 0001:000220a0       ?GetRawValue@?$TNumericVariable@U?$TVariable@U?$TMember@UID3DX11EffectMatrixVariable@@@D3DX11Effects@@@D3DX11Effects@@$0A@@D3DX11Effects@@UEAAJPEAXII@Z 00000001800230a0 f i effects11:EffectNonRuntime.obj
 0001:000220d0       ?SetRawValue@?$TNumericVariable@U?$TVariable@U?$TMember@UID3DX11EffectMatrixVariable@@@D3DX11Effects@@@D3DX11Effects@@$0A@@D3DX11Effects@@UEAAJPEBXII@Z 00000001800230d0 f i effects11:EffectNonRuntime.obj
 0001:00022120       ??0?$TNumericVariable@U?$TVariable@U?$TMember@UID3DX11EffectVectorVariable@@@D3DX11Effects@@@D3DX11Effects@@$00@D3DX11Effects@@QEAA@XZ 0000000180023120 f i effects11:EffectNonRuntime.obj
 0001:00022160       ?GetRawValue@?$TNumericVariable@U?$TVariable@U?$TMember@UID3DX11EffectVectorVariable@@@D3DX11Effects@@@D3DX11Effects@@$00@D3DX11Effects@@UEAAJPEAXII@Z 0000000180023160 f i effects11:EffectNonRuntime.obj
 0001:00022190       ?DirtyVariable@?$TMember@UID3DX11EffectVectorVariable@@@D3DX11Effects@@QEAAXXZ 0000000180023190 f i effects11:EffectNonRuntime.obj
 0001:000221b0       ?SetRawValue@?$TNumericVariable@U?$TVariable@U?$TMember@UID3DX11EffectVectorVariable@@@D3DX11Effects@@@D3DX11Effects@@$00@D3DX11Effects@@UEAAJPEBXII@Z 00000001800231b0 f i effects11:EffectNonRuntime.obj
 0001:000221c0       ??0?$TNumericVariable@U?$TVariable@U?$TMember@UID3DX11EffectVectorVariable@@@D3DX11Effects@@@D3DX11Effects@@$0A@@D3DX11Effects@@QEAA@XZ 00000001800231c0 f i effects11:EffectNonRuntime.obj
 0001:00022200       ?GetRawValue@?$TNumericVariable@U?$TVariable@U?$TMember@UID3DX11EffectVectorVariable@@@D3DX11Effects@@@D3DX11Effects@@$0A@@D3DX11Effects@@UEAAJPEAXII@Z 0000000180023200 f i effects11:EffectNonRuntime.obj
 0001:00022230       ?SetRawValue@?$TNumericVariable@U?$TVariable@U?$TMember@UID3DX11EffectVectorVariable@@@D3DX11Effects@@@D3DX11Effects@@$0A@@D3DX11Effects@@UEAAJPEBXII@Z 0000000180023230 f i effects11:EffectNonRuntime.obj
 0001:00022280       ??0?$TNumericVariable@U?$TVariable@U?$TMember@UID3DX11EffectScalarVariable@@@D3DX11Effects@@@D3DX11Effects@@$00@D3DX11Effects@@QEAA@XZ 0000000180023280 f i effects11:EffectNonRuntime.obj
 0001:000222c0       ?GetRawValue@?$TNumericVariable@U?$TVariable@U?$TMember@UID3DX11EffectScalarVariable@@@D3DX11Effects@@@D3DX11Effects@@$00@D3DX11Effects@@UEAAJPEAXII@Z 00000001800232c0 f i effects11:EffectNonRuntime.obj
 0001:000222f0       ?DirtyVariable@?$TMember@UID3DX11EffectScalarVariable@@@D3DX11Effects@@QEAAXXZ 00000001800232f0 f i effects11:EffectNonRuntime.obj
 0001:00022310       ?SetRawValue@?$TNumericVariable@U?$TVariable@U?$TMember@UID3DX11EffectScalarVariable@@@D3DX11Effects@@@D3DX11Effects@@$00@D3DX11Effects@@UEAAJPEBXII@Z 0000000180023310 f i effects11:EffectNonRuntime.obj
 0001:00022320       ??0?$TNumericVariable@U?$TVariable@U?$TMember@UID3DX11EffectScalarVariable@@@D3DX11Effects@@@D3DX11Effects@@$0A@@D3DX11Effects@@QEAA@XZ 0000000180023320 f i effects11:EffectNonRuntime.obj
 0001:00022360       ?GetRawValue@?$TNumericVariable@U?$TVariable@U?$TMember@UID3DX11EffectScalarVariable@@@D3DX11Effects@@@D3DX11Effects@@$0A@@D3DX11Effects@@UEAAJPEAXII@Z 0000000180023360 f i effects11:EffectNonRuntime.obj
 0001:00022390       ?SetRawValue@?$TNumericVariable@U?$TVariable@U?$TMember@UID3DX11EffectScalarVariable@@@D3DX11Effects@@@D3DX11Effects@@$0A@@D3DX11Effects@@UEAAJPEBXII@Z 0000000180023390 f i effects11:EffectNonRuntime.obj
 0001:000223e0       ??0SNumericGlobalVariable@D3DX11Effects@@QEAA@XZ 00000001800233e0 f i effects11:EffectNonRuntime.obj
 0001:00022430       ??0?$TNumericVariable@U?$TAnnotation@UID3DX11EffectVariable@@@D3DX11Effects@@$00@D3DX11Effects@@QEAA@XZ 0000000180023430 f i effects11:EffectNonRuntime.obj
 0001:00022470       ?GetRawValue@?$TNumericVariable@U?$TAnnotation@UID3DX11EffectVariable@@@D3DX11Effects@@$00@D3DX11Effects@@UEAAJPEAXII@Z 0000000180023470 f i effects11:EffectNonRuntime.obj
 0001:000224a0       ?DirtyVariable@?$TAnnotation@UID3DX11EffectVariable@@@D3DX11Effects@@QEAAXXZ 00000001800234a0 f i effects11:EffectNonRuntime.obj
 0001:000224b0       ?SetRawValue@?$TNumericVariable@U?$TAnnotation@UID3DX11EffectVariable@@@D3DX11Effects@@$00@D3DX11Effects@@UEAAJPEBXII@Z 00000001800234b0 f i effects11:EffectNonRuntime.obj
 0001:000224c0       ??0?$TClassInstanceVariable@U?$TGlobalVariable@UID3DX11EffectClassInstanceVariable@@@D3DX11Effects@@@D3DX11Effects@@QEAA@XZ 00000001800234c0 f i effects11:EffectNonRuntime.obj
 0001:00022510       ?GetClassInstance@?$TClassInstanceVariable@U?$TGlobalVariable@UID3DX11EffectClassInstanceVariable@@@D3DX11Effects@@@D3DX11Effects@@UEAAJPEAPEAUID3D11ClassInstance@@@Z 0000000180023510 f i effects11:EffectNonRuntime.obj
 0001:00022540       ??0?$TInterfaceVariable@U?$TGlobalVariable@UID3DX11EffectInterfaceVariable@@@D3DX11Effects@@@D3DX11Effects@@QEAA@XZ 0000000180023540 f i effects11:EffectNonRuntime.obj
 0001:00022590       ?SetClassInstance@?$TInterfaceVariable@U?$TGlobalVariable@UID3DX11EffectInterfaceVariable@@@D3DX11Effects@@@D3DX11Effects@@UEAAJPEAUID3DX11EffectClassInstanceVariable@@@Z 0000000180023590 f i effects11:EffectNonRuntime.obj
 0001:000225a0       ?GetClassInstance@?$TInterfaceVariable@U?$TGlobalVariable@UID3DX11EffectInterfaceVariable@@@D3DX11Effects@@@D3DX11Effects@@UEAAJPEAPEAUID3DX11EffectClassInstanceVariable@@@Z 00000001800235a0 f i effects11:EffectNonRuntime.obj
 0001:000225b0       ??0?$TStringVariable@U?$TGlobalVariable@UID3DX11EffectStringVariable@@@D3DX11Effects@@$0A@@D3DX11Effects@@QEAA@XZ 00000001800235b0 f i effects11:EffectNonRuntime.obj
 0001:00022600       ?GetString@?$TStringVariable@U?$TGlobalVariable@UID3DX11EffectStringVariable@@@D3DX11Effects@@$0A@@D3DX11Effects@@UEAAJPEAPEBD@Z 0000000180023600 f i effects11:EffectNonRuntime.obj
 0001:00022680       ?GetStringArray@?$TStringVariable@U?$TGlobalVariable@UID3DX11EffectStringVariable@@@D3DX11Effects@@$0A@@D3DX11Effects@@UEAAJPEAPEBDII@Z 0000000180023680 f i effects11:EffectNonRuntime.obj
 0001:00022710       ??0?$TShaderResourceVariable@U?$TGlobalVariable@UID3DX11EffectShaderResourceVariable@@@D3DX11Effects@@@D3DX11Effects@@QEAA@XZ 0000000180023710 f i effects11:EffectNonRuntime.obj
 0001:00022760       ?SetResource@?$TShaderResourceVariable@U?$TGlobalVariable@UID3DX11EffectShaderResourceVariable@@@D3DX11Effects@@@D3DX11Effects@@UEAAJPEAUID3D11ShaderResourceView@@@Z 0000000180023760 f i effects11:EffectNonRuntime.obj
 0001:000227b0       ?GetResource@?$TShaderResourceVariable@U?$TGlobalVariable@UID3DX11EffectShaderResourceVariable@@@D3DX11Effects@@@D3DX11Effects@@UEAAJPEAPEAUID3D11ShaderResourceView@@@Z 00000001800237b0 f i effects11:EffectNonRuntime.obj
 0001:000227d0       ?SetResourceArray@?$TShaderResourceVariable@U?$TGlobalVariable@UID3DX11EffectShaderResourceVariable@@@D3DX11Effects@@@D3DX11Effects@@UEAAJPEAPEAUID3D11ShaderResourceView@@II@Z 00000001800237d0 f i effects11:EffectNonRuntime.obj
 0001:00022860       ?GetResourceArray@?$TShaderResourceVariable@U?$TGlobalVariable@UID3DX11EffectShaderResourceVariable@@@D3DX11Effects@@@D3DX11Effects@@UEAAJPEAPEAUID3D11ShaderResourceView@@II@Z 0000000180023860 f i effects11:EffectNonRuntime.obj
 0001:000228d0       ??0?$TUnorderedAccessViewVariable@U?$TGlobalVariable@UID3DX11EffectUnorderedAccessViewVariable@@@D3DX11Effects@@@D3DX11Effects@@QEAA@XZ 00000001800238d0 f i effects11:EffectNonRuntime.obj
 0001:00022920       ?SetUnorderedAccessView@?$TUnorderedAccessViewVariable@U?$TGlobalVariable@UID3DX11EffectUnorderedAccessViewVariable@@@D3DX11Effects@@@D3DX11Effects@@UEAAJPEAUID3D11UnorderedAccessView@@@Z 0000000180023920 f i effects11:EffectNonRuntime.obj
 0001:00022970       ?GetUnorderedAccessView@?$TUnorderedAccessViewVariable@U?$TGlobalVariable@UID3DX11EffectUnorderedAccessViewVariable@@@D3DX11Effects@@@D3DX11Effects@@UEAAJPEAPEAUID3D11UnorderedAccessView@@@Z 0000000180023970 f i effects11:EffectNonRuntime.obj
 0001:00022990       ?SetUnorderedAccessViewArray@?$TUnorderedAccessViewVariable@U?$TGlobalVariable@UID3DX11EffectUnorderedAccessViewVariable@@@D3DX11Effects@@@D3DX11Effects@@UEAAJPEAPEAUID3D11UnorderedAccessView@@II@Z 0000000180023990 f i effects11:EffectNonRuntime.obj
 0001:00022a20       ?GetUnorderedAccessViewArray@?$TUnorderedAccessViewVariable@U?$TGlobalVariable@UID3DX11EffectUnorderedAccessViewVariable@@@D3DX11Effects@@@D3DX11Effects@@UEAAJPEAPEAUID3D11UnorderedAccessView@@II@Z 0000000180023a20 f i effects11:EffectNonRuntime.obj
 0001:00022a90       ??0?$TShaderVariable@U?$TGlobalVariable@UID3DX11EffectShaderVariable@@@D3DX11Effects@@@D3DX11Effects@@QEAA@XZ 0000000180023a90 f i effects11:EffectNonRuntime.obj
 0001:00022ae0       ?GetShaderDesc@?$TShaderVariable@U?$TGlobalVariable@UID3DX11EffectShaderVariable@@@D3DX11Effects@@@D3DX11Effects@@UEAAJIPEAU_D3DX11_EFFECT_SHADER_DESC@@@Z 0000000180023ae0 f i effects11:EffectNonRuntime.obj
 0001:00022b10       ?GetVertexShader@?$TShaderVariable@U?$TGlobalVariable@UID3DX11EffectShaderVariable@@@D3DX11Effects@@@D3DX11Effects@@UEAAJIPEAPEAUID3D11VertexShader@@@Z 0000000180023b10 f i effects11:EffectNonRuntime.obj
 0001:00022b70       ?GetGeometryShader@?$TShaderVariable@U?$TGlobalVariable@UID3DX11EffectShaderVariable@@@D3DX11Effects@@@D3DX11Effects@@UEAAJIPEAPEAUID3D11GeometryShader@@@Z 0000000180023b70 f i effects11:EffectNonRuntime.obj
 0001:00022be0       ?GetPixelShader@?$TShaderVariable@U?$TGlobalVariable@UID3DX11EffectShaderVariable@@@D3DX11Effects@@@D3DX11Effects@@UEAAJIPEAPEAUID3D11PixelShader@@@Z 0000000180023be0 f i effects11:EffectNonRuntime.obj
 0001:00022c40       ?GetHullShader@?$TShaderVariable@U?$TGlobalVariable@UID3DX11EffectShaderVariable@@@D3DX11Effects@@@D3DX11Effects@@UEAAJIPEAPEAUID3D11HullShader@@@Z 0000000180023c40 f i effects11:EffectNonRuntime.obj
 0001:00022c90       ?GetDomainShader@?$TShaderVariable@U?$TGlobalVariable@UID3DX11EffectShaderVariable@@@D3DX11Effects@@@D3DX11Effects@@UEAAJIPEAPEAUID3D11DomainShader@@@Z 0000000180023c90 f i effects11:EffectNonRuntime.obj
 0001:00022ce0       ?GetComputeShader@?$TShaderVariable@U?$TGlobalVariable@UID3DX11EffectShaderVariable@@@D3DX11Effects@@@D3DX11Effects@@UEAAJIPEAPEAUID3D11ComputeShader@@@Z 0000000180023ce0 f i effects11:EffectNonRuntime.obj
 0001:00022d30       ?GetInputSignatureElementDesc@?$TShaderVariable@U?$TGlobalVariable@UID3DX11EffectShaderVariable@@@D3DX11Effects@@@D3DX11Effects@@UEAAJIIPEAU_D3D11_SIGNATURE_PARAMETER_DESC@@@Z 0000000180023d30 f i effects11:EffectNonRuntime.obj
 0001:00022ed0       ?GetOutputSignatureElementDesc@?$TShaderVariable@U?$TGlobalVariable@UID3DX11EffectShaderVariable@@@D3DX11Effects@@@D3DX11Effects@@UEAAJIIPEAU_D3D11_SIGNATURE_PARAMETER_DESC@@@Z 0000000180023ed0 f i effects11:EffectNonRuntime.obj
 0001:00023010       ?GetPatchConstantSignatureElementDesc@?$TShaderVariable@U?$TGlobalVariable@UID3DX11EffectShaderVariable@@@D3DX11Effects@@@D3DX11Effects@@UEAAJIIPEAU_D3D11_SIGNATURE_PARAMETER_DESC@@@Z 0000000180024010 f i effects11:EffectNonRuntime.obj
 0001:00023160       ?IsValid@?$TShaderVariable@U?$TGlobalVariable@UID3DX11EffectShaderVariable@@@D3DX11Effects@@@D3DX11Effects@@UEAAHXZ 0000000180024160 f i effects11:EffectNonRuntime.obj
 0001:000231b0       ??0?$TBlendVariable@U?$TGlobalVariable@UID3DX11EffectBlendVariable@@@D3DX11Effects@@@D3DX11Effects@@QEAA@XZ 00000001800241b0 f i effects11:EffectNonRuntime.obj
 0001:00023200       ?GetBlendState@?$TBlendVariable@U?$TGlobalVariable@UID3DX11EffectBlendVariable@@@D3DX11Effects@@@D3DX11Effects@@UEAAJIPEAPEAUID3D11BlendState@@@Z 0000000180024200 f i effects11:EffectNonRuntime.obj
 0001:00023230       ?SetBlendState@?$TBlendVariable@U?$TGlobalVariable@UID3DX11EffectBlendVariable@@@D3DX11Effects@@@D3DX11Effects@@UEAAJIPEAUID3D11BlendState@@@Z 0000000180024230 f i effects11:EffectNonRuntime.obj
 0001:00023300       ?UndoSetBlendState@?$TBlendVariable@U?$TGlobalVariable@UID3DX11EffectBlendVariable@@@D3DX11Effects@@@D3DX11Effects@@UEAAJI@Z 0000000180024300 f i effects11:EffectNonRuntime.obj
 0001:000233a0       ?GetBackingStore@?$TBlendVariable@U?$TGlobalVariable@UID3DX11EffectBlendVariable@@@D3DX11Effects@@@D3DX11Effects@@UEAAJIPEAUD3D11_BLEND_DESC@@@Z 00000001800243a0 f i effects11:EffectNonRuntime.obj
 0001:00023450       ?IsValid@?$TBlendVariable@U?$TGlobalVariable@UID3DX11EffectBlendVariable@@@D3DX11Effects@@@D3DX11Effects@@UEAAHXZ 0000000180024450 f i effects11:EffectNonRuntime.obj
 0001:000234a0       ??0?$TRasterizerVariable@U?$TGlobalVariable@UID3DX11EffectRasterizerVariable@@@D3DX11Effects@@@D3DX11Effects@@QEAA@XZ 00000001800244a0 f i effects11:EffectNonRuntime.obj
 0001:000234f0       ?GetRasterizerState@?$TRasterizerVariable@U?$TGlobalVariable@UID3DX11EffectRasterizerVariable@@@D3DX11Effects@@@D3DX11Effects@@UEAAJIPEAPEAUID3D11RasterizerState@@@Z 00000001800244f0 f i effects11:EffectNonRuntime.obj
 0001:00023520       ?SetRasterizerState@?$TRasterizerVariable@U?$TGlobalVariable@UID3DX11EffectRasterizerVariable@@@D3DX11Effects@@@D3DX11Effects@@UEAAJIPEAUID3D11RasterizerState@@@Z 0000000180024520 f i effects11:EffectNonRuntime.obj
 0001:000235f0       ?UndoSetRasterizerState@?$TRasterizerVariable@U?$TGlobalVariable@UID3DX11EffectRasterizerVariable@@@D3DX11Effects@@@D3DX11Effects@@UEAAJI@Z 00000001800245f0 f i effects11:EffectNonRuntime.obj
 0001:00023690       ?GetBackingStore@?$TRasterizerVariable@U?$TGlobalVariable@UID3DX11EffectRasterizerVariable@@@D3DX11Effects@@@D3DX11Effects@@UEAAJIPEAUD3D11_RASTERIZER_DESC@@@Z 0000000180024690 f i effects11:EffectNonRuntime.obj
 0001:00023760       ?IsValid@?$TRasterizerVariable@U?$TGlobalVariable@UID3DX11EffectRasterizerVariable@@@D3DX11Effects@@@D3DX11Effects@@UEAAHXZ 0000000180024760 f i effects11:EffectNonRuntime.obj
 0001:000237b0       ??0?$TDepthStencilVariable@U?$TGlobalVariable@UID3DX11EffectDepthStencilVariable@@@D3DX11Effects@@@D3DX11Effects@@QEAA@XZ 00000001800247b0 f i effects11:EffectNonRuntime.obj
 0001:00023800       ?GetDepthStencilState@?$TDepthStencilVariable@U?$TGlobalVariable@UID3DX11EffectDepthStencilVariable@@@D3DX11Effects@@@D3DX11Effects@@UEAAJIPEAPEAUID3D11DepthStencilState@@@Z 0000000180024800 f i effects11:EffectNonRuntime.obj
 0001:00023830       ?SetDepthStencilState@?$TDepthStencilVariable@U?$TGlobalVariable@UID3DX11EffectDepthStencilVariable@@@D3DX11Effects@@@D3DX11Effects@@UEAAJIPEAUID3D11DepthStencilState@@@Z 0000000180024830 f i effects11:EffectNonRuntime.obj
 0001:00023900       ?UndoSetDepthStencilState@?$TDepthStencilVariable@U?$TGlobalVariable@UID3DX11EffectDepthStencilVariable@@@D3DX11Effects@@@D3DX11Effects@@UEAAJI@Z 0000000180024900 f i effects11:EffectNonRuntime.obj
 0001:000239a0       ?GetBackingStore@?$TDepthStencilVariable@U?$TGlobalVariable@UID3DX11EffectDepthStencilVariable@@@D3DX11Effects@@@D3DX11Effects@@UEAAJIPEAUD3D11_DEPTH_STENCIL_DESC@@@Z 00000001800249a0 f i effects11:EffectNonRuntime.obj
 0001:00023ac0       ?IsValid@?$TDepthStencilVariable@U?$TGlobalVariable@UID3DX11EffectDepthStencilVariable@@@D3DX11Effects@@@D3DX11Effects@@UEAAHXZ 0000000180024ac0 f i effects11:EffectNonRuntime.obj
 0001:00023b10       ??0?$TSamplerVariable@U?$TGlobalVariable@UID3DX11EffectSamplerVariable@@@D3DX11Effects@@@D3DX11Effects@@QEAA@XZ 0000000180024b10 f i effects11:EffectNonRuntime.obj
 0001:00023b60       ?GetSampler@?$TSamplerVariable@U?$TGlobalVariable@UID3DX11EffectSamplerVariable@@@D3DX11Effects@@@D3DX11Effects@@UEAAJIPEAPEAUID3D11SamplerState@@@Z 0000000180024b60 f i effects11:EffectNonRuntime.obj
 0001:00023b90       ?GetBackingStore@?$TSamplerVariable@U?$TGlobalVariable@UID3DX11EffectSamplerVariable@@@D3DX11Effects@@@D3DX11Effects@@UEAAJIPEAUD3D11_SAMPLER_DESC@@@Z 0000000180024b90 f i effects11:EffectNonRuntime.obj
 0001:00023ca0       ?GetEffect@?$TTopLevelVariable@UID3DX11EffectSamplerVariable@@@D3DX11Effects@@QEAAPEAVCEffect@2@XZ 0000000180024ca0 f i effects11:EffectNonRuntime.obj
 0001:00023cb0       ?SetSampler@?$TSamplerVariable@U?$TGlobalVariable@UID3DX11EffectSamplerVariable@@@D3DX11Effects@@@D3DX11Effects@@UEAAJIPEAUID3D11SamplerState@@@Z 0000000180024cb0 f i effects11:EffectNonRuntime.obj
 0001:00023d80       ?UndoSetSampler@?$TSamplerVariable@U?$TGlobalVariable@UID3DX11EffectSamplerVariable@@@D3DX11Effects@@@D3DX11Effects@@UEAAJI@Z 0000000180024d80 f i effects11:EffectNonRuntime.obj
 0001:00023e40       ??0?$TRenderTargetViewVariable@U?$TGlobalVariable@UID3DX11EffectRenderTargetViewVariable@@@D3DX11Effects@@@D3DX11Effects@@QEAA@XZ 0000000180024e40 f i effects11:EffectNonRuntime.obj
 0001:00023e90       ?SetRenderTarget@?$TRenderTargetViewVariable@U?$TGlobalVariable@UID3DX11EffectRenderTargetViewVariable@@@D3DX11Effects@@@D3DX11Effects@@UEAAJPEAUID3D11RenderTargetView@@@Z 0000000180024e90 f i effects11:EffectNonRuntime.obj
 0001:00023ee0       ?GetRenderTarget@?$TRenderTargetViewVariable@U?$TGlobalVariable@UID3DX11EffectRenderTargetViewVariable@@@D3DX11Effects@@@D3DX11Effects@@UEAAJPEAPEAUID3D11RenderTargetView@@@Z 0000000180024ee0 f i effects11:EffectNonRuntime.obj
 0001:00023f00       ?SetRenderTargetArray@?$TRenderTargetViewVariable@U?$TGlobalVariable@UID3DX11EffectRenderTargetViewVariable@@@D3DX11Effects@@@D3DX11Effects@@UEAAJPEAPEAUID3D11RenderTargetView@@II@Z 0000000180024f00 f i effects11:EffectNonRuntime.obj
 0001:00023f90       ?GetRenderTargetArray@?$TRenderTargetViewVariable@U?$TGlobalVariable@UID3DX11EffectRenderTargetViewVariable@@@D3DX11Effects@@@D3DX11Effects@@UEAAJPEAPEAUID3D11RenderTargetView@@II@Z 0000000180024f90 f i effects11:EffectNonRuntime.obj
 0001:00024000       ??0?$TDepthStencilViewVariable@U?$TGlobalVariable@UID3DX11EffectDepthStencilViewVariable@@@D3DX11Effects@@@D3DX11Effects@@QEAA@XZ 0000000180025000 f i effects11:EffectNonRuntime.obj
 0001:00024050       ?SetDepthStencil@?$TDepthStencilViewVariable@U?$TGlobalVariable@UID3DX11EffectDepthStencilViewVariable@@@D3DX11Effects@@@D3DX11Effects@@UEAAJPEAUID3D11DepthStencilView@@@Z 0000000180025050 f i effects11:EffectNonRuntime.obj
 0001:000240a0       ?GetDepthStencil@?$TDepthStencilViewVariable@U?$TGlobalVariable@UID3DX11EffectDepthStencilViewVariable@@@D3DX11Effects@@@D3DX11Effects@@UEAAJPEAPEAUID3D11DepthStencilView@@@Z 00000001800250a0 f i effects11:EffectNonRuntime.obj
 0001:000240c0       ?SetDepthStencilArray@?$TDepthStencilViewVariable@U?$TGlobalVariable@UID3DX11EffectDepthStencilViewVariable@@@D3DX11Effects@@@D3DX11Effects@@UEAAJPEAPEAUID3D11DepthStencilView@@II@Z 00000001800250c0 f i effects11:EffectNonRuntime.obj
 0001:00024150       ?GetDepthStencilArray@?$TDepthStencilViewVariable@U?$TGlobalVariable@UID3DX11EffectDepthStencilViewVariable@@@D3DX11Effects@@@D3DX11Effects@@UEAAJPEAPEAUID3D11DepthStencilView@@II@Z 0000000180025150 f i effects11:EffectNonRuntime.obj
 0001:000241c0       ??0?$TAnnotation@UID3DX11EffectStringVariable@@@D3DX11Effects@@QEAA@XZ 00000001800251c0 f i effects11:EffectNonRuntime.obj
 0001:00024200       ?GetDesc@?$TAnnotation@UID3DX11EffectStringVariable@@@D3DX11Effects@@UEAAJPEAU_D3DX11_EFFECT_VARIABLE_DESC@@@Z 0000000180025200 f i effects11:EffectNonRuntime.obj
 0001:00024240       ?GetAnnotationByIndex@?$TAnnotation@UID3DX11EffectStringVariable@@@D3DX11Effects@@UEAAPEAUID3DX11EffectVariable@@I@Z 0000000180025240 f i effects11:EffectNonRuntime.obj
 0001:00024250       ?GetAnnotationByName@?$TAnnotation@UID3DX11EffectStringVariable@@@D3DX11Effects@@UEAAPEAUID3DX11EffectVariable@@PEBD@Z 0000000180025250 f i effects11:EffectNonRuntime.obj
 0001:00024260       ?GetParentConstantBuffer@?$TAnnotation@UID3DX11EffectStringVariable@@@D3DX11Effects@@UEAAPEAUID3DX11EffectConstantBuffer@@XZ 0000000180025260 f i effects11:EffectNonRuntime.obj
 0001:00024270       ??0?$TNumericVariable@U?$TGlobalVariable@UID3DX11EffectMatrixVariable@@@D3DX11Effects@@$0A@@D3DX11Effects@@QEAA@XZ 0000000180025270 f i effects11:EffectNonRuntime.obj
 0001:000242c0       ?GetRawValue@?$TNumericVariable@U?$TGlobalVariable@UID3DX11EffectMatrixVariable@@@D3DX11Effects@@$0A@@D3DX11Effects@@UEAAJPEAXII@Z 00000001800252c0 f i effects11:EffectNonRuntime.obj
 0001:000242f0       ?DirtyVariable@?$TGlobalVariable@UID3DX11EffectMatrixVariable@@@D3DX11Effects@@QEAAXXZ 00000001800252f0 f i effects11:EffectNonRuntime.obj
 0001:00024310       ?SetRawValue@?$TNumericVariable@U?$TGlobalVariable@UID3DX11EffectMatrixVariable@@@D3DX11Effects@@$0A@@D3DX11Effects@@UEAAJPEBXII@Z 0000000180025310 f i effects11:EffectNonRuntime.obj
 0001:00024350       ??0?$TNumericVariable@U?$TGlobalVariable@UID3DX11EffectVectorVariable@@@D3DX11Effects@@$0A@@D3DX11Effects@@QEAA@XZ 0000000180025350 f i effects11:EffectNonRuntime.obj
 0001:000243a0       ?GetRawValue@?$TNumericVariable@U?$TGlobalVariable@UID3DX11EffectVectorVariable@@@D3DX11Effects@@$0A@@D3DX11Effects@@UEAAJPEAXII@Z 00000001800253a0 f i effects11:EffectNonRuntime.obj
 0001:000243d0       ?DirtyVariable@?$TGlobalVariable@UID3DX11EffectVectorVariable@@@D3DX11Effects@@QEAAXXZ 00000001800253d0 f i effects11:EffectNonRuntime.obj
 0001:000243f0       ?SetRawValue@?$TNumericVariable@U?$TGlobalVariable@UID3DX11EffectVectorVariable@@@D3DX11Effects@@$0A@@D3DX11Effects@@UEAAJPEBXII@Z 00000001800253f0 f i effects11:EffectNonRuntime.obj
 0001:00024430       ??0?$TNumericVariable@U?$TGlobalVariable@UID3DX11EffectScalarVariable@@@D3DX11Effects@@$0A@@D3DX11Effects@@QEAA@XZ 0000000180025430 f i effects11:EffectNonRuntime.obj
 0001:00024480       ?GetRawValue@?$TNumericVariable@U?$TGlobalVariable@UID3DX11EffectScalarVariable@@@D3DX11Effects@@$0A@@D3DX11Effects@@UEAAJPEAXII@Z 0000000180025480 f i effects11:EffectNonRuntime.obj
 0001:000244b0       ?DirtyVariable@?$TGlobalVariable@UID3DX11EffectScalarVariable@@@D3DX11Effects@@QEAAXXZ 00000001800254b0 f i effects11:EffectNonRuntime.obj
 0001:000244d0       ?SetRawValue@?$TNumericVariable@U?$TGlobalVariable@UID3DX11EffectScalarVariable@@@D3DX11Effects@@$0A@@D3DX11Effects@@UEAAJPEBXII@Z 00000001800254d0 f i effects11:EffectNonRuntime.obj
 0001:00024510       ??0?$TAnnotation@UID3DX11EffectMatrixVariable@@@D3DX11Effects@@QEAA@XZ 0000000180025510 f i effects11:EffectNonRuntime.obj
 0001:00024550       ?GetDesc@?$TAnnotation@UID3DX11EffectMatrixVariable@@@D3DX11Effects@@UEAAJPEAU_D3DX11_EFFECT_VARIABLE_DESC@@@Z 0000000180025550 f i effects11:EffectNonRuntime.obj
 0001:00024590       ?GetAnnotationByIndex@?$TAnnotation@UID3DX11EffectMatrixVariable@@@D3DX11Effects@@UEAAPEAUID3DX11EffectVariable@@I@Z 0000000180025590 f i effects11:EffectNonRuntime.obj
 0001:000245a0       ?GetAnnotationByName@?$TAnnotation@UID3DX11EffectMatrixVariable@@@D3DX11Effects@@UEAAPEAUID3DX11EffectVariable@@PEBD@Z 00000001800255a0 f i effects11:EffectNonRuntime.obj
 0001:000245b0       ?GetParentConstantBuffer@?$TAnnotation@UID3DX11EffectMatrixVariable@@@D3DX11Effects@@UEAAPEAUID3DX11EffectConstantBuffer@@XZ 00000001800255b0 f i effects11:EffectNonRuntime.obj
 0001:000245c0       ??0?$TAnnotation@UID3DX11EffectVectorVariable@@@D3DX11Effects@@QEAA@XZ 00000001800255c0 f i effects11:EffectNonRuntime.obj
 0001:00024600       ?GetDesc@?$TAnnotation@UID3DX11EffectVectorVariable@@@D3DX11Effects@@UEAAJPEAU_D3DX11_EFFECT_VARIABLE_DESC@@@Z 0000000180025600 f i effects11:EffectNonRuntime.obj
 0001:00024640       ?GetAnnotationByIndex@?$TAnnotation@UID3DX11EffectVectorVariable@@@D3DX11Effects@@UEAAPEAUID3DX11EffectVariable@@I@Z 0000000180025640 f i effects11:EffectNonRuntime.obj
 0001:00024650       ?GetAnnotationByName@?$TAnnotation@UID3DX11EffectVectorVariable@@@D3DX11Effects@@UEAAPEAUID3DX11EffectVariable@@PEBD@Z 0000000180025650 f i effects11:EffectNonRuntime.obj
 0001:00024660       ?GetParentConstantBuffer@?$TAnnotation@UID3DX11EffectVectorVariable@@@D3DX11Effects@@UEAAPEAUID3DX11EffectConstantBuffer@@XZ 0000000180025660 f i effects11:EffectNonRuntime.obj
 0001:00024670       ??0?$TAnnotation@UID3DX11EffectScalarVariable@@@D3DX11Effects@@QEAA@XZ 0000000180025670 f i effects11:EffectNonRuntime.obj
 0001:000246b0       ?GetDesc@?$TAnnotation@UID3DX11EffectScalarVariable@@@D3DX11Effects@@UEAAJPEAU_D3DX11_EFFECT_VARIABLE_DESC@@@Z 00000001800256b0 f i effects11:EffectNonRuntime.obj
 0001:000246f0       ?GetAnnotationByIndex@?$TAnnotation@UID3DX11EffectScalarVariable@@@D3DX11Effects@@UEAAPEAUID3DX11EffectVariable@@I@Z 00000001800256f0 f i effects11:EffectNonRuntime.obj
 0001:00024700       ?GetAnnotationByName@?$TAnnotation@UID3DX11EffectScalarVariable@@@D3DX11Effects@@UEAAPEAUID3DX11EffectVariable@@PEBD@Z 0000000180025700 f i effects11:EffectNonRuntime.obj
 0001:00024710       ?GetParentConstantBuffer@?$TAnnotation@UID3DX11EffectScalarVariable@@@D3DX11Effects@@UEAAPEAUID3DX11EffectConstantBuffer@@XZ 0000000180025710 f i effects11:EffectNonRuntime.obj
 0001:00024720       ??1?$CEffectVectorOwner@USSingleElementType@D3DX11Effects@@@@QEAA@XZ 0000000180025720 f i effects11:EffectNonRuntime.obj
 0001:000247c0       ??1?$CEffectVectorOwner@USMember@D3DX11Effects@@@@QEAA@XZ 00000001800257c0 f i effects11:EffectNonRuntime.obj
 0001:00024860       ?Parse@CSOParser@D3DX11Effects@@QEAAJQEAPEAD@Z 0000000180025860 f i effects11:EffectNonRuntime.obj
 0001:00024970       ??0CEffect@D3DX11Effects@@QEAA@I@Z 0000000180025970 f   effects11:EffectNonRuntime.obj
 0001:00024ae0       ?IsValid@CEffect@D3DX11Effects@@UEAAHXZ 0000000180025ae0 f i effects11:EffectNonRuntime.obj
 0001:00024af0       ??1CEffect@D3DX11Effects@@UEAA@XZ 0000000180025af0 f   effects11:EffectNonRuntime.obj
 0001:000252a0       ?BindToDevice@CEffect@D3DX11Effects@@QEAAJPEAUID3D11Device@@@Z 00000001800262a0 f   effects11:EffectNonRuntime.obj
 0001:00025d00       ??0SClassInstanceGlobalVariableMember@D3DX11Effects@@QEAA@XZ 0000000180026d00 f i effects11:EffectNonRuntime.obj
 0001:00025d40       ??0SInterfaceGlobalVariableMember@D3DX11Effects@@QEAA@XZ 0000000180026d40 f i effects11:EffectNonRuntime.obj
 0001:00025d80       ??0SStringAnnotationMember@D3DX11Effects@@QEAA@XZ 0000000180026d80 f i effects11:EffectNonRuntime.obj
 0001:00025dc0       ??0SStringGlobalVariableMember@D3DX11Effects@@QEAA@XZ 0000000180026dc0 f i effects11:EffectNonRuntime.obj
 0001:00025e00       ??0SShaderResourceGlobalVariableMember@D3DX11Effects@@QEAA@XZ 0000000180026e00 f i effects11:EffectNonRuntime.obj
 0001:00025e40       ??0SUnorderedAccessViewGlobalVariableMember@D3DX11Effects@@QEAA@XZ 0000000180026e40 f i effects11:EffectNonRuntime.obj
 0001:00025e80       ??0SShaderGlobalVariableMember@D3DX11Effects@@QEAA@XZ 0000000180026e80 f i effects11:EffectNonRuntime.obj
 0001:00025ec0       ??0SBlendGlobalVariableMember@D3DX11Effects@@QEAA@XZ 0000000180026ec0 f i effects11:EffectNonRuntime.obj
 0001:00025f00       ??0SRasterizerGlobalVariableMember@D3DX11Effects@@QEAA@XZ 0000000180026f00 f i effects11:EffectNonRuntime.obj
 0001:00025f40       ??0SDepthStencilGlobalVariableMember@D3DX11Effects@@QEAA@XZ 0000000180026f40 f i effects11:EffectNonRuntime.obj
 0001:00025f80       ??0SSamplerGlobalVariableMember@D3DX11Effects@@QEAA@XZ 0000000180026f80 f i effects11:EffectNonRuntime.obj
 0001:00025fc0       ??0SDepthStencilViewGlobalVariableMember@D3DX11Effects@@QEAA@XZ 0000000180026fc0 f i effects11:EffectNonRuntime.obj
 0001:00026000       ??0SRenderTargetViewGlobalVariableMember@D3DX11Effects@@QEAA@XZ 0000000180027000 f i effects11:EffectNonRuntime.obj
 0001:00026040       ??0?$TMatrixVariable@U?$TVariable@U?$TMember@UID3DX11EffectMatrixVariable@@@D3DX11Effects@@@D3DX11Effects@@$00@D3DX11Effects@@QEAA@XZ 0000000180027040 f i effects11:EffectNonRuntime.obj
 0001:00026080       ?dwordMemcpy@@YAXPEIAXPEIBXI@Z 0000000180027080 f i effects11:EffectNonRuntime.obj
 0001:00026140       ?GetTotalUnpackedSize@?$TMember@UID3DX11EffectMatrixVariable@@@D3DX11Effects@@QEAAIXZ 0000000180027140 f i effects11:EffectNonRuntime.obj
 0001:00026540       ??$DoMatrixArrayInternal@$0A@$00$0A@@D3DX11Effects@@YAJPEAUSType@0@IPEAEPEAXIIPEBD@Z 0000000180027540 f i effects11:EffectNonRuntime.obj
 0001:000266c0       ??$DoMatrixArrayInternal@$0A@$0A@$0A@@D3DX11Effects@@YAJPEAUSType@0@IPEAEPEAXIIPEBD@Z 00000001800276c0 f i effects11:EffectNonRuntime.obj
 0001:00026840       ??$DoMatrixArrayInternal@$0A@$00$00@D3DX11Effects@@YAJPEAUSType@0@IPEAEPEAXIIPEBD@Z 0000000180027840 f i effects11:EffectNonRuntime.obj
 0001:000269b0       ??$DoMatrixArrayInternal@$0A@$0A@$00@D3DX11Effects@@YAJPEAUSType@0@IPEAEPEAXIIPEBD@Z 00000001800279b0 f i effects11:EffectNonRuntime.obj
 0001:00026b20       ??$DoMatrixArrayInternal@$00$00$0A@@D3DX11Effects@@YAJPEAUSType@0@IPEAEPEAXIIPEBD@Z 0000000180027b20 f i effects11:EffectNonRuntime.obj
 0001:00026ca0       ??$DoMatrixArrayInternal@$00$0A@$0A@@D3DX11Effects@@YAJPEAUSType@0@IPEAEPEAXIIPEBD@Z 0000000180027ca0 f i effects11:EffectNonRuntime.obj
 0001:00026e20       ??$DoMatrixArrayInternal@$00$00$00@D3DX11Effects@@YAJPEAUSType@0@IPEAEPEAXIIPEBD@Z 0000000180027e20 f i effects11:EffectNonRuntime.obj
 0001:00026f90       ??$DoMatrixArrayInternal@$00$0A@$00@D3DX11Effects@@YAJPEAUSType@0@IPEAEPEAXIIPEBD@Z 0000000180027f90 f i effects11:EffectNonRuntime.obj
 0001:00027100       ?SetMatrix@?$TMatrixVariable@U?$TVariable@U?$TMember@UID3DX11EffectMatrixVariable@@@D3DX11Effects@@@D3DX11Effects@@$00@D3DX11Effects@@UEAAJPEBM@Z 0000000180028100 f i effects11:EffectNonRuntime.obj
 0001:00027110       ?GetMatrix@?$TMatrixVariable@U?$TVariable@U?$TMember@UID3DX11EffectMatrixVariable@@@D3DX11Effects@@@D3DX11Effects@@$00@D3DX11Effects@@UEAAJPEAM@Z 0000000180028110 f i effects11:EffectNonRuntime.obj
 0001:00027180       ?SetMatrixArray@?$TMatrixVariable@U?$TVariable@U?$TMember@UID3DX11EffectMatrixVariable@@@D3DX11Effects@@@D3DX11Effects@@$00@D3DX11Effects@@UEAAJPEBMII@Z 0000000180028180 f i effects11:EffectNonRuntime.obj
 0001:00027190       ?GetMatrixArray@?$TMatrixVariable@U?$TVariable@U?$TMember@UID3DX11EffectMatrixVariable@@@D3DX11Effects@@@D3DX11Effects@@$00@D3DX11Effects@@UEAAJPEAMII@Z 0000000180028190 f i effects11:EffectNonRuntime.obj
 0001:00027200       ?SetMatrixPointerArray@?$TMatrixVariable@U?$TVariable@U?$TMember@UID3DX11EffectMatrixVariable@@@D3DX11Effects@@@D3DX11Effects@@$00@D3DX11Effects@@UEAAJPEAPEBMII@Z 0000000180028200 f i effects11:EffectNonRuntime.obj
 0001:00027210       ?GetMatrixPointerArray@?$TMatrixVariable@U?$TVariable@U?$TMember@UID3DX11EffectMatrixVariable@@@D3DX11Effects@@@D3DX11Effects@@$00@D3DX11Effects@@UEAAJPEAPEAMII@Z 0000000180028210 f i effects11:EffectNonRuntime.obj
 0001:00027280       ?SetMatrixTranspose@?$TMatrixVariable@U?$TVariable@U?$TMember@UID3DX11EffectMatrixVariable@@@D3DX11Effects@@@D3DX11Effects@@$00@D3DX11Effects@@UEAAJPEBM@Z 0000000180028280 f i effects11:EffectNonRuntime.obj
 0001:00027290       ?GetMatrixTranspose@?$TMatrixVariable@U?$TVariable@U?$TMember@UID3DX11EffectMatrixVariable@@@D3DX11Effects@@@D3DX11Effects@@$00@D3DX11Effects@@UEAAJPEAM@Z 0000000180028290 f i effects11:EffectNonRuntime.obj
 0001:00027300       ?SetMatrixTransposeArray@?$TMatrixVariable@U?$TVariable@U?$TMember@UID3DX11EffectMatrixVariable@@@D3DX11Effects@@@D3DX11Effects@@$00@D3DX11Effects@@UEAAJPEBMII@Z 0000000180028300 f i effects11:EffectNonRuntime.obj
 0001:00027310       ?GetMatrixTransposeArray@?$TMatrixVariable@U?$TVariable@U?$TMember@UID3DX11EffectMatrixVariable@@@D3DX11Effects@@@D3DX11Effects@@$00@D3DX11Effects@@UEAAJPEAMII@Z 0000000180028310 f i effects11:EffectNonRuntime.obj
 0001:00027380       ?SetMatrixTransposePointerArray@?$TMatrixVariable@U?$TVariable@U?$TMember@UID3DX11EffectMatrixVariable@@@D3DX11Effects@@@D3DX11Effects@@$00@D3DX11Effects@@UEAAJPEAPEBMII@Z 0000000180028380 f i effects11:EffectNonRuntime.obj
 0001:00027390       ?GetMatrixTransposePointerArray@?$TMatrixVariable@U?$TVariable@U?$TMember@UID3DX11EffectMatrixVariable@@@D3DX11Effects@@@D3DX11Effects@@$00@D3DX11Effects@@UEAAJPEAPEAMII@Z 0000000180028390 f i effects11:EffectNonRuntime.obj
 0001:00027400       ??0?$TMatrixVariable@U?$TVariable@U?$TMember@UID3DX11EffectMatrixVariable@@@D3DX11Effects@@@D3DX11Effects@@$0A@@D3DX11Effects@@QEAA@XZ 0000000180028400 f i effects11:EffectNonRuntime.obj
 0001:00027440       ?SetMatrix@?$TMatrixVariable@U?$TVariable@U?$TMember@UID3DX11EffectMatrixVariable@@@D3DX11Effects@@@D3DX11Effects@@$0A@@D3DX11Effects@@UEAAJPEBM@Z 0000000180028440 f i effects11:EffectNonRuntime.obj
 0001:000274d0       ?GetMatrix@?$TMatrixVariable@U?$TVariable@U?$TMember@UID3DX11EffectMatrixVariable@@@D3DX11Effects@@@D3DX11Effects@@$0A@@D3DX11Effects@@UEAAJPEAM@Z 00000001800284d0 f i effects11:EffectNonRuntime.obj
 0001:00027540       ?SetMatrixArray@?$TMatrixVariable@U?$TVariable@U?$TMember@UID3DX11EffectMatrixVariable@@@D3DX11Effects@@@D3DX11Effects@@$0A@@D3DX11Effects@@UEAAJPEBMII@Z 0000000180028540 f i effects11:EffectNonRuntime.obj
 0001:000275d0       ?GetMatrixArray@?$TMatrixVariable@U?$TVariable@U?$TMember@UID3DX11EffectMatrixVariable@@@D3DX11Effects@@@D3DX11Effects@@$0A@@D3DX11Effects@@UEAAJPEAMII@Z 00000001800285d0 f i effects11:EffectNonRuntime.obj
 0001:00027640       ?SetMatrixPointerArray@?$TMatrixVariable@U?$TVariable@U?$TMember@UID3DX11EffectMatrixVariable@@@D3DX11Effects@@@D3DX11Effects@@$0A@@D3DX11Effects@@UEAAJPEAPEBMII@Z 0000000180028640 f i effects11:EffectNonRuntime.obj
 0001:000276d0       ?GetMatrixPointerArray@?$TMatrixVariable@U?$TVariable@U?$TMember@UID3DX11EffectMatrixVariable@@@D3DX11Effects@@@D3DX11Effects@@$0A@@D3DX11Effects@@UEAAJPEAPEAMII@Z 00000001800286d0 f i effects11:EffectNonRuntime.obj
 0001:00027740       ?SetMatrixTranspose@?$TMatrixVariable@U?$TVariable@U?$TMember@UID3DX11EffectMatrixVariable@@@D3DX11Effects@@@D3DX11Effects@@$0A@@D3DX11Effects@@UEAAJPEBM@Z 0000000180028740 f i effects11:EffectNonRuntime.obj
 0001:000277d0       ?GetMatrixTranspose@?$TMatrixVariable@U?$TVariable@U?$TMember@UID3DX11EffectMatrixVariable@@@D3DX11Effects@@@D3DX11Effects@@$0A@@D3DX11Effects@@UEAAJPEAM@Z 00000001800287d0 f i effects11:EffectNonRuntime.obj
 0001:00027840       ?SetMatrixTransposeArray@?$TMatrixVariable@U?$TVariable@U?$TMember@UID3DX11EffectMatrixVariable@@@D3DX11Effects@@@D3DX11Effects@@$0A@@D3DX11Effects@@UEAAJPEBMII@Z 0000000180028840 f i effects11:EffectNonRuntime.obj
 0001:000278d0       ?GetMatrixTransposeArray@?$TMatrixVariable@U?$TVariable@U?$TMember@UID3DX11EffectMatrixVariable@@@D3DX11Effects@@@D3DX11Effects@@$0A@@D3DX11Effects@@UEAAJPEAMII@Z 00000001800288d0 f i effects11:EffectNonRuntime.obj
 0001:00027940       ?SetMatrixTransposePointerArray@?$TMatrixVariable@U?$TVariable@U?$TMember@UID3DX11EffectMatrixVariable@@@D3DX11Effects@@@D3DX11Effects@@$0A@@D3DX11Effects@@UEAAJPEAPEBMII@Z 0000000180028940 f i effects11:EffectNonRuntime.obj
 0001:000279d0       ?GetMatrixTransposePointerArray@?$TMatrixVariable@U?$TVariable@U?$TMember@UID3DX11EffectMatrixVariable@@@D3DX11Effects@@@D3DX11Effects@@$0A@@D3DX11Effects@@UEAAJPEAPEAMII@Z 00000001800289d0 f i effects11:EffectNonRuntime.obj
 0001:00027a40       ??0?$TVectorVariable@U?$TVariable@U?$TMember@UID3DX11EffectVectorVariable@@@D3DX11Effects@@@D3DX11Effects@@$00$01@D3DX11Effects@@QEAA@XZ 0000000180028a40 f i effects11:EffectNonRuntime.obj
 0001:00027a80       ??$CopyDataWithTypeConversion@$01$0A@@D3DX11Effects@@YAXPEAXPEBXIIII@Z 0000000180028a80 f i effects11:EffectNonRuntime.obj
 0001:00027bc0       ??$CopyDataWithTypeConversion@$01$00@D3DX11Effects@@YAXPEAXPEBXIIII@Z 0000000180028bc0 f i effects11:EffectNonRuntime.obj
 0001:00027ce0       ??$CopyDataWithTypeConversion@$01$01@D3DX11Effects@@YAXPEAXPEBXIIII@Z 0000000180028ce0 f i effects11:EffectNonRuntime.obj
 0001:00027e00       ??$CopyDataWithTypeConversion@$0A@$01@D3DX11Effects@@YAXPEAXPEBXIIII@Z 0000000180028e00 f i effects11:EffectNonRuntime.obj
 0001:00027f20       ??$CopyDataWithTypeConversion@$00$01@D3DX11Effects@@YAXPEAXPEBXIIII@Z 0000000180028f20 f i effects11:EffectNonRuntime.obj
 0001:00028030       ?SetBoolVector@?$TVectorVariable@U?$TVariable@U?$TMember@UID3DX11EffectVectorVariable@@@D3DX11Effects@@@D3DX11Effects@@$00$01@D3DX11Effects@@UEAAJPEBH@Z 0000000180029030 f i effects11:EffectNonRuntime.obj
 0001:00028040       ?SetIntVector@?$TVectorVariable@U?$TVariable@U?$TMember@UID3DX11EffectVectorVariable@@@D3DX11Effects@@@D3DX11Effects@@$00$01@D3DX11Effects@@UEAAJPEBH@Z 0000000180029040 f i effects11:EffectNonRuntime.obj
 0001:00028050       ?SetFloatVector@?$TVectorVariable@U?$TVariable@U?$TMember@UID3DX11EffectVectorVariable@@@D3DX11Effects@@@D3DX11Effects@@$00$01@D3DX11Effects@@UEAAJPEBM@Z 0000000180029050 f i effects11:EffectNonRuntime.obj
 0001:00028060       ?GetBoolVector@?$TVectorVariable@U?$TVariable@U?$TMember@UID3DX11EffectVectorVariable@@@D3DX11Effects@@@D3DX11Effects@@$00$01@D3DX11Effects@@UEAAJPEAH@Z 0000000180029060 f i effects11:EffectNonRuntime.obj
 0001:00028150       ?GetIntVector@?$TVectorVariable@U?$TVariable@U?$TMember@UID3DX11EffectVectorVariable@@@D3DX11Effects@@@D3DX11Effects@@$00$01@D3DX11Effects@@UEAAJPEAH@Z 0000000180029150 f i effects11:EffectNonRuntime.obj
 0001:00028220       ?GetFloatVector@?$TVectorVariable@U?$TVariable@U?$TMember@UID3DX11EffectVectorVariable@@@D3DX11Effects@@@D3DX11Effects@@$00$01@D3DX11Effects@@UEAAJPEAM@Z 0000000180029220 f i effects11:EffectNonRuntime.obj
 0001:000282d0       ?SetBoolVectorArray@?$TVectorVariable@U?$TVariable@U?$TMember@UID3DX11EffectVectorVariable@@@D3DX11Effects@@@D3DX11Effects@@$00$01@D3DX11Effects@@UEAAJPEBHII@Z 00000001800292d0 f i effects11:EffectNonRuntime.obj
 0001:000282e0       ?SetIntVectorArray@?$TVectorVariable@U?$TVariable@U?$TMember@UID3DX11EffectVectorVariable@@@D3DX11Effects@@@D3DX11Effects@@$00$01@D3DX11Effects@@UEAAJPEBHII@Z 00000001800292e0 f i effects11:EffectNonRuntime.obj
 0001:000282f0       ?SetFloatVectorArray@?$TVectorVariable@U?$TVariable@U?$TMember@UID3DX11EffectVectorVariable@@@D3DX11Effects@@@D3DX11Effects@@$00$01@D3DX11Effects@@UEAAJPEBMII@Z 00000001800292f0 f i effects11:EffectNonRuntime.obj
 0001:00028300       ?GetBoolVectorArray@?$TVectorVariable@U?$TVariable@U?$TMember@UID3DX11EffectVectorVariable@@@D3DX11Effects@@@D3DX11Effects@@$00$01@D3DX11Effects@@UEAAJPEAHII@Z 0000000180029300 f i effects11:EffectNonRuntime.obj
 0001:00028450       ?GetIntVectorArray@?$TVectorVariable@U?$TVariable@U?$TMember@UID3DX11EffectVectorVariable@@@D3DX11Effects@@@D3DX11Effects@@$00$01@D3DX11Effects@@UEAAJPEAHII@Z 0000000180029450 f i effects11:EffectNonRuntime.obj
 0001:00028580       ?GetFloatVectorArray@?$TVectorVariable@U?$TVariable@U?$TMember@UID3DX11EffectVectorVariable@@@D3DX11Effects@@@D3DX11Effects@@$00$01@D3DX11Effects@@UEAAJPEAMII@Z 0000000180029580 f i effects11:EffectNonRuntime.obj
 0001:000286c0       ??0?$TVectorVariable@U?$TVariable@U?$TMember@UID3DX11EffectVectorVariable@@@D3DX11Effects@@@D3DX11Effects@@$0A@$01@D3DX11Effects@@QEAA@XZ 00000001800296c0 f i effects11:EffectNonRuntime.obj
 0001:00028700       ?SetBoolVector@?$TVectorVariable@U?$TVariable@U?$TMember@UID3DX11EffectVectorVariable@@@D3DX11Effects@@@D3DX11Effects@@$0A@$01@D3DX11Effects@@UEAAJPEBH@Z 0000000180029700 f i effects11:EffectNonRuntime.obj
 0001:00028830       ?SetIntVector@?$TVectorVariable@U?$TVariable@U?$TMember@UID3DX11EffectVectorVariable@@@D3DX11Effects@@@D3DX11Effects@@$0A@$01@D3DX11Effects@@UEAAJPEBH@Z 0000000180029830 f i effects11:EffectNonRuntime.obj
 0001:00028920       ?SetFloatVector@?$TVectorVariable@U?$TVariable@U?$TMember@UID3DX11EffectVectorVariable@@@D3DX11Effects@@@D3DX11Effects@@$0A@$01@D3DX11Effects@@UEAAJPEBM@Z 0000000180029920 f i effects11:EffectNonRuntime.obj
 0001:000289e0       ?GetBoolVector@?$TVectorVariable@U?$TVariable@U?$TMember@UID3DX11EffectVectorVariable@@@D3DX11Effects@@@D3DX11Effects@@$0A@$01@D3DX11Effects@@UEAAJPEAH@Z 00000001800299e0 f i effects11:EffectNonRuntime.obj
 0001:00028ad0       ?GetIntVector@?$TVectorVariable@U?$TVariable@U?$TMember@UID3DX11EffectVectorVariable@@@D3DX11Effects@@@D3DX11Effects@@$0A@$01@D3DX11Effects@@UEAAJPEAH@Z 0000000180029ad0 f i effects11:EffectNonRuntime.obj
 0001:00028ba0       ?GetFloatVector@?$TVectorVariable@U?$TVariable@U?$TMember@UID3DX11EffectVectorVariable@@@D3DX11Effects@@@D3DX11Effects@@$0A@$01@D3DX11Effects@@UEAAJPEAM@Z 0000000180029ba0 f i effects11:EffectNonRuntime.obj
 0001:00028c50       ?SetBoolVectorArray@?$TVectorVariable@U?$TVariable@U?$TMember@UID3DX11EffectVectorVariable@@@D3DX11Effects@@@D3DX11Effects@@$0A@$01@D3DX11Effects@@UEAAJPEBHII@Z 0000000180029c50 f i effects11:EffectNonRuntime.obj
 0001:00028dd0       ?SetIntVectorArray@?$TVectorVariable@U?$TVariable@U?$TMember@UID3DX11EffectVectorVariable@@@D3DX11Effects@@@D3DX11Effects@@$0A@$01@D3DX11Effects@@UEAAJPEBHII@Z 0000000180029dd0 f i effects11:EffectNonRuntime.obj
 0001:00028f20       ?SetFloatVectorArray@?$TVectorVariable@U?$TVariable@U?$TMember@UID3DX11EffectVectorVariable@@@D3DX11Effects@@@D3DX11Effects@@$0A@$01@D3DX11Effects@@UEAAJPEBMII@Z 0000000180029f20 f i effects11:EffectNonRuntime.obj
 0001:00029070       ?GetBoolVectorArray@?$TVectorVariable@U?$TVariable@U?$TMember@UID3DX11EffectVectorVariable@@@D3DX11Effects@@@D3DX11Effects@@$0A@$01@D3DX11Effects@@UEAAJPEAHII@Z 000000018002a070 f i effects11:EffectNonRuntime.obj
 0001:000291c0       ?GetIntVectorArray@?$TVectorVariable@U?$TVariable@U?$TMember@UID3DX11EffectVectorVariable@@@D3DX11Effects@@@D3DX11Effects@@$0A@$01@D3DX11Effects@@UEAAJPEAHII@Z 000000018002a1c0 f i effects11:EffectNonRuntime.obj
 0001:000292f0       ?GetFloatVectorArray@?$TVectorVariable@U?$TVariable@U?$TMember@UID3DX11EffectVectorVariable@@@D3DX11Effects@@@D3DX11Effects@@$0A@$01@D3DX11Effects@@UEAAJPEAMII@Z 000000018002a2f0 f i effects11:EffectNonRuntime.obj
 0001:00029430       ??0?$TVectorVariable@U?$TVariable@U?$TMember@UID3DX11EffectVectorVariable@@@D3DX11Effects@@@D3DX11Effects@@$00$0A@@D3DX11Effects@@QEAA@XZ 000000018002a430 f i effects11:EffectNonRuntime.obj
 0001:00029470       ??$CopyDataWithTypeConversion@$0A@$0A@@D3DX11Effects@@YAXPEAXPEBXIIII@Z 000000018002a470 f i effects11:EffectNonRuntime.obj
 0001:00029590       ??$CopyDataWithTypeConversion@$0A@$00@D3DX11Effects@@YAXPEAXPEBXIIII@Z 000000018002a590 f i effects11:EffectNonRuntime.obj
 0001:00029620       ??$CopyDataWithTypeConversion@$00$0A@@D3DX11Effects@@YAXPEAXPEBXIIII@Z 000000018002a620 f i effects11:EffectNonRuntime.obj
 0001:000296b0       ?SetBoolVector@?$TVectorVariable@U?$TVariable@U?$TMember@UID3DX11EffectVectorVariable@@@D3DX11Effects@@@D3DX11Effects@@$00$0A@@D3DX11Effects@@UEAAJPEBH@Z 000000018002a6b0 f i effects11:EffectNonRuntime.obj
 0001:000296c0       ?SetIntVector@?$TVectorVariable@U?$TVariable@U?$TMember@UID3DX11EffectVectorVariable@@@D3DX11Effects@@@D3DX11Effects@@$00$0A@@D3DX11Effects@@UEAAJPEBH@Z 000000018002a6c0 f i effects11:EffectNonRuntime.obj
 0001:000296d0       ?SetFloatVector@?$TVectorVariable@U?$TVariable@U?$TMember@UID3DX11EffectVectorVariable@@@D3DX11Effects@@@D3DX11Effects@@$00$0A@@D3DX11Effects@@UEAAJPEBM@Z 000000018002a6d0 f i effects11:EffectNonRuntime.obj
 0001:000296e0       ?GetBoolVector@?$TVectorVariable@U?$TVariable@U?$TMember@UID3DX11EffectVectorVariable@@@D3DX11Effects@@@D3DX11Effects@@$00$0A@@D3DX11Effects@@UEAAJPEAH@Z 000000018002a6e0 f i effects11:EffectNonRuntime.obj
 0001:00029790       ?GetIntVector@?$TVectorVariable@U?$TVariable@U?$TMember@UID3DX11EffectVectorVariable@@@D3DX11Effects@@@D3DX11Effects@@$00$0A@@D3DX11Effects@@UEAAJPEAH@Z 000000018002a790 f i effects11:EffectNonRuntime.obj
 0001:000297d0       ?GetFloatVector@?$TVectorVariable@U?$TVariable@U?$TMember@UID3DX11EffectVectorVariable@@@D3DX11Effects@@@D3DX11Effects@@$00$0A@@D3DX11Effects@@UEAAJPEAM@Z 000000018002a7d0 f i effects11:EffectNonRuntime.obj
 0001:000298e0       ?SetBoolVectorArray@?$TVectorVariable@U?$TVariable@U?$TMember@UID3DX11EffectVectorVariable@@@D3DX11Effects@@@D3DX11Effects@@$00$0A@@D3DX11Effects@@UEAAJPEBHII@Z 000000018002a8e0 f i effects11:EffectNonRuntime.obj
 0001:000298f0       ?SetIntVectorArray@?$TVectorVariable@U?$TVariable@U?$TMember@UID3DX11EffectVectorVariable@@@D3DX11Effects@@@D3DX11Effects@@$00$0A@@D3DX11Effects@@UEAAJPEBHII@Z 000000018002a8f0 f i effects11:EffectNonRuntime.obj
 0001:00029900       ?SetFloatVectorArray@?$TVectorVariable@U?$TVariable@U?$TMember@UID3DX11EffectVectorVariable@@@D3DX11Effects@@@D3DX11Effects@@$00$0A@@D3DX11Effects@@UEAAJPEBMII@Z 000000018002a900 f i effects11:EffectNonRuntime.obj
 0001:00029910       ?GetBoolVectorArray@?$TVectorVariable@U?$TVariable@U?$TMember@UID3DX11EffectVectorVariable@@@D3DX11Effects@@@D3DX11Effects@@$00$0A@@D3DX11Effects@@UEAAJPEAHII@Z 000000018002a910 f i effects11:EffectNonRuntime.obj
 0001:00029a50       ?GetIntVectorArray@?$TVectorVariable@U?$TVariable@U?$TMember@UID3DX11EffectVectorVariable@@@D3DX11Effects@@@D3DX11Effects@@$00$0A@@D3DX11Effects@@UEAAJPEAHII@Z 000000018002aa50 f i effects11:EffectNonRuntime.obj
 0001:00029b00       ?GetFloatVectorArray@?$TVectorVariable@U?$TVariable@U?$TMember@UID3DX11EffectVectorVariable@@@D3DX11Effects@@@D3DX11Effects@@$00$0A@@D3DX11Effects@@UEAAJPEAMII@Z 000000018002ab00 f i effects11:EffectNonRuntime.obj
 0001:00029c60       ??0?$TVectorVariable@U?$TVariable@U?$TMember@UID3DX11EffectVectorVariable@@@D3DX11Effects@@@D3DX11Effects@@$0A@$0A@@D3DX11Effects@@QEAA@XZ 000000018002ac60 f i effects11:EffectNonRuntime.obj
 0001:00029ca0       ?SetBoolVector@?$TVectorVariable@U?$TVariable@U?$TMember@UID3DX11EffectVectorVariable@@@D3DX11Effects@@@D3DX11Effects@@$0A@$0A@@D3DX11Effects@@UEAAJPEBH@Z 000000018002aca0 f i effects11:EffectNonRuntime.obj
 0001:00029d60       ?SetIntVector@?$TVectorVariable@U?$TVariable@U?$TMember@UID3DX11EffectVectorVariable@@@D3DX11Effects@@@D3DX11Effects@@$0A@$0A@@D3DX11Effects@@UEAAJPEBH@Z 000000018002ad60 f i effects11:EffectNonRuntime.obj
 0001:00029dc0       ?SetFloatVector@?$TVectorVariable@U?$TVariable@U?$TMember@UID3DX11EffectVectorVariable@@@D3DX11Effects@@@D3DX11Effects@@$0A@$0A@@D3DX11Effects@@UEAAJPEBM@Z 000000018002adc0 f i effects11:EffectNonRuntime.obj
 0001:00029ed0       ?GetBoolVector@?$TVectorVariable@U?$TVariable@U?$TMember@UID3DX11EffectVectorVariable@@@D3DX11Effects@@@D3DX11Effects@@$0A@$0A@@D3DX11Effects@@UEAAJPEAH@Z 000000018002aed0 f i effects11:EffectNonRuntime.obj
 0001:00029f80       ?GetIntVector@?$TVectorVariable@U?$TVariable@U?$TMember@UID3DX11EffectVectorVariable@@@D3DX11Effects@@@D3DX11Effects@@$0A@$0A@@D3DX11Effects@@UEAAJPEAH@Z 000000018002af80 f i effects11:EffectNonRuntime.obj
 0001:00029fc0       ?GetFloatVector@?$TVectorVariable@U?$TVariable@U?$TMember@UID3DX11EffectVectorVariable@@@D3DX11Effects@@@D3DX11Effects@@$0A@$0A@@D3DX11Effects@@UEAAJPEAM@Z 000000018002afc0 f i effects11:EffectNonRuntime.obj
 0001:0002a0d0       ?SetBoolVectorArray@?$TVectorVariable@U?$TVariable@U?$TMember@UID3DX11EffectVectorVariable@@@D3DX11Effects@@@D3DX11Effects@@$0A@$0A@@D3DX11Effects@@UEAAJPEBHII@Z 000000018002b0d0 f i effects11:EffectNonRuntime.obj
 0001:0002a220       ?SetIntVectorArray@?$TVectorVariable@U?$TVariable@U?$TMember@UID3DX11EffectVectorVariable@@@D3DX11Effects@@@D3DX11Effects@@$0A@$0A@@D3DX11Effects@@UEAAJPEBHII@Z 000000018002b220 f i effects11:EffectNonRuntime.obj
 0001:0002a2e0       ?SetFloatVectorArray@?$TVectorVariable@U?$TVariable@U?$TMember@UID3DX11EffectVectorVariable@@@D3DX11Effects@@@D3DX11Effects@@$0A@$0A@@D3DX11Effects@@UEAAJPEBMII@Z 000000018002b2e0 f i effects11:EffectNonRuntime.obj
 0001:0002a450       ?GetBoolVectorArray@?$TVectorVariable@U?$TVariable@U?$TMember@UID3DX11EffectVectorVariable@@@D3DX11Effects@@@D3DX11Effects@@$0A@$0A@@D3DX11Effects@@UEAAJPEAHII@Z 000000018002b450 f i effects11:EffectNonRuntime.obj
 0001:0002a590       ?GetIntVectorArray@?$TVectorVariable@U?$TVariable@U?$TMember@UID3DX11EffectVectorVariable@@@D3DX11Effects@@@D3DX11Effects@@$0A@$0A@@D3DX11Effects@@UEAAJPEAHII@Z 000000018002b590 f i effects11:EffectNonRuntime.obj
 0001:0002a640       ?GetFloatVectorArray@?$TVectorVariable@U?$TVariable@U?$TMember@UID3DX11EffectVectorVariable@@@D3DX11Effects@@@D3DX11Effects@@$0A@$0A@@D3DX11Effects@@UEAAJPEAMII@Z 000000018002b640 f i effects11:EffectNonRuntime.obj
 0001:0002a7a0       ??0?$TVectorVariable@U?$TVariable@U?$TMember@UID3DX11EffectVectorVariable@@@D3DX11Effects@@@D3DX11Effects@@$00$00@D3DX11Effects@@QEAA@XZ 000000018002b7a0 f i effects11:EffectNonRuntime.obj
 0001:0002a7e0       ??$CopyDataWithTypeConversion@$00$00@D3DX11Effects@@YAXPEAXPEBXIIII@Z 000000018002b7e0 f i effects11:EffectNonRuntime.obj
 0001:0002a900       ?SetBoolVector@?$TVectorVariable@U?$TVariable@U?$TMember@UID3DX11EffectVectorVariable@@@D3DX11Effects@@@D3DX11Effects@@$00$00@D3DX11Effects@@UEAAJPEBH@Z 000000018002b900 f i effects11:EffectNonRuntime.obj
 0001:0002a910       ?SetIntVector@?$TVectorVariable@U?$TVariable@U?$TMember@UID3DX11EffectVectorVariable@@@D3DX11Effects@@@D3DX11Effects@@$00$00@D3DX11Effects@@UEAAJPEBH@Z 000000018002b910 f i effects11:EffectNonRuntime.obj
 0001:0002a920       ?SetFloatVector@?$TVectorVariable@U?$TVariable@U?$TMember@UID3DX11EffectVectorVariable@@@D3DX11Effects@@@D3DX11Effects@@$00$00@D3DX11Effects@@UEAAJPEBM@Z 000000018002b920 f i effects11:EffectNonRuntime.obj
 0001:0002a930       ?GetBoolVector@?$TVectorVariable@U?$TVariable@U?$TMember@UID3DX11EffectVectorVariable@@@D3DX11Effects@@@D3DX11Effects@@$00$00@D3DX11Effects@@UEAAJPEAH@Z 000000018002b930 f i effects11:EffectNonRuntime.obj
 0001:0002a970       ?GetIntVector@?$TVectorVariable@U?$TVariable@U?$TMember@UID3DX11EffectVectorVariable@@@D3DX11Effects@@@D3DX11Effects@@$00$00@D3DX11Effects@@UEAAJPEAH@Z 000000018002b970 f i effects11:EffectNonRuntime.obj
 0001:0002aa20       ?GetFloatVector@?$TVectorVariable@U?$TVariable@U?$TMember@UID3DX11EffectVectorVariable@@@D3DX11Effects@@@D3DX11Effects@@$00$00@D3DX11Effects@@UEAAJPEAM@Z 000000018002ba20 f i effects11:EffectNonRuntime.obj
 0001:0002ab00       ?SetBoolVectorArray@?$TVectorVariable@U?$TVariable@U?$TMember@UID3DX11EffectVectorVariable@@@D3DX11Effects@@@D3DX11Effects@@$00$00@D3DX11Effects@@UEAAJPEBHII@Z 000000018002bb00 f i effects11:EffectNonRuntime.obj
 0001:0002ab10       ?SetIntVectorArray@?$TVectorVariable@U?$TVariable@U?$TMember@UID3DX11EffectVectorVariable@@@D3DX11Effects@@@D3DX11Effects@@$00$00@D3DX11Effects@@UEAAJPEBHII@Z 000000018002bb10 f i effects11:EffectNonRuntime.obj
 0001:0002ab20       ?SetFloatVectorArray@?$TVectorVariable@U?$TVariable@U?$TMember@UID3DX11EffectVectorVariable@@@D3DX11Effects@@@D3DX11Effects@@$00$00@D3DX11Effects@@UEAAJPEBMII@Z 000000018002bb20 f i effects11:EffectNonRuntime.obj
 0001:0002ab30       ?GetBoolVectorArray@?$TVectorVariable@U?$TVariable@U?$TMember@UID3DX11EffectVectorVariable@@@D3DX11Effects@@@D3DX11Effects@@$00$00@D3DX11Effects@@UEAAJPEAHII@Z 000000018002bb30 f i effects11:EffectNonRuntime.obj
 0001:0002abd0       ?GetIntVectorArray@?$TVectorVariable@U?$TVariable@U?$TMember@UID3DX11EffectVectorVariable@@@D3DX11Effects@@@D3DX11Effects@@$00$00@D3DX11Effects@@UEAAJPEAHII@Z 000000018002bbd0 f i effects11:EffectNonRuntime.obj
 0001:0002ad10       ?GetFloatVectorArray@?$TVectorVariable@U?$TVariable@U?$TMember@UID3DX11EffectVectorVariable@@@D3DX11Effects@@@D3DX11Effects@@$00$00@D3DX11Effects@@UEAAJPEAMII@Z 000000018002bd10 f i effects11:EffectNonRuntime.obj
 0001:0002ae50       ??0?$TVectorVariable@U?$TVariable@U?$TMember@UID3DX11EffectVectorVariable@@@D3DX11Effects@@@D3DX11Effects@@$0A@$00@D3DX11Effects@@QEAA@XZ 000000018002be50 f i effects11:EffectNonRuntime.obj
 0001:0002ae90       ?SetBoolVector@?$TVectorVariable@U?$TVariable@U?$TMember@UID3DX11EffectVectorVariable@@@D3DX11Effects@@@D3DX11Effects@@$0A@$00@D3DX11Effects@@UEAAJPEBH@Z 000000018002be90 f i effects11:EffectNonRuntime.obj
 0001:0002aef0       ?SetIntVector@?$TVectorVariable@U?$TVariable@U?$TMember@UID3DX11EffectVectorVariable@@@D3DX11Effects@@@D3DX11Effects@@$0A@$00@D3DX11Effects@@UEAAJPEBH@Z 000000018002bef0 f i effects11:EffectNonRuntime.obj
 0001:0002afb0       ?SetFloatVector@?$TVectorVariable@U?$TVariable@U?$TMember@UID3DX11EffectVectorVariable@@@D3DX11Effects@@@D3DX11Effects@@$0A@$00@D3DX11Effects@@UEAAJPEBM@Z 000000018002bfb0 f i effects11:EffectNonRuntime.obj
 0001:0002b0a0       ?GetBoolVector@?$TVectorVariable@U?$TVariable@U?$TMember@UID3DX11EffectVectorVariable@@@D3DX11Effects@@@D3DX11Effects@@$0A@$00@D3DX11Effects@@UEAAJPEAH@Z 000000018002c0a0 f i effects11:EffectNonRuntime.obj
 0001:0002b0e0       ?GetIntVector@?$TVectorVariable@U?$TVariable@U?$TMember@UID3DX11EffectVectorVariable@@@D3DX11Effects@@@D3DX11Effects@@$0A@$00@D3DX11Effects@@UEAAJPEAH@Z 000000018002c0e0 f i effects11:EffectNonRuntime.obj
 0001:0002b190       ?GetFloatVector@?$TVectorVariable@U?$TVariable@U?$TMember@UID3DX11EffectVectorVariable@@@D3DX11Effects@@@D3DX11Effects@@$0A@$00@D3DX11Effects@@UEAAJPEAM@Z 000000018002c190 f i effects11:EffectNonRuntime.obj
 0001:0002b270       ?SetBoolVectorArray@?$TVectorVariable@U?$TVariable@U?$TMember@UID3DX11EffectVectorVariable@@@D3DX11Effects@@@D3DX11Effects@@$0A@$00@D3DX11Effects@@UEAAJPEBHII@Z 000000018002c270 f i effects11:EffectNonRuntime.obj
 0001:0002b340       ?SetIntVectorArray@?$TVectorVariable@U?$TVariable@U?$TMember@UID3DX11EffectVectorVariable@@@D3DX11Effects@@@D3DX11Effects@@$0A@$00@D3DX11Effects@@UEAAJPEBHII@Z 000000018002c340 f i effects11:EffectNonRuntime.obj
 0001:0002b490       ?SetFloatVectorArray@?$TVectorVariable@U?$TVariable@U?$TMember@UID3DX11EffectVectorVariable@@@D3DX11Effects@@@D3DX11Effects@@$0A@$00@D3DX11Effects@@UEAAJPEBMII@Z 000000018002c490 f i effects11:EffectNonRuntime.obj
 0001:0002b5d0       ?GetBoolVectorArray@?$TVectorVariable@U?$TVariable@U?$TMember@UID3DX11EffectVectorVariable@@@D3DX11Effects@@@D3DX11Effects@@$0A@$00@D3DX11Effects@@UEAAJPEAHII@Z 000000018002c5d0 f i effects11:EffectNonRuntime.obj
 0001:0002b670       ?GetIntVectorArray@?$TVectorVariable@U?$TVariable@U?$TMember@UID3DX11EffectVectorVariable@@@D3DX11Effects@@@D3DX11Effects@@$0A@$00@D3DX11Effects@@UEAAJPEAHII@Z 000000018002c670 f i effects11:EffectNonRuntime.obj
 0001:0002b7b0       ?GetFloatVectorArray@?$TVectorVariable@U?$TVariable@U?$TMember@UID3DX11EffectVectorVariable@@@D3DX11Effects@@@D3DX11Effects@@$0A@$00@D3DX11Effects@@UEAAJPEAMII@Z 000000018002c7b0 f i effects11:EffectNonRuntime.obj
 0001:0002b8f0       ??0?$TFloatScalarVariable@U?$TVariable@U?$TMember@UID3DX11EffectScalarVariable@@@D3DX11Effects@@@D3DX11Effects@@$00@D3DX11Effects@@QEAA@XZ 000000018002c8f0 f i effects11:EffectNonRuntime.obj
 0001:0002b930       ?GetTotalUnpackedSize@?$TMember@UID3DX11EffectScalarVariable@@@D3DX11Effects@@QEAAIXZ 000000018002c930 f i effects11:EffectNonRuntime.obj
 0001:0002b970       ??$CopyScalarValue@$01$01M$0A@@D3DX11Effects@@YAJMPEAXPEBD@Z 000000018002c970 f i effects11:EffectNonRuntime.obj
 0001:0002b980       ??$CopyScalarValue@$01$01M$00@D3DX11Effects@@YAJMPEAXPEBD@Z 000000018002c980 f i effects11:EffectNonRuntime.obj
 0001:0002b990       ??$SetScalarArray@$01$01MM@D3DX11Effects@@YAJPEBMPEAMIIPEAUSType@0@IPEBD@Z 000000018002c990 f i effects11:EffectNonRuntime.obj
 0001:0002b9f0       ??$GetScalarArray@$01$01MM@D3DX11Effects@@YAJPEAM0IIPEAUSType@0@IPEBD@Z 000000018002c9f0 f i effects11:EffectNonRuntime.obj
 0001:0002ba50       ??$CopyScalarValue@$00$01H$0A@@D3DX11Effects@@YAJHPEAXPEBD@Z 000000018002ca50 f i effects11:EffectNonRuntime.obj
 0001:0002ba60       ??$CopyScalarValue@$01$00M$00@D3DX11Effects@@YAJMPEAXPEBD@Z 000000018002ca60 f i effects11:EffectNonRuntime.obj
 0001:0002ba70       ??$SetScalarArray@$00$01HM@D3DX11Effects@@YAJPEBHPEAMIIPEAUSType@0@IPEBD@Z 000000018002ca70 f i effects11:EffectNonRuntime.obj
 0001:0002bad0       ??$CopyScalarValue@$0A@$01H$0A@@D3DX11Effects@@YAJHPEAXPEBD@Z 000000018002cad0 f i effects11:EffectNonRuntime.obj
 0001:0002baf0       ??$CopyScalarValue@$01$0A@M$00@D3DX11Effects@@YAJMPEAXPEBD@Z 000000018002caf0 f i effects11:EffectNonRuntime.obj
 0001:0002bb10       ??$SetScalarArray@$0A@$01HM@D3DX11Effects@@YAJPEBHPEAMIIPEAUSType@0@IPEBD@Z 000000018002cb10 f i effects11:EffectNonRuntime.obj
 0001:0002bb80       ??$CopyScalarValue@$01$00M$0A@@D3DX11Effects@@YAJMPEAXPEBD@Z 000000018002cb80 f i effects11:EffectNonRuntime.obj
 0001:0002bb90       ??$CopyScalarValue@$01$0A@M$0A@@D3DX11Effects@@YAJMPEAXPEBD@Z 000000018002cb90 f i effects11:EffectNonRuntime.obj
 0001:0002bbb0       ?SetFloat@?$TFloatScalarVariable@U?$TVariable@U?$TMember@UID3DX11EffectScalarVariable@@@D3DX11Effects@@@D3DX11Effects@@$00@D3DX11Effects@@UEAAJM@Z 000000018002cbb0 f i effects11:EffectNonRuntime.obj
 0001:0002bbc0       ?GetFloat@?$TFloatScalarVariable@U?$TVariable@U?$TMember@UID3DX11EffectScalarVariable@@@D3DX11Effects@@@D3DX11Effects@@$00@D3DX11Effects@@UEAAJPEAM@Z 000000018002cbc0 f i effects11:EffectNonRuntime.obj
 0001:0002bbd0       ?SetFloatArray@?$TFloatScalarVariable@U?$TVariable@U?$TMember@UID3DX11EffectScalarVariable@@@D3DX11Effects@@@D3DX11Effects@@$00@D3DX11Effects@@UEAAJPEBMII@Z 000000018002cbd0 f i effects11:EffectNonRuntime.obj
 0001:0002bbe0       ?GetFloatArray@?$TFloatScalarVariable@U?$TVariable@U?$TMember@UID3DX11EffectScalarVariable@@@D3DX11Effects@@@D3DX11Effects@@$00@D3DX11Effects@@UEAAJPEAMII@Z 000000018002cbe0 f i effects11:EffectNonRuntime.obj
 0001:0002bc40       ?SetInt@?$TFloatScalarVariable@U?$TVariable@U?$TMember@UID3DX11EffectScalarVariable@@@D3DX11Effects@@@D3DX11Effects@@$00@D3DX11Effects@@UEAAJH@Z 000000018002cc40 f i effects11:EffectNonRuntime.obj
 0001:0002bc50       ?GetInt@?$TFloatScalarVariable@U?$TVariable@U?$TMember@UID3DX11EffectScalarVariable@@@D3DX11Effects@@@D3DX11Effects@@$00@D3DX11Effects@@UEAAJPEAH@Z 000000018002cc50 f i effects11:EffectNonRuntime.obj
 0001:0002bc60       ?SetIntArray@?$TFloatScalarVariable@U?$TVariable@U?$TMember@UID3DX11EffectScalarVariable@@@D3DX11Effects@@@D3DX11Effects@@$00@D3DX11Effects@@UEAAJPEBHII@Z 000000018002cc60 f i effects11:EffectNonRuntime.obj
 0001:0002bc70       ?SetBool@?$TFloatScalarVariable@U?$TVariable@U?$TMember@UID3DX11EffectScalarVariable@@@D3DX11Effects@@@D3DX11Effects@@$00@D3DX11Effects@@UEAAJH@Z 000000018002cc70 f i effects11:EffectNonRuntime.obj
 0001:0002bc80       ?GetBool@?$TFloatScalarVariable@U?$TVariable@U?$TMember@UID3DX11EffectScalarVariable@@@D3DX11Effects@@@D3DX11Effects@@$00@D3DX11Effects@@UEAAJPEAH@Z 000000018002cc80 f i effects11:EffectNonRuntime.obj
 0001:0002bcb0       ?SetBoolArray@?$TFloatScalarVariable@U?$TVariable@U?$TMember@UID3DX11EffectScalarVariable@@@D3DX11Effects@@@D3DX11Effects@@$00@D3DX11Effects@@UEAAJPEBHII@Z 000000018002ccb0 f i effects11:EffectNonRuntime.obj
 0001:0002bcc0       ??$GetScalarArray@$01$00MH@D3DX11Effects@@YAJPEAMPEAHIIPEAUSType@0@IPEBD@Z 000000018002ccc0 f i effects11:EffectNonRuntime.obj
 0001:0002bd20       ??$GetScalarArray@$01$0A@MH@D3DX11Effects@@YAJPEAMPEAHIIPEAUSType@0@IPEBD@Z 000000018002cd20 f i effects11:EffectNonRuntime.obj
 0001:0002bd90       ?GetIntArray@?$TFloatScalarVariable@U?$TVariable@U?$TMember@UID3DX11EffectScalarVariable@@@D3DX11Effects@@@D3DX11Effects@@$00@D3DX11Effects@@UEAAJPEAHII@Z 000000018002cd90 f i effects11:EffectNonRuntime.obj
 0001:0002bdf0       ?GetBoolArray@?$TFloatScalarVariable@U?$TVariable@U?$TMember@UID3DX11EffectScalarVariable@@@D3DX11Effects@@@D3DX11Effects@@$00@D3DX11Effects@@UEAAJPEAHII@Z 000000018002cdf0 f i effects11:EffectNonRuntime.obj
 0001:0002be60       ??0?$TFloatScalarVariable@U?$TVariable@U?$TMember@UID3DX11EffectScalarVariable@@@D3DX11Effects@@@D3DX11Effects@@$0A@@D3DX11Effects@@QEAA@XZ 000000018002ce60 f i effects11:EffectNonRuntime.obj
 0001:0002bea0       ?SetFloat@?$TFloatScalarVariable@U?$TVariable@U?$TMember@UID3DX11EffectScalarVariable@@@D3DX11Effects@@@D3DX11Effects@@$0A@@D3DX11Effects@@UEAAJM@Z 000000018002cea0 f i effects11:EffectNonRuntime.obj
 0001:0002bed0       ?GetFloat@?$TFloatScalarVariable@U?$TVariable@U?$TMember@UID3DX11EffectScalarVariable@@@D3DX11Effects@@@D3DX11Effects@@$0A@@D3DX11Effects@@UEAAJPEAM@Z 000000018002ced0 f i effects11:EffectNonRuntime.obj
 0001:0002bee0       ?SetFloatArray@?$TFloatScalarVariable@U?$TVariable@U?$TMember@UID3DX11EffectScalarVariable@@@D3DX11Effects@@@D3DX11Effects@@$0A@@D3DX11Effects@@UEAAJPEBMII@Z 000000018002cee0 f i effects11:EffectNonRuntime.obj
 0001:0002bf60       ?GetFloatArray@?$TFloatScalarVariable@U?$TVariable@U?$TMember@UID3DX11EffectScalarVariable@@@D3DX11Effects@@@D3DX11Effects@@$0A@@D3DX11Effects@@UEAAJPEAMII@Z 000000018002cf60 f i effects11:EffectNonRuntime.obj
 0001:0002bfc0       ?SetInt@?$TFloatScalarVariable@U?$TVariable@U?$TMember@UID3DX11EffectScalarVariable@@@D3DX11Effects@@@D3DX11Effects@@$0A@@D3DX11Effects@@UEAAJH@Z 000000018002cfc0 f i effects11:EffectNonRuntime.obj
 0001:0002bff0       ?GetInt@?$TFloatScalarVariable@U?$TVariable@U?$TMember@UID3DX11EffectScalarVariable@@@D3DX11Effects@@@D3DX11Effects@@$0A@@D3DX11Effects@@UEAAJPEAH@Z 000000018002cff0 f i effects11:EffectNonRuntime.obj
 0001:0002c000       ?SetIntArray@?$TFloatScalarVariable@U?$TVariable@U?$TMember@UID3DX11EffectScalarVariable@@@D3DX11Effects@@@D3DX11Effects@@$0A@@D3DX11Effects@@UEAAJPEBHII@Z 000000018002d000 f i effects11:EffectNonRuntime.obj
 0001:0002c090       ?SetBool@?$TFloatScalarVariable@U?$TVariable@U?$TMember@UID3DX11EffectScalarVariable@@@D3DX11Effects@@@D3DX11Effects@@$0A@@D3DX11Effects@@UEAAJH@Z 000000018002d090 f i effects11:EffectNonRuntime.obj
 0001:0002c0d0       ?GetBool@?$TFloatScalarVariable@U?$TVariable@U?$TMember@UID3DX11EffectScalarVariable@@@D3DX11Effects@@@D3DX11Effects@@$0A@@D3DX11Effects@@UEAAJPEAH@Z 000000018002d0d0 f i effects11:EffectNonRuntime.obj
 0001:0002c100       ?SetBoolArray@?$TFloatScalarVariable@U?$TVariable@U?$TMember@UID3DX11EffectScalarVariable@@@D3DX11Effects@@@D3DX11Effects@@$0A@@D3DX11Effects@@UEAAJPEBHII@Z 000000018002d100 f i effects11:EffectNonRuntime.obj
 0001:0002c1a0       ?GetIntArray@?$TFloatScalarVariable@U?$TVariable@U?$TMember@UID3DX11EffectScalarVariable@@@D3DX11Effects@@@D3DX11Effects@@$0A@@D3DX11Effects@@UEAAJPEAHII@Z 000000018002d1a0 f i effects11:EffectNonRuntime.obj
 0001:0002c200       ?GetBoolArray@?$TFloatScalarVariable@U?$TVariable@U?$TMember@UID3DX11EffectScalarVariable@@@D3DX11Effects@@@D3DX11Effects@@$0A@@D3DX11Effects@@UEAAJPEAHII@Z 000000018002d200 f i effects11:EffectNonRuntime.obj
 0001:0002c270       ??0?$TIntScalarVariable@U?$TVariable@U?$TMember@UID3DX11EffectScalarVariable@@@D3DX11Effects@@@D3DX11Effects@@$00@D3DX11Effects@@QEAA@XZ 000000018002d270 f i effects11:EffectNonRuntime.obj
 0001:0002c2b0       ??$CopyScalarValue@$00$01H$00@D3DX11Effects@@YAJHPEAXPEBD@Z 000000018002d2b0 f i effects11:EffectNonRuntime.obj
 0001:0002c2c0       ??$SetScalarArray@$01$00MH@D3DX11Effects@@YAJPEBMPEAHIIPEAUSType@0@IPEBD@Z 000000018002d2c0 f i effects11:EffectNonRuntime.obj
 0001:0002c320       ??$GetScalarArray@$00$01HM@D3DX11Effects@@YAJPEAHPEAMIIPEAUSType@0@IPEBD@Z 000000018002d320 f i effects11:EffectNonRuntime.obj
 0001:0002c380       ??$CopyScalarValue@$00$00H$0A@@D3DX11Effects@@YAJHPEAXPEBD@Z 000000018002d380 f i effects11:EffectNonRuntime.obj
 0001:0002c390       ??$CopyScalarValue@$00$00H$00@D3DX11Effects@@YAJHPEAXPEBD@Z 000000018002d390 f i effects11:EffectNonRuntime.obj
 0001:0002c3a0       ??$SetScalarArray@$00$00HH@D3DX11Effects@@YAJPEBHPEAHIIPEAUSType@0@IPEBD@Z 000000018002d3a0 f i effects11:EffectNonRuntime.obj
 0001:0002c400       ??$GetScalarArray@$00$00HH@D3DX11Effects@@YAJPEAH0IIPEAUSType@0@IPEBD@Z 000000018002d400 f i effects11:EffectNonRuntime.obj
 0001:0002c460       ??$CopyScalarValue@$0A@$00H$0A@@D3DX11Effects@@YAJHPEAXPEBD@Z 000000018002d460 f i effects11:EffectNonRuntime.obj
 0001:0002c470       ??$CopyScalarValue@$00$0A@H$00@D3DX11Effects@@YAJHPEAXPEBD@Z 000000018002d470 f i effects11:EffectNonRuntime.obj
 0001:0002c480       ??$SetScalarArray@$0A@$00HH@D3DX11Effects@@YAJPEBHPEAHIIPEAUSType@0@IPEBD@Z 000000018002d480 f i effects11:EffectNonRuntime.obj
 0001:0002c4e0       ??$CopyScalarValue@$00$0A@H$0A@@D3DX11Effects@@YAJHPEAXPEBD@Z 000000018002d4e0 f i effects11:EffectNonRuntime.obj
 0001:0002c4f0       ?SetFloat@?$TIntScalarVariable@U?$TVariable@U?$TMember@UID3DX11EffectScalarVariable@@@D3DX11Effects@@@D3DX11Effects@@$00@D3DX11Effects@@UEAAJM@Z 000000018002d4f0 f i effects11:EffectNonRuntime.obj
 0001:0002c500       ?GetFloat@?$TIntScalarVariable@U?$TVariable@U?$TMember@UID3DX11EffectScalarVariable@@@D3DX11Effects@@@D3DX11Effects@@$00@D3DX11Effects@@UEAAJPEAM@Z 000000018002d500 f i effects11:EffectNonRuntime.obj
 0001:0002c520       ?SetFloatArray@?$TIntScalarVariable@U?$TVariable@U?$TMember@UID3DX11EffectScalarVariable@@@D3DX11Effects@@@D3DX11Effects@@$00@D3DX11Effects@@UEAAJPEBMII@Z 000000018002d520 f i effects11:EffectNonRuntime.obj
 0001:0002c530       ?GetFloatArray@?$TIntScalarVariable@U?$TVariable@U?$TMember@UID3DX11EffectScalarVariable@@@D3DX11Effects@@@D3DX11Effects@@$00@D3DX11Effects@@UEAAJPEAMII@Z 000000018002d530 f i effects11:EffectNonRuntime.obj
 0001:0002c590       ?SetInt@?$TIntScalarVariable@U?$TVariable@U?$TMember@UID3DX11EffectScalarVariable@@@D3DX11Effects@@@D3DX11Effects@@$00@D3DX11Effects@@UEAAJH@Z 000000018002d590 f i effects11:EffectNonRuntime.obj
 0001:0002c5a0       ?GetInt@?$TIntScalarVariable@U?$TVariable@U?$TMember@UID3DX11EffectScalarVariable@@@D3DX11Effects@@@D3DX11Effects@@$00@D3DX11Effects@@UEAAJPEAH@Z 000000018002d5a0 f i effects11:EffectNonRuntime.obj
 0001:0002c5b0       ?SetIntArray@?$TIntScalarVariable@U?$TVariable@U?$TMember@UID3DX11EffectScalarVariable@@@D3DX11Effects@@@D3DX11Effects@@$00@D3DX11Effects@@UEAAJPEBHII@Z 000000018002d5b0 f i effects11:EffectNonRuntime.obj
 0001:0002c5c0       ?GetIntArray@?$TIntScalarVariable@U?$TVariable@U?$TMember@UID3DX11EffectScalarVariable@@@D3DX11Effects@@@D3DX11Effects@@$00@D3DX11Effects@@UEAAJPEAHII@Z 000000018002d5c0 f i effects11:EffectNonRuntime.obj
 0001:0002c620       ?SetBool@?$TIntScalarVariable@U?$TVariable@U?$TMember@UID3DX11EffectScalarVariable@@@D3DX11Effects@@@D3DX11Effects@@$00@D3DX11Effects@@UEAAJH@Z 000000018002d620 f i effects11:EffectNonRuntime.obj
 0001:0002c630       ?GetBool@?$TIntScalarVariable@U?$TVariable@U?$TMember@UID3DX11EffectScalarVariable@@@D3DX11Effects@@@D3DX11Effects@@$00@D3DX11Effects@@UEAAJPEAH@Z 000000018002d630 f i effects11:EffectNonRuntime.obj
 0001:0002c640       ?SetBoolArray@?$TIntScalarVariable@U?$TVariable@U?$TMember@UID3DX11EffectScalarVariable@@@D3DX11Effects@@@D3DX11Effects@@$00@D3DX11Effects@@UEAAJPEBHII@Z 000000018002d640 f i effects11:EffectNonRuntime.obj
 0001:0002c650       ??$GetScalarArray@$00$0A@HH@D3DX11Effects@@YAJPEAH0IIPEAUSType@0@IPEBD@Z 000000018002d650 f i effects11:EffectNonRuntime.obj
 0001:0002c6b0       ?GetBoolArray@?$TIntScalarVariable@U?$TVariable@U?$TMember@UID3DX11EffectScalarVariable@@@D3DX11Effects@@@D3DX11Effects@@$00@D3DX11Effects@@UEAAJPEAHII@Z 000000018002d6b0 f i effects11:EffectNonRuntime.obj
 0001:0002c710       ??0?$TIntScalarVariable@U?$TVariable@U?$TMember@UID3DX11EffectScalarVariable@@@D3DX11Effects@@@D3DX11Effects@@$0A@@D3DX11Effects@@QEAA@XZ 000000018002d710 f i effects11:EffectNonRuntime.obj
 0001:0002c750       ?SetFloat@?$TIntScalarVariable@U?$TVariable@U?$TMember@UID3DX11EffectScalarVariable@@@D3DX11Effects@@@D3DX11Effects@@$0A@@D3DX11Effects@@UEAAJM@Z 000000018002d750 f i effects11:EffectNonRuntime.obj
 0001:0002c780       ?GetFloat@?$TIntScalarVariable@U?$TVariable@U?$TMember@UID3DX11EffectScalarVariable@@@D3DX11Effects@@@D3DX11Effects@@$0A@@D3DX11Effects@@UEAAJPEAM@Z 000000018002d780 f i effects11:EffectNonRuntime.obj
 0001:0002c7a0       ?SetFloatArray@?$TIntScalarVariable@U?$TVariable@U?$TMember@UID3DX11EffectScalarVariable@@@D3DX11Effects@@@D3DX11Effects@@$0A@@D3DX11Effects@@UEAAJPEBMII@Z 000000018002d7a0 f i effects11:EffectNonRuntime.obj
 0001:0002c820       ?GetFloatArray@?$TIntScalarVariable@U?$TVariable@U?$TMember@UID3DX11EffectScalarVariable@@@D3DX11Effects@@@D3DX11Effects@@$0A@@D3DX11Effects@@UEAAJPEAMII@Z 000000018002d820 f i effects11:EffectNonRuntime.obj
 0001:0002c880       ?SetInt@?$TIntScalarVariable@U?$TVariable@U?$TMember@UID3DX11EffectScalarVariable@@@D3DX11Effects@@@D3DX11Effects@@$0A@@D3DX11Effects@@UEAAJH@Z 000000018002d880 f i effects11:EffectNonRuntime.obj
 0001:0002c8b0       ?GetInt@?$TIntScalarVariable@U?$TVariable@U?$TMember@UID3DX11EffectScalarVariable@@@D3DX11Effects@@@D3DX11Effects@@$0A@@D3DX11Effects@@UEAAJPEAH@Z 000000018002d8b0 f i effects11:EffectNonRuntime.obj
 0001:0002c8c0       ?SetIntArray@?$TIntScalarVariable@U?$TVariable@U?$TMember@UID3DX11EffectScalarVariable@@@D3DX11Effects@@@D3DX11Effects@@$0A@@D3DX11Effects@@UEAAJPEBHII@Z 000000018002d8c0 f i effects11:EffectNonRuntime.obj
 0001:0002c940       ?GetIntArray@?$TIntScalarVariable@U?$TVariable@U?$TMember@UID3DX11EffectScalarVariable@@@D3DX11Effects@@@D3DX11Effects@@$0A@@D3DX11Effects@@UEAAJPEAHII@Z 000000018002d940 f i effects11:EffectNonRuntime.obj
 0001:0002c9a0       ?SetBool@?$TIntScalarVariable@U?$TVariable@U?$TMember@UID3DX11EffectScalarVariable@@@D3DX11Effects@@@D3DX11Effects@@$0A@@D3DX11Effects@@UEAAJH@Z 000000018002d9a0 f i effects11:EffectNonRuntime.obj
 0001:0002c9d0       ?GetBool@?$TIntScalarVariable@U?$TVariable@U?$TMember@UID3DX11EffectScalarVariable@@@D3DX11Effects@@@D3DX11Effects@@$0A@@D3DX11Effects@@UEAAJPEAH@Z 000000018002d9d0 f i effects11:EffectNonRuntime.obj
 0001:0002c9e0       ?SetBoolArray@?$TIntScalarVariable@U?$TVariable@U?$TMember@UID3DX11EffectScalarVariable@@@D3DX11Effects@@@D3DX11Effects@@$0A@@D3DX11Effects@@UEAAJPEBHII@Z 000000018002d9e0 f i effects11:EffectNonRuntime.obj
 0001:0002ca60       ?GetBoolArray@?$TIntScalarVariable@U?$TVariable@U?$TMember@UID3DX11EffectScalarVariable@@@D3DX11Effects@@@D3DX11Effects@@$0A@@D3DX11Effects@@UEAAJPEAHII@Z 000000018002da60 f i effects11:EffectNonRuntime.obj
 0001:0002cac0       ??0?$TBoolScalarVariable@U?$TVariable@U?$TMember@UID3DX11EffectScalarVariable@@@D3DX11Effects@@@D3DX11Effects@@$00@D3DX11Effects@@QEAA@XZ 000000018002dac0 f i effects11:EffectNonRuntime.obj
 0001:0002cb00       ??$CopyScalarValue@$0A@$01H$00@D3DX11Effects@@YAJHPEAXPEBD@Z 000000018002db00 f i effects11:EffectNonRuntime.obj
 0001:0002cb20       ??$SetScalarArray@$01$0A@MH@D3DX11Effects@@YAJPEBMPEAHIIPEAUSType@0@IPEBD@Z 000000018002db20 f i effects11:EffectNonRuntime.obj
 0001:0002cb90       ??$GetScalarArray@$0A@$01HM@D3DX11Effects@@YAJPEAHPEAMIIPEAUSType@0@IPEBD@Z 000000018002db90 f i effects11:EffectNonRuntime.obj
 0001:0002cc00       ??$CopyScalarValue@$0A@$00H$00@D3DX11Effects@@YAJHPEAXPEBD@Z 000000018002dc00 f i effects11:EffectNonRuntime.obj
 0001:0002cc10       ??$SetScalarArray@$00$0A@HH@D3DX11Effects@@YAJPEBHPEAHIIPEAUSType@0@IPEBD@Z 000000018002dc10 f i effects11:EffectNonRuntime.obj
 0001:0002cc70       ??$GetScalarArray@$0A@$00HH@D3DX11Effects@@YAJPEAH0IIPEAUSType@0@IPEBD@Z 000000018002dc70 f i effects11:EffectNonRuntime.obj
 0001:0002ccd0       ??$CopyScalarValue@$0A@$0A@H$0A@@D3DX11Effects@@YAJHPEAXPEBD@Z 000000018002dcd0 f i effects11:EffectNonRuntime.obj
 0001:0002cce0       ??$CopyScalarValue@$0A@$0A@H$00@D3DX11Effects@@YAJHPEAXPEBD@Z 000000018002dce0 f i effects11:EffectNonRuntime.obj
 0001:0002ccf0       ??$SetScalarArray@$0A@$0A@HH@D3DX11Effects@@YAJPEBHPEAHIIPEAUSType@0@IPEBD@Z 000000018002dcf0 f i effects11:EffectNonRuntime.obj
 0001:0002cd50       ??$GetScalarArray@$0A@$0A@HH@D3DX11Effects@@YAJPEAH0IIPEAUSType@0@IPEBD@Z 000000018002dd50 f i effects11:EffectNonRuntime.obj
 0001:0002cdb0       ?SetFloat@?$TBoolScalarVariable@U?$TVariable@U?$TMember@UID3DX11EffectScalarVariable@@@D3DX11Effects@@@D3DX11Effects@@$00@D3DX11Effects@@UEAAJM@Z 000000018002ddb0 f i effects11:EffectNonRuntime.obj
 0001:0002cdc0       ?GetFloat@?$TBoolScalarVariable@U?$TVariable@U?$TMember@UID3DX11EffectScalarVariable@@@D3DX11Effects@@@D3DX11Effects@@$00@D3DX11Effects@@UEAAJPEAM@Z 000000018002ddc0 f i effects11:EffectNonRuntime.obj
 0001:0002cdf0       ?SetFloatArray@?$TBoolScalarVariable@U?$TVariable@U?$TMember@UID3DX11EffectScalarVariable@@@D3DX11Effects@@@D3DX11Effects@@$00@D3DX11Effects@@UEAAJPEBMII@Z 000000018002ddf0 f i effects11:EffectNonRuntime.obj
 0001:0002ce00       ?GetFloatArray@?$TBoolScalarVariable@U?$TVariable@U?$TMember@UID3DX11EffectScalarVariable@@@D3DX11Effects@@@D3DX11Effects@@$00@D3DX11Effects@@UEAAJPEAMII@Z 000000018002de00 f i effects11:EffectNonRuntime.obj
 0001:0002ce70       ?SetInt@?$TBoolScalarVariable@U?$TVariable@U?$TMember@UID3DX11EffectScalarVariable@@@D3DX11Effects@@@D3DX11Effects@@$00@D3DX11Effects@@UEAAJH@Z 000000018002de70 f i effects11:EffectNonRuntime.obj
 0001:0002ce80       ?GetInt@?$TBoolScalarVariable@U?$TVariable@U?$TMember@UID3DX11EffectScalarVariable@@@D3DX11Effects@@@D3DX11Effects@@$00@D3DX11Effects@@UEAAJPEAH@Z 000000018002de80 f i effects11:EffectNonRuntime.obj
 0001:0002ce90       ?SetIntArray@?$TBoolScalarVariable@U?$TVariable@U?$TMember@UID3DX11EffectScalarVariable@@@D3DX11Effects@@@D3DX11Effects@@$00@D3DX11Effects@@UEAAJPEBHII@Z 000000018002de90 f i effects11:EffectNonRuntime.obj
 0001:0002cea0       ?GetIntArray@?$TBoolScalarVariable@U?$TVariable@U?$TMember@UID3DX11EffectScalarVariable@@@D3DX11Effects@@@D3DX11Effects@@$00@D3DX11Effects@@UEAAJPEAHII@Z 000000018002dea0 f i effects11:EffectNonRuntime.obj
 0001:0002cf00       ?SetBool@?$TBoolScalarVariable@U?$TVariable@U?$TMember@UID3DX11EffectScalarVariable@@@D3DX11Effects@@@D3DX11Effects@@$00@D3DX11Effects@@UEAAJH@Z 000000018002df00 f i effects11:EffectNonRuntime.obj
 0001:0002cf10       ?GetBool@?$TBoolScalarVariable@U?$TVariable@U?$TMember@UID3DX11EffectScalarVariable@@@D3DX11Effects@@@D3DX11Effects@@$00@D3DX11Effects@@UEAAJPEAH@Z 000000018002df10 f i effects11:EffectNonRuntime.obj
 0001:0002cf20       ?SetBoolArray@?$TBoolScalarVariable@U?$TVariable@U?$TMember@UID3DX11EffectScalarVariable@@@D3DX11Effects@@@D3DX11Effects@@$00@D3DX11Effects@@UEAAJPEBHII@Z 000000018002df20 f i effects11:EffectNonRuntime.obj
 0001:0002cf30       ?GetBoolArray@?$TBoolScalarVariable@U?$TVariable@U?$TMember@UID3DX11EffectScalarVariable@@@D3DX11Effects@@@D3DX11Effects@@$00@D3DX11Effects@@UEAAJPEAHII@Z 000000018002df30 f i effects11:EffectNonRuntime.obj
 0001:0002cf90       ??0?$TBoolScalarVariable@U?$TVariable@U?$TMember@UID3DX11EffectScalarVariable@@@D3DX11Effects@@@D3DX11Effects@@$0A@@D3DX11Effects@@QEAA@XZ 000000018002df90 f i effects11:EffectNonRuntime.obj
 0001:0002cfd0       ?SetFloat@?$TBoolScalarVariable@U?$TVariable@U?$TMember@UID3DX11EffectScalarVariable@@@D3DX11Effects@@@D3DX11Effects@@$0A@@D3DX11Effects@@UEAAJM@Z 000000018002dfd0 f i effects11:EffectNonRuntime.obj
 0001:0002d010       ?GetFloat@?$TBoolScalarVariable@U?$TVariable@U?$TMember@UID3DX11EffectScalarVariable@@@D3DX11Effects@@@D3DX11Effects@@$0A@@D3DX11Effects@@UEAAJPEAM@Z 000000018002e010 f i effects11:EffectNonRuntime.obj
 0001:0002d040       ?SetFloatArray@?$TBoolScalarVariable@U?$TVariable@U?$TMember@UID3DX11EffectScalarVariable@@@D3DX11Effects@@@D3DX11Effects@@$0A@@D3DX11Effects@@UEAAJPEBMII@Z 000000018002e040 f i effects11:EffectNonRuntime.obj
 0001:0002d0d0       ?GetFloatArray@?$TBoolScalarVariable@U?$TVariable@U?$TMember@UID3DX11EffectScalarVariable@@@D3DX11Effects@@@D3DX11Effects@@$0A@@D3DX11Effects@@UEAAJPEAMII@Z 000000018002e0d0 f i effects11:EffectNonRuntime.obj
 0001:0002d140       ?SetInt@?$TBoolScalarVariable@U?$TVariable@U?$TMember@UID3DX11EffectScalarVariable@@@D3DX11Effects@@@D3DX11Effects@@$0A@@D3DX11Effects@@UEAAJH@Z 000000018002e140 f i effects11:EffectNonRuntime.obj
 0001:0002d170       ?GetInt@?$TBoolScalarVariable@U?$TVariable@U?$TMember@UID3DX11EffectScalarVariable@@@D3DX11Effects@@@D3DX11Effects@@$0A@@D3DX11Effects@@UEAAJPEAH@Z 000000018002e170 f i effects11:EffectNonRuntime.obj
 0001:0002d180       ?SetIntArray@?$TBoolScalarVariable@U?$TVariable@U?$TMember@UID3DX11EffectScalarVariable@@@D3DX11Effects@@@D3DX11Effects@@$0A@@D3DX11Effects@@UEAAJPEBHII@Z 000000018002e180 f i effects11:EffectNonRuntime.obj
 0001:0002d200       ?GetIntArray@?$TBoolScalarVariable@U?$TVariable@U?$TMember@UID3DX11EffectScalarVariable@@@D3DX11Effects@@@D3DX11Effects@@$0A@@D3DX11Effects@@UEAAJPEAHII@Z 000000018002e200 f i effects11:EffectNonRuntime.obj
 0001:0002d260       ?SetBool@?$TBoolScalarVariable@U?$TVariable@U?$TMember@UID3DX11EffectScalarVariable@@@D3DX11Effects@@@D3DX11Effects@@$0A@@D3DX11Effects@@UEAAJH@Z 000000018002e260 f i effects11:EffectNonRuntime.obj
 0001:0002d290       ?GetBool@?$TBoolScalarVariable@U?$TVariable@U?$TMember@UID3DX11EffectScalarVariable@@@D3DX11Effects@@@D3DX11Effects@@$0A@@D3DX11Effects@@UEAAJPEAH@Z 000000018002e290 f i effects11:EffectNonRuntime.obj
 0001:0002d2a0       ?SetBoolArray@?$TBoolScalarVariable@U?$TVariable@U?$TMember@UID3DX11EffectScalarVariable@@@D3DX11Effects@@@D3DX11Effects@@$0A@@D3DX11Effects@@UEAAJPEBHII@Z 000000018002e2a0 f i effects11:EffectNonRuntime.obj
 0001:0002d320       ?GetBoolArray@?$TBoolScalarVariable@U?$TVariable@U?$TMember@UID3DX11EffectScalarVariable@@@D3DX11Effects@@@D3DX11Effects@@$0A@@D3DX11Effects@@UEAAJPEAHII@Z 000000018002e320 f i effects11:EffectNonRuntime.obj
 0001:0002d380       ??0SNumericAnnotation@D3DX11Effects@@QEAA@XZ 000000018002e380 f i effects11:EffectNonRuntime.obj
 0001:0002d3c0       ??0SClassInstanceGlobalVariable@D3DX11Effects@@QEAA@XZ 000000018002e3c0 f i effects11:EffectNonRuntime.obj
 0001:0002d410       ??0SInterfaceGlobalVariable@D3DX11Effects@@QEAA@XZ 000000018002e410 f i effects11:EffectNonRuntime.obj
 0001:0002d460       ??0SStringGlobalVariable@D3DX11Effects@@QEAA@XZ 000000018002e460 f i effects11:EffectNonRuntime.obj
 0001:0002d4b0       ??0SShaderResourceGlobalVariable@D3DX11Effects@@QEAA@XZ 000000018002e4b0 f i effects11:EffectNonRuntime.obj
 0001:0002d500       ??0SUnorderedAccessViewGlobalVariable@D3DX11Effects@@QEAA@XZ 000000018002e500 f i effects11:EffectNonRuntime.obj
 0001:0002d550       ??0SShaderGlobalVariable@D3DX11Effects@@QEAA@XZ 000000018002e550 f i effects11:EffectNonRuntime.obj
 0001:0002d5a0       ??0SBlendGlobalVariable@D3DX11Effects@@QEAA@XZ 000000018002e5a0 f i effects11:EffectNonRuntime.obj
 0001:0002d5f0       ??0SRasterizerGlobalVariable@D3DX11Effects@@QEAA@XZ 000000018002e5f0 f i effects11:EffectNonRuntime.obj
 0001:0002d640       ??0SDepthStencilGlobalVariable@D3DX11Effects@@QEAA@XZ 000000018002e640 f i effects11:EffectNonRuntime.obj
 0001:0002d690       ??0SSamplerGlobalVariable@D3DX11Effects@@QEAA@XZ 000000018002e690 f i effects11:EffectNonRuntime.obj
 0001:0002d6e0       ??0SRenderTargetViewGlobalVariable@D3DX11Effects@@QEAA@XZ 000000018002e6e0 f i effects11:EffectNonRuntime.obj
 0001:0002d730       ??0SDepthStencilViewGlobalVariable@D3DX11Effects@@QEAA@XZ 000000018002e730 f i effects11:EffectNonRuntime.obj
 0001:0002d780       ??0?$TStringVariable@U?$TAnnotation@UID3DX11EffectStringVariable@@@D3DX11Effects@@$00@D3DX11Effects@@QEAA@XZ 000000018002e780 f i effects11:EffectNonRuntime.obj
 0001:0002d7c0       ?GetString@?$TStringVariable@U?$TAnnotation@UID3DX11EffectStringVariable@@@D3DX11Effects@@$00@D3DX11Effects@@UEAAJPEAPEBD@Z 000000018002e7c0 f i effects11:EffectNonRuntime.obj
 0001:0002d840       ?GetStringArray@?$TStringVariable@U?$TAnnotation@UID3DX11EffectStringVariable@@@D3DX11Effects@@$00@D3DX11Effects@@UEAAJPEAPEBDII@Z 000000018002e840 f i effects11:EffectNonRuntime.obj
 0001:0002d8d0       ??0?$TMatrixVariable@U?$TGlobalVariable@UID3DX11EffectMatrixVariable@@@D3DX11Effects@@$0A@@D3DX11Effects@@QEAA@XZ 000000018002e8d0 f i effects11:EffectNonRuntime.obj
 0001:0002d920       ?GetTotalUnpackedSize@?$TTopLevelVariable@UID3DX11EffectMatrixVariable@@@D3DX11Effects@@QEAAIXZ 000000018002e920 f i effects11:EffectNonRuntime.obj
 0001:0002d940       ?SetMatrix@?$TMatrixVariable@U?$TGlobalVariable@UID3DX11EffectMatrixVariable@@@D3DX11Effects@@$0A@@D3DX11Effects@@UEAAJPEBM@Z 000000018002e940 f i effects11:EffectNonRuntime.obj
 0001:0002d9b0       ?GetMatrix@?$TMatrixVariable@U?$TGlobalVariable@UID3DX11EffectMatrixVariable@@@D3DX11Effects@@$0A@@D3DX11Effects@@UEAAJPEAM@Z 000000018002e9b0 f i effects11:EffectNonRuntime.obj
 0001:0002da00       ?SetMatrixArray@?$TMatrixVariable@U?$TGlobalVariable@UID3DX11EffectMatrixVariable@@@D3DX11Effects@@$0A@@D3DX11Effects@@UEAAJPEBMII@Z 000000018002ea00 f i effects11:EffectNonRuntime.obj
 0001:0002da70       ?GetMatrixArray@?$TMatrixVariable@U?$TGlobalVariable@UID3DX11EffectMatrixVariable@@@D3DX11Effects@@$0A@@D3DX11Effects@@UEAAJPEAMII@Z 000000018002ea70 f i effects11:EffectNonRuntime.obj
 0001:0002dac0       ?SetMatrixPointerArray@?$TMatrixVariable@U?$TGlobalVariable@UID3DX11EffectMatrixVariable@@@D3DX11Effects@@$0A@@D3DX11Effects@@UEAAJPEAPEBMII@Z 000000018002eac0 f i effects11:EffectNonRuntime.obj
 0001:0002db30       ?GetMatrixPointerArray@?$TMatrixVariable@U?$TGlobalVariable@UID3DX11EffectMatrixVariable@@@D3DX11Effects@@$0A@@D3DX11Effects@@UEAAJPEAPEAMII@Z 000000018002eb30 f i effects11:EffectNonRuntime.obj
 0001:0002db80       ?SetMatrixTranspose@?$TMatrixVariable@U?$TGlobalVariable@UID3DX11EffectMatrixVariable@@@D3DX11Effects@@$0A@@D3DX11Effects@@UEAAJPEBM@Z 000000018002eb80 f i effects11:EffectNonRuntime.obj
 0001:0002dbf0       ?GetMatrixTranspose@?$TMatrixVariable@U?$TGlobalVariable@UID3DX11EffectMatrixVariable@@@D3DX11Effects@@$0A@@D3DX11Effects@@UEAAJPEAM@Z 000000018002ebf0 f i effects11:EffectNonRuntime.obj
 0001:0002dc40       ?SetMatrixTransposeArray@?$TMatrixVariable@U?$TGlobalVariable@UID3DX11EffectMatrixVariable@@@D3DX11Effects@@$0A@@D3DX11Effects@@UEAAJPEBMII@Z 000000018002ec40 f i effects11:EffectNonRuntime.obj
 0001:0002dcb0       ?GetMatrixTransposeArray@?$TMatrixVariable@U?$TGlobalVariable@UID3DX11EffectMatrixVariable@@@D3DX11Effects@@$0A@@D3DX11Effects@@UEAAJPEAMII@Z 000000018002ecb0 f i effects11:EffectNonRuntime.obj
 0001:0002dd00       ?SetMatrixTransposePointerArray@?$TMatrixVariable@U?$TGlobalVariable@UID3DX11EffectMatrixVariable@@@D3DX11Effects@@$0A@@D3DX11Effects@@UEAAJPEAPEBMII@Z 000000018002ed00 f i effects11:EffectNonRuntime.obj
 0001:0002dd70       ?GetMatrixTransposePointerArray@?$TMatrixVariable@U?$TGlobalVariable@UID3DX11EffectMatrixVariable@@@D3DX11Effects@@$0A@@D3DX11Effects@@UEAAJPEAPEAMII@Z 000000018002ed70 f i effects11:EffectNonRuntime.obj
 0001:0002ddc0       ??0?$TVectorVariable@U?$TGlobalVariable@UID3DX11EffectVectorVariable@@@D3DX11Effects@@$0A@$01@D3DX11Effects@@QEAA@XZ 000000018002edc0 f i effects11:EffectNonRuntime.obj
 0001:0002de10       ?SetBoolVector@?$TVectorVariable@U?$TGlobalVariable@UID3DX11EffectVectorVariable@@@D3DX11Effects@@$0A@$01@D3DX11Effects@@UEAAJPEBH@Z 000000018002ee10 f i effects11:EffectNonRuntime.obj
 0001:0002df40       ?SetIntVector@?$TVectorVariable@U?$TGlobalVariable@UID3DX11EffectVectorVariable@@@D3DX11Effects@@$0A@$01@D3DX11Effects@@UEAAJPEBH@Z 000000018002ef40 f i effects11:EffectNonRuntime.obj
 0001:0002e030       ?SetFloatVector@?$TVectorVariable@U?$TGlobalVariable@UID3DX11EffectVectorVariable@@@D3DX11Effects@@$0A@$01@D3DX11Effects@@UEAAJPEBM@Z 000000018002f030 f i effects11:EffectNonRuntime.obj
 0001:0002e0f0       ?GetBoolVector@?$TVectorVariable@U?$TGlobalVariable@UID3DX11EffectVectorVariable@@@D3DX11Effects@@$0A@$01@D3DX11Effects@@UEAAJPEAH@Z 000000018002f0f0 f i effects11:EffectNonRuntime.obj
 0001:0002e1e0       ?GetIntVector@?$TVectorVariable@U?$TGlobalVariable@UID3DX11EffectVectorVariable@@@D3DX11Effects@@$0A@$01@D3DX11Effects@@UEAAJPEAH@Z 000000018002f1e0 f i effects11:EffectNonRuntime.obj
 0001:0002e2b0       ?GetFloatVector@?$TVectorVariable@U?$TGlobalVariable@UID3DX11EffectVectorVariable@@@D3DX11Effects@@$0A@$01@D3DX11Effects@@UEAAJPEAM@Z 000000018002f2b0 f i effects11:EffectNonRuntime.obj
 0001:0002e360       ?SetBoolVectorArray@?$TVectorVariable@U?$TGlobalVariable@UID3DX11EffectVectorVariable@@@D3DX11Effects@@$0A@$01@D3DX11Effects@@UEAAJPEBHII@Z 000000018002f360 f i effects11:EffectNonRuntime.obj
 0001:0002e4d0       ?SetIntVectorArray@?$TVectorVariable@U?$TGlobalVariable@UID3DX11EffectVectorVariable@@@D3DX11Effects@@$0A@$01@D3DX11Effects@@UEAAJPEBHII@Z 000000018002f4d0 f i effects11:EffectNonRuntime.obj
 0001:0002e620       ?SetFloatVectorArray@?$TVectorVariable@U?$TGlobalVariable@UID3DX11EffectVectorVariable@@@D3DX11Effects@@$0A@$01@D3DX11Effects@@UEAAJPEBMII@Z 000000018002f620 f i effects11:EffectNonRuntime.obj
 0001:0002e760       ?GetBoolVectorArray@?$TVectorVariable@U?$TGlobalVariable@UID3DX11EffectVectorVariable@@@D3DX11Effects@@$0A@$01@D3DX11Effects@@UEAAJPEAHII@Z 000000018002f760 f i effects11:EffectNonRuntime.obj
 0001:0002e8b0       ?GetIntVectorArray@?$TVectorVariable@U?$TGlobalVariable@UID3DX11EffectVectorVariable@@@D3DX11Effects@@$0A@$01@D3DX11Effects@@UEAAJPEAHII@Z 000000018002f8b0 f i effects11:EffectNonRuntime.obj
 0001:0002e9e0       ?GetFloatVectorArray@?$TVectorVariable@U?$TGlobalVariable@UID3DX11EffectVectorVariable@@@D3DX11Effects@@$0A@$01@D3DX11Effects@@UEAAJPEAMII@Z 000000018002f9e0 f i effects11:EffectNonRuntime.obj
 0001:0002eb20       ??0?$TVectorVariable@U?$TGlobalVariable@UID3DX11EffectVectorVariable@@@D3DX11Effects@@$0A@$0A@@D3DX11Effects@@QEAA@XZ 000000018002fb20 f i effects11:EffectNonRuntime.obj
 0001:0002eb70       ?SetBoolVector@?$TVectorVariable@U?$TGlobalVariable@UID3DX11EffectVectorVariable@@@D3DX11Effects@@$0A@$0A@@D3DX11Effects@@UEAAJPEBH@Z 000000018002fb70 f i effects11:EffectNonRuntime.obj
 0001:0002ec30       ?SetIntVector@?$TVectorVariable@U?$TGlobalVariable@UID3DX11EffectVectorVariable@@@D3DX11Effects@@$0A@$0A@@D3DX11Effects@@UEAAJPEBH@Z 000000018002fc30 f i effects11:EffectNonRuntime.obj
 0001:0002ec90       ?SetFloatVector@?$TVectorVariable@U?$TGlobalVariable@UID3DX11EffectVectorVariable@@@D3DX11Effects@@$0A@$0A@@D3DX11Effects@@UEAAJPEBM@Z 000000018002fc90 f i effects11:EffectNonRuntime.obj
 0001:0002ed90       ?GetBoolVector@?$TVectorVariable@U?$TGlobalVariable@UID3DX11EffectVectorVariable@@@D3DX11Effects@@$0A@$0A@@D3DX11Effects@@UEAAJPEAH@Z 000000018002fd90 f i effects11:EffectNonRuntime.obj
 0001:0002ee40       ?GetIntVector@?$TVectorVariable@U?$TGlobalVariable@UID3DX11EffectVectorVariable@@@D3DX11Effects@@$0A@$0A@@D3DX11Effects@@UEAAJPEAH@Z 000000018002fe40 f i effects11:EffectNonRuntime.obj
 0001:0002ee80       ?GetFloatVector@?$TVectorVariable@U?$TGlobalVariable@UID3DX11EffectVectorVariable@@@D3DX11Effects@@$0A@$0A@@D3DX11Effects@@UEAAJPEAM@Z 000000018002fe80 f i effects11:EffectNonRuntime.obj
 0001:0002ef90       ?SetBoolVectorArray@?$TVectorVariable@U?$TGlobalVariable@UID3DX11EffectVectorVariable@@@D3DX11Effects@@$0A@$0A@@D3DX11Effects@@UEAAJPEBHII@Z 000000018002ff90 f i effects11:EffectNonRuntime.obj
 0001:0002f0d0       ?SetIntVectorArray@?$TVectorVariable@U?$TGlobalVariable@UID3DX11EffectVectorVariable@@@D3DX11Effects@@$0A@$0A@@D3DX11Effects@@UEAAJPEBHII@Z 00000001800300d0 f i effects11:EffectNonRuntime.obj
 0001:0002f180       ?SetFloatVectorArray@?$TVectorVariable@U?$TGlobalVariable@UID3DX11EffectVectorVariable@@@D3DX11Effects@@$0A@$0A@@D3DX11Effects@@UEAAJPEBMII@Z 0000000180030180 f i effects11:EffectNonRuntime.obj
 0001:0002f2e0       ?GetBoolVectorArray@?$TVectorVariable@U?$TGlobalVariable@UID3DX11EffectVectorVariable@@@D3DX11Effects@@$0A@$0A@@D3DX11Effects@@UEAAJPEAHII@Z 00000001800302e0 f i effects11:EffectNonRuntime.obj
 0001:0002f420       ?GetIntVectorArray@?$TVectorVariable@U?$TGlobalVariable@UID3DX11EffectVectorVariable@@@D3DX11Effects@@$0A@$0A@@D3DX11Effects@@UEAAJPEAHII@Z 0000000180030420 f i effects11:EffectNonRuntime.obj
 0001:0002f4d0       ?GetFloatVectorArray@?$TVectorVariable@U?$TGlobalVariable@UID3DX11EffectVectorVariable@@@D3DX11Effects@@$0A@$0A@@D3DX11Effects@@UEAAJPEAMII@Z 00000001800304d0 f i effects11:EffectNonRuntime.obj
 0001:0002f630       ??0?$TVectorVariable@U?$TGlobalVariable@UID3DX11EffectVectorVariable@@@D3DX11Effects@@$0A@$00@D3DX11Effects@@QEAA@XZ 0000000180030630 f i effects11:EffectNonRuntime.obj
 0001:0002f680       ?SetBoolVector@?$TVectorVariable@U?$TGlobalVariable@UID3DX11EffectVectorVariable@@@D3DX11Effects@@$0A@$00@D3DX11Effects@@UEAAJPEBH@Z 0000000180030680 f i effects11:EffectNonRuntime.obj
 0001:0002f6e0       ?SetIntVector@?$TVectorVariable@U?$TGlobalVariable@UID3DX11EffectVectorVariable@@@D3DX11Effects@@$0A@$00@D3DX11Effects@@UEAAJPEBH@Z 00000001800306e0 f i effects11:EffectNonRuntime.obj
 0001:0002f7a0       ?SetFloatVector@?$TVectorVariable@U?$TGlobalVariable@UID3DX11EffectVectorVariable@@@D3DX11Effects@@$0A@$00@D3DX11Effects@@UEAAJPEBM@Z 00000001800307a0 f i effects11:EffectNonRuntime.obj
 0001:0002f880       ?GetBoolVector@?$TVectorVariable@U?$TGlobalVariable@UID3DX11EffectVectorVariable@@@D3DX11Effects@@$0A@$00@D3DX11Effects@@UEAAJPEAH@Z 0000000180030880 f i effects11:EffectNonRuntime.obj
 0001:0002f8c0       ?GetIntVector@?$TVectorVariable@U?$TGlobalVariable@UID3DX11EffectVectorVariable@@@D3DX11Effects@@$0A@$00@D3DX11Effects@@UEAAJPEAH@Z 00000001800308c0 f i effects11:EffectNonRuntime.obj
 0001:0002f970       ?GetFloatVector@?$TVectorVariable@U?$TGlobalVariable@UID3DX11EffectVectorVariable@@@D3DX11Effects@@$0A@$00@D3DX11Effects@@UEAAJPEAM@Z 0000000180030970 f i effects11:EffectNonRuntime.obj
 0001:0002fa50       ?SetBoolVectorArray@?$TVectorVariable@U?$TGlobalVariable@UID3DX11EffectVectorVariable@@@D3DX11Effects@@$0A@$00@D3DX11Effects@@UEAAJPEBHII@Z 0000000180030a50 f i effects11:EffectNonRuntime.obj
 0001:0002fb10       ?SetIntVectorArray@?$TVectorVariable@U?$TGlobalVariable@UID3DX11EffectVectorVariable@@@D3DX11Effects@@$0A@$00@D3DX11Effects@@UEAAJPEBHII@Z 0000000180030b10 f i effects11:EffectNonRuntime.obj
 0001:0002fc50       ?SetFloatVectorArray@?$TVectorVariable@U?$TGlobalVariable@UID3DX11EffectVectorVariable@@@D3DX11Effects@@$0A@$00@D3DX11Effects@@UEAAJPEBMII@Z 0000000180030c50 f i effects11:EffectNonRuntime.obj
 0001:0002fd90       ?GetBoolVectorArray@?$TVectorVariable@U?$TGlobalVariable@UID3DX11EffectVectorVariable@@@D3DX11Effects@@$0A@$00@D3DX11Effects@@UEAAJPEAHII@Z 0000000180030d90 f i effects11:EffectNonRuntime.obj
 0001:0002fe30       ?GetIntVectorArray@?$TVectorVariable@U?$TGlobalVariable@UID3DX11EffectVectorVariable@@@D3DX11Effects@@$0A@$00@D3DX11Effects@@UEAAJPEAHII@Z 0000000180030e30 f i effects11:EffectNonRuntime.obj
 0001:0002ff70       ?GetFloatVectorArray@?$TVectorVariable@U?$TGlobalVariable@UID3DX11EffectVectorVariable@@@D3DX11Effects@@$0A@$00@D3DX11Effects@@UEAAJPEAMII@Z 0000000180030f70 f i effects11:EffectNonRuntime.obj
 0001:000300b0       ??0?$TFloatScalarVariable@U?$TGlobalVariable@UID3DX11EffectScalarVariable@@@D3DX11Effects@@$0A@@D3DX11Effects@@QEAA@XZ 00000001800310b0 f i effects11:EffectNonRuntime.obj
 0001:00030100       ?GetTotalUnpackedSize@?$TTopLevelVariable@UID3DX11EffectScalarVariable@@@D3DX11Effects@@QEAAIXZ 0000000180031100 f i effects11:EffectNonRuntime.obj
 0001:00030120       ?SetFloat@?$TFloatScalarVariable@U?$TGlobalVariable@UID3DX11EffectScalarVariable@@@D3DX11Effects@@$0A@@D3DX11Effects@@UEAAJM@Z 0000000180031120 f i effects11:EffectNonRuntime.obj
 0001:00030150       ?GetFloat@?$TFloatScalarVariable@U?$TGlobalVariable@UID3DX11EffectScalarVariable@@@D3DX11Effects@@$0A@@D3DX11Effects@@UEAAJPEAM@Z 0000000180031150 f i effects11:EffectNonRuntime.obj
 0001:00030160       ?SetFloatArray@?$TFloatScalarVariable@U?$TGlobalVariable@UID3DX11EffectScalarVariable@@@D3DX11Effects@@$0A@@D3DX11Effects@@UEAAJPEBMII@Z 0000000180031160 f i effects11:EffectNonRuntime.obj
 0001:000301e0       ?GetFloatArray@?$TFloatScalarVariable@U?$TGlobalVariable@UID3DX11EffectScalarVariable@@@D3DX11Effects@@$0A@@D3DX11Effects@@UEAAJPEAMII@Z 00000001800311e0 f i effects11:EffectNonRuntime.obj
 0001:00030240       ?SetInt@?$TFloatScalarVariable@U?$TGlobalVariable@UID3DX11EffectScalarVariable@@@D3DX11Effects@@$0A@@D3DX11Effects@@UEAAJH@Z 0000000180031240 f i effects11:EffectNonRuntime.obj
 0001:00030270       ?GetInt@?$TFloatScalarVariable@U?$TGlobalVariable@UID3DX11EffectScalarVariable@@@D3DX11Effects@@$0A@@D3DX11Effects@@UEAAJPEAH@Z 0000000180031270 f i effects11:EffectNonRuntime.obj
 0001:00030280       ?SetIntArray@?$TFloatScalarVariable@U?$TGlobalVariable@UID3DX11EffectScalarVariable@@@D3DX11Effects@@$0A@@D3DX11Effects@@UEAAJPEBHII@Z 0000000180031280 f i effects11:EffectNonRuntime.obj
 0001:000302f0       ?SetBool@?$TFloatScalarVariable@U?$TGlobalVariable@UID3DX11EffectScalarVariable@@@D3DX11Effects@@$0A@@D3DX11Effects@@UEAAJH@Z 00000001800312f0 f i effects11:EffectNonRuntime.obj
 0001:00030330       ?GetBool@?$TFloatScalarVariable@U?$TGlobalVariable@UID3DX11EffectScalarVariable@@@D3DX11Effects@@$0A@@D3DX11Effects@@UEAAJPEAH@Z 0000000180031330 f i effects11:EffectNonRuntime.obj
 0001:00030360       ?SetBoolArray@?$TFloatScalarVariable@U?$TGlobalVariable@UID3DX11EffectScalarVariable@@@D3DX11Effects@@$0A@@D3DX11Effects@@UEAAJPEBHII@Z 0000000180031360 f i effects11:EffectNonRuntime.obj
 0001:000303f0       ?GetIntArray@?$TFloatScalarVariable@U?$TGlobalVariable@UID3DX11EffectScalarVariable@@@D3DX11Effects@@$0A@@D3DX11Effects@@UEAAJPEAHII@Z 00000001800313f0 f i effects11:EffectNonRuntime.obj
 0001:00030450       ?GetBoolArray@?$TFloatScalarVariable@U?$TGlobalVariable@UID3DX11EffectScalarVariable@@@D3DX11Effects@@$0A@@D3DX11Effects@@UEAAJPEAHII@Z 0000000180031450 f i effects11:EffectNonRuntime.obj
 0001:000304c0       ??0?$TIntScalarVariable@U?$TGlobalVariable@UID3DX11EffectScalarVariable@@@D3DX11Effects@@$0A@@D3DX11Effects@@QEAA@XZ 00000001800314c0 f i effects11:EffectNonRuntime.obj
 0001:00030510       ?SetFloat@?$TIntScalarVariable@U?$TGlobalVariable@UID3DX11EffectScalarVariable@@@D3DX11Effects@@$0A@@D3DX11Effects@@UEAAJM@Z 0000000180031510 f i effects11:EffectNonRuntime.obj
 0001:00030540       ?GetFloat@?$TIntScalarVariable@U?$TGlobalVariable@UID3DX11EffectScalarVariable@@@D3DX11Effects@@$0A@@D3DX11Effects@@UEAAJPEAM@Z 0000000180031540 f i effects11:EffectNonRuntime.obj
 0001:00030560       ?SetFloatArray@?$TIntScalarVariable@U?$TGlobalVariable@UID3DX11EffectScalarVariable@@@D3DX11Effects@@$0A@@D3DX11Effects@@UEAAJPEBMII@Z 0000000180031560 f i effects11:EffectNonRuntime.obj
 0001:000305e0       ?GetFloatArray@?$TIntScalarVariable@U?$TGlobalVariable@UID3DX11EffectScalarVariable@@@D3DX11Effects@@$0A@@D3DX11Effects@@UEAAJPEAMII@Z 00000001800315e0 f i effects11:EffectNonRuntime.obj
 0001:00030640       ?SetInt@?$TIntScalarVariable@U?$TGlobalVariable@UID3DX11EffectScalarVariable@@@D3DX11Effects@@$0A@@D3DX11Effects@@UEAAJH@Z 0000000180031640 f i effects11:EffectNonRuntime.obj
 0001:00030660       ?GetInt@?$TIntScalarVariable@U?$TGlobalVariable@UID3DX11EffectScalarVariable@@@D3DX11Effects@@$0A@@D3DX11Effects@@UEAAJPEAH@Z 0000000180031660 f i effects11:EffectNonRuntime.obj
 0001:00030670       ?SetIntArray@?$TIntScalarVariable@U?$TGlobalVariable@UID3DX11EffectScalarVariable@@@D3DX11Effects@@$0A@@D3DX11Effects@@UEAAJPEBHII@Z 0000000180031670 f i effects11:EffectNonRuntime.obj
 0001:000306f0       ?GetIntArray@?$TIntScalarVariable@U?$TGlobalVariable@UID3DX11EffectScalarVariable@@@D3DX11Effects@@$0A@@D3DX11Effects@@UEAAJPEAHII@Z 00000001800316f0 f i effects11:EffectNonRuntime.obj
 0001:00030750       ?SetBool@?$TIntScalarVariable@U?$TGlobalVariable@UID3DX11EffectScalarVariable@@@D3DX11Effects@@$0A@@D3DX11Effects@@UEAAJH@Z 0000000180031750 f i effects11:EffectNonRuntime.obj
 0001:00030780       ?GetBool@?$TIntScalarVariable@U?$TGlobalVariable@UID3DX11EffectScalarVariable@@@D3DX11Effects@@$0A@@D3DX11Effects@@UEAAJPEAH@Z 0000000180031780 f i effects11:EffectNonRuntime.obj
 0001:00030790       ?SetBoolArray@?$TIntScalarVariable@U?$TGlobalVariable@UID3DX11EffectScalarVariable@@@D3DX11Effects@@$0A@@D3DX11Effects@@UEAAJPEBHII@Z 0000000180031790 f i effects11:EffectNonRuntime.obj
 0001:00030810       ?GetBoolArray@?$TIntScalarVariable@U?$TGlobalVariable@UID3DX11EffectScalarVariable@@@D3DX11Effects@@$0A@@D3DX11Effects@@UEAAJPEAHII@Z 0000000180031810 f i effects11:EffectNonRuntime.obj
 0001:00030870       ??0?$TBoolScalarVariable@U?$TGlobalVariable@UID3DX11EffectScalarVariable@@@D3DX11Effects@@$0A@@D3DX11Effects@@QEAA@XZ 0000000180031870 f i effects11:EffectNonRuntime.obj
 0001:000308c0       ?SetFloat@?$TBoolScalarVariable@U?$TGlobalVariable@UID3DX11EffectScalarVariable@@@D3DX11Effects@@$0A@@D3DX11Effects@@UEAAJM@Z 00000001800318c0 f i effects11:EffectNonRuntime.obj
 0001:00030900       ?GetFloat@?$TBoolScalarVariable@U?$TGlobalVariable@UID3DX11EffectScalarVariable@@@D3DX11Effects@@$0A@@D3DX11Effects@@UEAAJPEAM@Z 0000000180031900 f i effects11:EffectNonRuntime.obj
 0001:00030930       ?SetFloatArray@?$TBoolScalarVariable@U?$TGlobalVariable@UID3DX11EffectScalarVariable@@@D3DX11Effects@@$0A@@D3DX11Effects@@UEAAJPEBMII@Z 0000000180031930 f i effects11:EffectNonRuntime.obj
 0001:000309c0       ?GetFloatArray@?$TBoolScalarVariable@U?$TGlobalVariable@UID3DX11EffectScalarVariable@@@D3DX11Effects@@$0A@@D3DX11Effects@@UEAAJPEAMII@Z 00000001800319c0 f i effects11:EffectNonRuntime.obj
 0001:00030a30       ?SetInt@?$TBoolScalarVariable@U?$TGlobalVariable@UID3DX11EffectScalarVariable@@@D3DX11Effects@@$0A@@D3DX11Effects@@UEAAJH@Z 0000000180031a30 f i effects11:EffectNonRuntime.obj
 0001:00030a60       ?GetInt@?$TBoolScalarVariable@U?$TGlobalVariable@UID3DX11EffectScalarVariable@@@D3DX11Effects@@$0A@@D3DX11Effects@@UEAAJPEAH@Z 0000000180031a60 f i effects11:EffectNonRuntime.obj
 0001:00030a70       ?SetIntArray@?$TBoolScalarVariable@U?$TGlobalVariable@UID3DX11EffectScalarVariable@@@D3DX11Effects@@$0A@@D3DX11Effects@@UEAAJPEBHII@Z 0000000180031a70 f i effects11:EffectNonRuntime.obj
 0001:00030af0       ?GetIntArray@?$TBoolScalarVariable@U?$TGlobalVariable@UID3DX11EffectScalarVariable@@@D3DX11Effects@@$0A@@D3DX11Effects@@UEAAJPEAHII@Z 0000000180031af0 f i effects11:EffectNonRuntime.obj
 0001:00030b50       ?SetBool@?$TBoolScalarVariable@U?$TGlobalVariable@UID3DX11EffectScalarVariable@@@D3DX11Effects@@$0A@@D3DX11Effects@@UEAAJH@Z 0000000180031b50 f i effects11:EffectNonRuntime.obj
 0001:00030b80       ?GetBool@?$TBoolScalarVariable@U?$TGlobalVariable@UID3DX11EffectScalarVariable@@@D3DX11Effects@@$0A@@D3DX11Effects@@UEAAJPEAH@Z 0000000180031b80 f i effects11:EffectNonRuntime.obj
 0001:00030b90       ?SetBoolArray@?$TBoolScalarVariable@U?$TGlobalVariable@UID3DX11EffectScalarVariable@@@D3DX11Effects@@$0A@@D3DX11Effects@@UEAAJPEBHII@Z 0000000180031b90 f i effects11:EffectNonRuntime.obj
 0001:00030c10       ?GetBoolArray@?$TBoolScalarVariable@U?$TGlobalVariable@UID3DX11EffectScalarVariable@@@D3DX11Effects@@$0A@@D3DX11Effects@@UEAAJPEAHII@Z 0000000180031c10 f i effects11:EffectNonRuntime.obj
 0001:00030c70       ??0?$TNumericVariable@U?$TAnnotation@UID3DX11EffectMatrixVariable@@@D3DX11Effects@@$00@D3DX11Effects@@QEAA@XZ 0000000180031c70 f i effects11:EffectNonRuntime.obj
 0001:00030cb0       ?GetRawValue@?$TNumericVariable@U?$TAnnotation@UID3DX11EffectMatrixVariable@@@D3DX11Effects@@$00@D3DX11Effects@@UEAAJPEAXII@Z 0000000180031cb0 f i effects11:EffectNonRuntime.obj
 0001:00030ce0       ?DirtyVariable@?$TAnnotation@UID3DX11EffectMatrixVariable@@@D3DX11Effects@@QEAAXXZ 0000000180031ce0 f i effects11:EffectNonRuntime.obj
 0001:00030cf0       ?SetRawValue@?$TNumericVariable@U?$TAnnotation@UID3DX11EffectMatrixVariable@@@D3DX11Effects@@$00@D3DX11Effects@@UEAAJPEBXII@Z 0000000180031cf0 f i effects11:EffectNonRuntime.obj
 0001:00030d00       ??0?$TNumericVariable@U?$TAnnotation@UID3DX11EffectVectorVariable@@@D3DX11Effects@@$00@D3DX11Effects@@QEAA@XZ 0000000180031d00 f i effects11:EffectNonRuntime.obj
 0001:00030d40       ?GetRawValue@?$TNumericVariable@U?$TAnnotation@UID3DX11EffectVectorVariable@@@D3DX11Effects@@$00@D3DX11Effects@@UEAAJPEAXII@Z 0000000180031d40 f i effects11:EffectNonRuntime.obj
 0001:00030d70       ?DirtyVariable@?$TAnnotation@UID3DX11EffectVectorVariable@@@D3DX11Effects@@QEAAXXZ 0000000180031d70 f i effects11:EffectNonRuntime.obj
 0001:00030d80       ?SetRawValue@?$TNumericVariable@U?$TAnnotation@UID3DX11EffectVectorVariable@@@D3DX11Effects@@$00@D3DX11Effects@@UEAAJPEBXII@Z 0000000180031d80 f i effects11:EffectNonRuntime.obj
 0001:00030d90       ??0?$TNumericVariable@U?$TAnnotation@UID3DX11EffectScalarVariable@@@D3DX11Effects@@$00@D3DX11Effects@@QEAA@XZ 0000000180031d90 f i effects11:EffectNonRuntime.obj
 0001:00030dd0       ?GetRawValue@?$TNumericVariable@U?$TAnnotation@UID3DX11EffectScalarVariable@@@D3DX11Effects@@$00@D3DX11Effects@@UEAAJPEAXII@Z 0000000180031dd0 f i effects11:EffectNonRuntime.obj
 0001:00030e00       ?DirtyVariable@?$TAnnotation@UID3DX11EffectScalarVariable@@@D3DX11Effects@@QEAAXXZ 0000000180031e00 f i effects11:EffectNonRuntime.obj
 0001:00030e10       ?SetRawValue@?$TNumericVariable@U?$TAnnotation@UID3DX11EffectScalarVariable@@@D3DX11Effects@@$00@D3DX11Effects@@UEAAJPEBXII@Z 0000000180031e10 f i effects11:EffectNonRuntime.obj
 0001:00030e20       ??_ECEffect@D3DX11Effects@@UEAAPEAXI@Z 0000000180031e20 f i effects11:EffectNonRuntime.obj
 0001:00030e20       ??_GCEffect@D3DX11Effects@@UEAAPEAXI@Z 0000000180031e20 f i effects11:EffectNonRuntime.obj
 0001:00030e50       ??0SMatrixAnnotationMember@D3DX11Effects@@QEAA@XZ 0000000180031e50 f i effects11:EffectNonRuntime.obj
 0001:00030e90       ??0SMatrixGlobalVariableMember@D3DX11Effects@@QEAA@XZ 0000000180031e90 f i effects11:EffectNonRuntime.obj
 0001:00030ed0       ??0SFloatVectorAnnotationMember@D3DX11Effects@@QEAA@XZ 0000000180031ed0 f i effects11:EffectNonRuntime.obj
 0001:00030f10       ??0SFloatVectorGlobalVariableMember@D3DX11Effects@@QEAA@XZ 0000000180031f10 f i effects11:EffectNonRuntime.obj
 0001:00030f50       ??0SBoolVectorAnnotationMember@D3DX11Effects@@QEAA@XZ 0000000180031f50 f i effects11:EffectNonRuntime.obj
 0001:00030f90       ??0SBoolVectorGlobalVariableMember@D3DX11Effects@@QEAA@XZ 0000000180031f90 f i effects11:EffectNonRuntime.obj
 0001:00030fd0       ??0SIntVectorAnnotationMember@D3DX11Effects@@QEAA@XZ 0000000180031fd0 f i effects11:EffectNonRuntime.obj
 0001:00031010       ??0SIntVectorGlobalVariableMember@D3DX11Effects@@QEAA@XZ 0000000180032010 f i effects11:EffectNonRuntime.obj
 0001:00031050       ??0SFloatScalarAnnotationMember@D3DX11Effects@@QEAA@XZ 0000000180032050 f i effects11:EffectNonRuntime.obj
 0001:00031090       ??0SFloatScalarGlobalVariableMember@D3DX11Effects@@QEAA@XZ 0000000180032090 f i effects11:EffectNonRuntime.obj
 0001:000310d0       ??0SIntScalarAnnotationMember@D3DX11Effects@@QEAA@XZ 00000001800320d0 f i effects11:EffectNonRuntime.obj
 0001:00031110       ??0SIntScalarGlobalVariableMember@D3DX11Effects@@QEAA@XZ 0000000180032110 f i effects11:EffectNonRuntime.obj
 0001:00031150       ??0SBoolScalarAnnotationMember@D3DX11Effects@@QEAA@XZ 0000000180032150 f i effects11:EffectNonRuntime.obj
 0001:00031190       ??0SBoolScalarGlobalVariableMember@D3DX11Effects@@QEAA@XZ 0000000180032190 f i effects11:EffectNonRuntime.obj
 0001:000311d0       ??0?$TMatrix4x4Variable@U?$TVariable@U?$TMember@UID3DX11EffectMatrixVariable@@@D3DX11Effects@@@D3DX11Effects@@$00@D3DX11Effects@@QEAA@XZ 00000001800321d0 f i effects11:EffectNonRuntime.obj
 0001:000312b0       ??$DoMatrix4x4ArrayInternal@$00$0A@$00@D3DX11Effects@@YAJPEAEPEAXII@Z 00000001800322b0 f i effects11:EffectNonRuntime.obj
 0001:00031350       ??$DoMatrix4x4ArrayInternal@$00$0A@$0A@@D3DX11Effects@@YAJPEAEPEAXII@Z 0000000180032350 f i effects11:EffectNonRuntime.obj
 0001:000313f0       ??$DoMatrix4x4ArrayInternal@$00$00$00@D3DX11Effects@@YAJPEAEPEAXII@Z 00000001800323f0 f i effects11:EffectNonRuntime.obj
 0001:00031470       ??$DoMatrix4x4ArrayInternal@$00$00$0A@@D3DX11Effects@@YAJPEAEPEAXII@Z 0000000180032470 f i effects11:EffectNonRuntime.obj
 0001:000314f0       ?SetMatrix@?$TMatrix4x4Variable@U?$TVariable@U?$TMember@UID3DX11EffectMatrixVariable@@@D3DX11Effects@@@D3DX11Effects@@$00@D3DX11Effects@@UEAAJPEBM@Z 00000001800324f0 f i effects11:EffectNonRuntime.obj
 0001:00031580       ?GetMatrix@?$TMatrix4x4Variable@U?$TVariable@U?$TMember@UID3DX11EffectMatrixVariable@@@D3DX11Effects@@@D3DX11Effects@@$00@D3DX11Effects@@UEAAJPEAM@Z 0000000180032580 f i effects11:EffectNonRuntime.obj
 0001:00031600       ?SetMatrixArray@?$TMatrix4x4Variable@U?$TVariable@U?$TMember@UID3DX11EffectMatrixVariable@@@D3DX11Effects@@@D3DX11Effects@@$00@D3DX11Effects@@UEAAJPEBMII@Z 0000000180032600 f i effects11:EffectNonRuntime.obj
 0001:000316c0       ?GetMatrixArray@?$TMatrix4x4Variable@U?$TVariable@U?$TMember@UID3DX11EffectMatrixVariable@@@D3DX11Effects@@@D3DX11Effects@@$00@D3DX11Effects@@UEAAJPEAMII@Z 00000001800326c0 f i effects11:EffectNonRuntime.obj
 0001:00031760       ?SetMatrixTranspose@?$TMatrix4x4Variable@U?$TVariable@U?$TMember@UID3DX11EffectMatrixVariable@@@D3DX11Effects@@@D3DX11Effects@@$00@D3DX11Effects@@UEAAJPEBM@Z 0000000180032760 f i effects11:EffectNonRuntime.obj
 0001:000317c0       ?GetMatrixTranspose@?$TMatrix4x4Variable@U?$TVariable@U?$TMember@UID3DX11EffectMatrixVariable@@@D3DX11Effects@@@D3DX11Effects@@$00@D3DX11Effects@@UEAAJPEAM@Z 00000001800327c0 f i effects11:EffectNonRuntime.obj
 0001:00031810       ?SetMatrixTransposeArray@?$TMatrix4x4Variable@U?$TVariable@U?$TMember@UID3DX11EffectMatrixVariable@@@D3DX11Effects@@@D3DX11Effects@@$00@D3DX11Effects@@UEAAJPEBMII@Z 0000000180032810 f i effects11:EffectNonRuntime.obj
 0001:000318b0       ?GetMatrixTransposeArray@?$TMatrix4x4Variable@U?$TVariable@U?$TMember@UID3DX11EffectMatrixVariable@@@D3DX11Effects@@@D3DX11Effects@@$00@D3DX11Effects@@UEAAJPEAMII@Z 00000001800328b0 f i effects11:EffectNonRuntime.obj
 0001:00031930       ??0?$TMatrix4x4Variable@U?$TVariable@U?$TMember@UID3DX11EffectMatrixVariable@@@D3DX11Effects@@@D3DX11Effects@@$0A@@D3DX11Effects@@QEAA@XZ 0000000180032930 f i effects11:EffectNonRuntime.obj
 0001:00031970       ??$DoMatrix4x4ArrayInternal@$0A@$0A@$00@D3DX11Effects@@YAJPEAEPEAXII@Z 0000000180032970 f i effects11:EffectNonRuntime.obj
 0001:000319f0       ??$DoMatrix4x4ArrayInternal@$0A@$0A@$0A@@D3DX11Effects@@YAJPEAEPEAXII@Z 00000001800329f0 f i effects11:EffectNonRuntime.obj
 0001:00031a70       ??$DoMatrix4x4ArrayInternal@$0A@$00$00@D3DX11Effects@@YAJPEAEPEAXII@Z 0000000180032a70 f i effects11:EffectNonRuntime.obj
 0001:00031b10       ??$DoMatrix4x4ArrayInternal@$0A@$00$0A@@D3DX11Effects@@YAJPEAEPEAXII@Z 0000000180032b10 f i effects11:EffectNonRuntime.obj
 0001:00031bb0       ?SetMatrix@?$TMatrix4x4Variable@U?$TVariable@U?$TMember@UID3DX11EffectMatrixVariable@@@D3DX11Effects@@@D3DX11Effects@@$0A@@D3DX11Effects@@UEAAJPEBM@Z 0000000180032bb0 f i effects11:EffectNonRuntime.obj
 0001:00031c10       ?GetMatrix@?$TMatrix4x4Variable@U?$TVariable@U?$TMember@UID3DX11EffectMatrixVariable@@@D3DX11Effects@@@D3DX11Effects@@$0A@@D3DX11Effects@@UEAAJPEAM@Z 0000000180032c10 f i effects11:EffectNonRuntime.obj
 0001:00031c60       ?SetMatrixArray@?$TMatrix4x4Variable@U?$TVariable@U?$TMember@UID3DX11EffectMatrixVariable@@@D3DX11Effects@@@D3DX11Effects@@$0A@@D3DX11Effects@@UEAAJPEBMII@Z 0000000180032c60 f i effects11:EffectNonRuntime.obj
 0001:00031d00       ?GetMatrixArray@?$TMatrix4x4Variable@U?$TVariable@U?$TMember@UID3DX11EffectMatrixVariable@@@D3DX11Effects@@@D3DX11Effects@@$0A@@D3DX11Effects@@UEAAJPEAMII@Z 0000000180032d00 f i effects11:EffectNonRuntime.obj
 0001:00031d80       ?SetMatrixTranspose@?$TMatrix4x4Variable@U?$TVariable@U?$TMember@UID3DX11EffectMatrixVariable@@@D3DX11Effects@@@D3DX11Effects@@$0A@@D3DX11Effects@@UEAAJPEBM@Z 0000000180032d80 f i effects11:EffectNonRuntime.obj
 0001:00031e10       ?GetMatrixTranspose@?$TMatrix4x4Variable@U?$TVariable@U?$TMember@UID3DX11EffectMatrixVariable@@@D3DX11Effects@@@D3DX11Effects@@$0A@@D3DX11Effects@@UEAAJPEAM@Z 0000000180032e10 f i effects11:EffectNonRuntime.obj
 0001:00031e90       ?SetMatrixTransposeArray@?$TMatrix4x4Variable@U?$TVariable@U?$TMember@UID3DX11EffectMatrixVariable@@@D3DX11Effects@@@D3DX11Effects@@$0A@@D3DX11Effects@@UEAAJPEBMII@Z 0000000180032e90 f i effects11:EffectNonRuntime.obj
 0001:00031f50       ?GetMatrixTransposeArray@?$TMatrix4x4Variable@U?$TVariable@U?$TMember@UID3DX11EffectMatrixVariable@@@D3DX11Effects@@@D3DX11Effects@@$0A@@D3DX11Effects@@UEAAJPEAMII@Z 0000000180032f50 f i effects11:EffectNonRuntime.obj
 0001:00031ff0       ??0?$TVector4Variable@U?$TVariable@U?$TMember@UID3DX11EffectVectorVariable@@@D3DX11Effects@@@D3DX11Effects@@@D3DX11Effects@@QEAA@XZ 0000000180032ff0 f i effects11:EffectNonRuntime.obj
 0001:00032030       ?SetFloatVector@?$TVector4Variable@U?$TVariable@U?$TMember@UID3DX11EffectVectorVariable@@@D3DX11Effects@@@D3DX11Effects@@@D3DX11Effects@@UEAAJPEBM@Z 0000000180033030 f i effects11:EffectNonRuntime.obj
 0001:00032070       ?GetFloatVector@?$TVector4Variable@U?$TVariable@U?$TMember@UID3DX11EffectVectorVariable@@@D3DX11Effects@@@D3DX11Effects@@@D3DX11Effects@@UEAAJPEAM@Z 0000000180033070 f i effects11:EffectNonRuntime.obj
 0001:00032110       ?SetFloatVectorArray@?$TVector4Variable@U?$TVariable@U?$TMember@UID3DX11EffectVectorVariable@@@D3DX11Effects@@@D3DX11Effects@@@D3DX11Effects@@UEAAJPEBMII@Z 0000000180033110 f i effects11:EffectNonRuntime.obj
 0001:000321e0       ?GetFloatVectorArray@?$TVector4Variable@U?$TVariable@U?$TMember@UID3DX11EffectVectorVariable@@@D3DX11Effects@@@D3DX11Effects@@@D3DX11Effects@@UEAAJPEAMII@Z 00000001800331e0 f i effects11:EffectNonRuntime.obj
 0001:00032290       ??0SStringAnnotation@D3DX11Effects@@QEAA@XZ 0000000180033290 f i effects11:EffectNonRuntime.obj
 0001:000322d0       ??0SMatrixGlobalVariable@D3DX11Effects@@QEAA@XZ 00000001800332d0 f i effects11:EffectNonRuntime.obj
 0001:00032320       ??0SFloatVectorGlobalVariable@D3DX11Effects@@QEAA@XZ 0000000180033320 f i effects11:EffectNonRuntime.obj
 0001:00032370       ??0SBoolVectorGlobalVariable@D3DX11Effects@@QEAA@XZ 0000000180033370 f i effects11:EffectNonRuntime.obj
 0001:000323c0       ??0SIntVectorGlobalVariable@D3DX11Effects@@QEAA@XZ 00000001800333c0 f i effects11:EffectNonRuntime.obj
 0001:00032410       ??0SFloatScalarGlobalVariable@D3DX11Effects@@QEAA@XZ 0000000180033410 f i effects11:EffectNonRuntime.obj
 0001:00032460       ??0SIntScalarGlobalVariable@D3DX11Effects@@QEAA@XZ 0000000180033460 f i effects11:EffectNonRuntime.obj
 0001:000324b0       ??0SBoolScalarGlobalVariable@D3DX11Effects@@QEAA@XZ 00000001800334b0 f i effects11:EffectNonRuntime.obj
 0001:00032500       ??0?$TMatrixVariable@U?$TAnnotation@UID3DX11EffectMatrixVariable@@@D3DX11Effects@@$00@D3DX11Effects@@QEAA@XZ 0000000180033500 f i effects11:EffectNonRuntime.obj
 0001:00032540       ?SetMatrix@?$TMatrixVariable@U?$TAnnotation@UID3DX11EffectMatrixVariable@@@D3DX11Effects@@$00@D3DX11Effects@@UEAAJPEBM@Z 0000000180033540 f i effects11:EffectNonRuntime.obj
 0001:00032550       ?GetMatrix@?$TMatrixVariable@U?$TAnnotation@UID3DX11EffectMatrixVariable@@@D3DX11Effects@@$00@D3DX11Effects@@UEAAJPEAM@Z 0000000180033550 f i effects11:EffectNonRuntime.obj
 0001:000325a0       ?SetMatrixArray@?$TMatrixVariable@U?$TAnnotation@UID3DX11EffectMatrixVariable@@@D3DX11Effects@@$00@D3DX11Effects@@UEAAJPEBMII@Z 00000001800335a0 f i effects11:EffectNonRuntime.obj
 0001:000325b0       ?GetMatrixArray@?$TMatrixVariable@U?$TAnnotation@UID3DX11EffectMatrixVariable@@@D3DX11Effects@@$00@D3DX11Effects@@UEAAJPEAMII@Z 00000001800335b0 f i effects11:EffectNonRuntime.obj
 0001:00032600       ?SetMatrixPointerArray@?$TMatrixVariable@U?$TAnnotation@UID3DX11EffectMatrixVariable@@@D3DX11Effects@@$00@D3DX11Effects@@UEAAJPEAPEBMII@Z 0000000180033600 f i effects11:EffectNonRuntime.obj
 0001:00032610       ?GetMatrixPointerArray@?$TMatrixVariable@U?$TAnnotation@UID3DX11EffectMatrixVariable@@@D3DX11Effects@@$00@D3DX11Effects@@UEAAJPEAPEAMII@Z 0000000180033610 f i effects11:EffectNonRuntime.obj
 0001:00032660       ?SetMatrixTranspose@?$TMatrixVariable@U?$TAnnotation@UID3DX11EffectMatrixVariable@@@D3DX11Effects@@$00@D3DX11Effects@@UEAAJPEBM@Z 0000000180033660 f i effects11:EffectNonRuntime.obj
 0001:00032670       ?GetMatrixTranspose@?$TMatrixVariable@U?$TAnnotation@UID3DX11EffectMatrixVariable@@@D3DX11Effects@@$00@D3DX11Effects@@UEAAJPEAM@Z 0000000180033670 f i effects11:EffectNonRuntime.obj
 0001:000326c0       ?SetMatrixTransposeArray@?$TMatrixVariable@U?$TAnnotation@UID3DX11EffectMatrixVariable@@@D3DX11Effects@@$00@D3DX11Effects@@UEAAJPEBMII@Z 00000001800336c0 f i effects11:EffectNonRuntime.obj
 0001:000326d0       ?GetMatrixTransposeArray@?$TMatrixVariable@U?$TAnnotation@UID3DX11EffectMatrixVariable@@@D3DX11Effects@@$00@D3DX11Effects@@UEAAJPEAMII@Z 00000001800336d0 f i effects11:EffectNonRuntime.obj
 0001:00032720       ?SetMatrixTransposePointerArray@?$TMatrixVariable@U?$TAnnotation@UID3DX11EffectMatrixVariable@@@D3DX11Effects@@$00@D3DX11Effects@@UEAAJPEAPEBMII@Z 0000000180033720 f i effects11:EffectNonRuntime.obj
 0001:00032730       ?GetMatrixTransposePointerArray@?$TMatrixVariable@U?$TAnnotation@UID3DX11EffectMatrixVariable@@@D3DX11Effects@@$00@D3DX11Effects@@UEAAJPEAPEAMII@Z 0000000180033730 f i effects11:EffectNonRuntime.obj
 0001:00032780       ??0?$TMatrix4x4Variable@U?$TGlobalVariable@UID3DX11EffectMatrixVariable@@@D3DX11Effects@@$00@D3DX11Effects@@QEAA@XZ 0000000180033780 f i effects11:EffectNonRuntime.obj
 0001:000327d0       ?SetMatrix@?$TMatrix4x4Variable@U?$TGlobalVariable@UID3DX11EffectMatrixVariable@@@D3DX11Effects@@$00@D3DX11Effects@@UEAAJPEBM@Z 00000001800337d0 f i effects11:EffectNonRuntime.obj
 0001:00032860       ?GetMatrix@?$TMatrix4x4Variable@U?$TGlobalVariable@UID3DX11EffectMatrixVariable@@@D3DX11Effects@@$00@D3DX11Effects@@UEAAJPEAM@Z 0000000180033860 f i effects11:EffectNonRuntime.obj
 0001:000328e0       ?SetMatrixArray@?$TMatrix4x4Variable@U?$TGlobalVariable@UID3DX11EffectMatrixVariable@@@D3DX11Effects@@$00@D3DX11Effects@@UEAAJPEBMII@Z 00000001800338e0 f i effects11:EffectNonRuntime.obj
 0001:000329a0       ?GetMatrixArray@?$TMatrix4x4Variable@U?$TGlobalVariable@UID3DX11EffectMatrixVariable@@@D3DX11Effects@@$00@D3DX11Effects@@UEAAJPEAMII@Z 00000001800339a0 f i effects11:EffectNonRuntime.obj
 0001:00032a40       ?SetMatrixTranspose@?$TMatrix4x4Variable@U?$TGlobalVariable@UID3DX11EffectMatrixVariable@@@D3DX11Effects@@$00@D3DX11Effects@@UEAAJPEBM@Z 0000000180033a40 f i effects11:EffectNonRuntime.obj
 0001:00032aa0       ?GetMatrixTranspose@?$TMatrix4x4Variable@U?$TGlobalVariable@UID3DX11EffectMatrixVariable@@@D3DX11Effects@@$00@D3DX11Effects@@UEAAJPEAM@Z 0000000180033aa0 f i effects11:EffectNonRuntime.obj
 0001:00032af0       ?SetMatrixTransposeArray@?$TMatrix4x4Variable@U?$TGlobalVariable@UID3DX11EffectMatrixVariable@@@D3DX11Effects@@$00@D3DX11Effects@@UEAAJPEBMII@Z 0000000180033af0 f i effects11:EffectNonRuntime.obj
 0001:00032b90       ?GetMatrixTransposeArray@?$TMatrix4x4Variable@U?$TGlobalVariable@UID3DX11EffectMatrixVariable@@@D3DX11Effects@@$00@D3DX11Effects@@UEAAJPEAMII@Z 0000000180033b90 f i effects11:EffectNonRuntime.obj
 0001:00032c10       ??0?$TMatrix4x4Variable@U?$TGlobalVariable@UID3DX11EffectMatrixVariable@@@D3DX11Effects@@$0A@@D3DX11Effects@@QEAA@XZ 0000000180033c10 f i effects11:EffectNonRuntime.obj
 0001:00032c60       ?SetMatrix@?$TMatrix4x4Variable@U?$TGlobalVariable@UID3DX11EffectMatrixVariable@@@D3DX11Effects@@$0A@@D3DX11Effects@@UEAAJPEBM@Z 0000000180033c60 f i effects11:EffectNonRuntime.obj
 0001:00032cc0       ?GetMatrix@?$TMatrix4x4Variable@U?$TGlobalVariable@UID3DX11EffectMatrixVariable@@@D3DX11Effects@@$0A@@D3DX11Effects@@UEAAJPEAM@Z 0000000180033cc0 f i effects11:EffectNonRuntime.obj
 0001:00032d10       ?SetMatrixArray@?$TMatrix4x4Variable@U?$TGlobalVariable@UID3DX11EffectMatrixVariable@@@D3DX11Effects@@$0A@@D3DX11Effects@@UEAAJPEBMII@Z 0000000180033d10 f i effects11:EffectNonRuntime.obj
 0001:00032db0       ?GetMatrixArray@?$TMatrix4x4Variable@U?$TGlobalVariable@UID3DX11EffectMatrixVariable@@@D3DX11Effects@@$0A@@D3DX11Effects@@UEAAJPEAMII@Z 0000000180033db0 f i effects11:EffectNonRuntime.obj
 0001:00032e30       ?SetMatrixTranspose@?$TMatrix4x4Variable@U?$TGlobalVariable@UID3DX11EffectMatrixVariable@@@D3DX11Effects@@$0A@@D3DX11Effects@@UEAAJPEBM@Z 0000000180033e30 f i effects11:EffectNonRuntime.obj
 0001:00032ec0       ?GetMatrixTranspose@?$TMatrix4x4Variable@U?$TGlobalVariable@UID3DX11EffectMatrixVariable@@@D3DX11Effects@@$0A@@D3DX11Effects@@UEAAJPEAM@Z 0000000180033ec0 f i effects11:EffectNonRuntime.obj
 0001:00032f40       ?SetMatrixTransposeArray@?$TMatrix4x4Variable@U?$TGlobalVariable@UID3DX11EffectMatrixVariable@@@D3DX11Effects@@$0A@@D3DX11Effects@@UEAAJPEBMII@Z 0000000180033f40 f i effects11:EffectNonRuntime.obj
 0001:00033000       ?GetMatrixTransposeArray@?$TMatrix4x4Variable@U?$TGlobalVariable@UID3DX11EffectMatrixVariable@@@D3DX11Effects@@$0A@@D3DX11Effects@@UEAAJPEAMII@Z 0000000180034000 f i effects11:EffectNonRuntime.obj
 0001:000330a0       ??0?$TVectorVariable@U?$TAnnotation@UID3DX11EffectVectorVariable@@@D3DX11Effects@@$00$01@D3DX11Effects@@QEAA@XZ 00000001800340a0 f i effects11:EffectNonRuntime.obj
 0001:000330e0       ?SetBoolVector@?$TVectorVariable@U?$TAnnotation@UID3DX11EffectVectorVariable@@@D3DX11Effects@@$00$01@D3DX11Effects@@UEAAJPEBH@Z 00000001800340e0 f i effects11:EffectNonRuntime.obj
 0001:000330f0       ?SetIntVector@?$TVectorVariable@U?$TAnnotation@UID3DX11EffectVectorVariable@@@D3DX11Effects@@$00$01@D3DX11Effects@@UEAAJPEBH@Z 00000001800340f0 f i effects11:EffectNonRuntime.obj
 0001:00033100       ?SetFloatVector@?$TVectorVariable@U?$TAnnotation@UID3DX11EffectVectorVariable@@@D3DX11Effects@@$00$01@D3DX11Effects@@UEAAJPEBM@Z 0000000180034100 f i effects11:EffectNonRuntime.obj
 0001:00033110       ?GetBoolVector@?$TVectorVariable@U?$TAnnotation@UID3DX11EffectVectorVariable@@@D3DX11Effects@@$00$01@D3DX11Effects@@UEAAJPEAH@Z 0000000180034110 f i effects11:EffectNonRuntime.obj
 0001:00033200       ?GetIntVector@?$TVectorVariable@U?$TAnnotation@UID3DX11EffectVectorVariable@@@D3DX11Effects@@$00$01@D3DX11Effects@@UEAAJPEAH@Z 0000000180034200 f i effects11:EffectNonRuntime.obj
 0001:000332d0       ?GetFloatVector@?$TVectorVariable@U?$TAnnotation@UID3DX11EffectVectorVariable@@@D3DX11Effects@@$00$01@D3DX11Effects@@UEAAJPEAM@Z 00000001800342d0 f i effects11:EffectNonRuntime.obj
 0001:00033380       ?SetBoolVectorArray@?$TVectorVariable@U?$TAnnotation@UID3DX11EffectVectorVariable@@@D3DX11Effects@@$00$01@D3DX11Effects@@UEAAJPEBHII@Z 0000000180034380 f i effects11:EffectNonRuntime.obj
 0001:00033390       ?SetIntVectorArray@?$TVectorVariable@U?$TAnnotation@UID3DX11EffectVectorVariable@@@D3DX11Effects@@$00$01@D3DX11Effects@@UEAAJPEBHII@Z 0000000180034390 f i effects11:EffectNonRuntime.obj
 0001:000333a0       ?SetFloatVectorArray@?$TVectorVariable@U?$TAnnotation@UID3DX11EffectVectorVariable@@@D3DX11Effects@@$00$01@D3DX11Effects@@UEAAJPEBMII@Z 00000001800343a0 f i effects11:EffectNonRuntime.obj
 0001:000333b0       ?GetBoolVectorArray@?$TVectorVariable@U?$TAnnotation@UID3DX11EffectVectorVariable@@@D3DX11Effects@@$00$01@D3DX11Effects@@UEAAJPEAHII@Z 00000001800343b0 f i effects11:EffectNonRuntime.obj
 0001:00033500       ?GetIntVectorArray@?$TVectorVariable@U?$TAnnotation@UID3DX11EffectVectorVariable@@@D3DX11Effects@@$00$01@D3DX11Effects@@UEAAJPEAHII@Z 0000000180034500 f i effects11:EffectNonRuntime.obj
 0001:00033630       ?GetFloatVectorArray@?$TVectorVariable@U?$TAnnotation@UID3DX11EffectVectorVariable@@@D3DX11Effects@@$00$01@D3DX11Effects@@UEAAJPEAMII@Z 0000000180034630 f i effects11:EffectNonRuntime.obj
 0001:00033770       ??0?$TVector4Variable@U?$TGlobalVariable@UID3DX11EffectVectorVariable@@@D3DX11Effects@@@D3DX11Effects@@QEAA@XZ 0000000180034770 f i effects11:EffectNonRuntime.obj
 0001:000337c0       ?SetFloatVector@?$TVector4Variable@U?$TGlobalVariable@UID3DX11EffectVectorVariable@@@D3DX11Effects@@@D3DX11Effects@@UEAAJPEBM@Z 00000001800347c0 f i effects11:EffectNonRuntime.obj
 0001:00033800       ?GetFloatVector@?$TVector4Variable@U?$TGlobalVariable@UID3DX11EffectVectorVariable@@@D3DX11Effects@@@D3DX11Effects@@UEAAJPEAM@Z 0000000180034800 f i effects11:EffectNonRuntime.obj
 0001:000338a0       ?SetFloatVectorArray@?$TVector4Variable@U?$TGlobalVariable@UID3DX11EffectVectorVariable@@@D3DX11Effects@@@D3DX11Effects@@UEAAJPEBMII@Z 00000001800348a0 f i effects11:EffectNonRuntime.obj
 0001:00033970       ?GetFloatVectorArray@?$TVector4Variable@U?$TGlobalVariable@UID3DX11EffectVectorVariable@@@D3DX11Effects@@@D3DX11Effects@@UEAAJPEAMII@Z 0000000180034970 f i effects11:EffectNonRuntime.obj
 0001:00033a20       ??0?$TVectorVariable@U?$TAnnotation@UID3DX11EffectVectorVariable@@@D3DX11Effects@@$00$0A@@D3DX11Effects@@QEAA@XZ 0000000180034a20 f i effects11:EffectNonRuntime.obj
 0001:00033a60       ?SetBoolVector@?$TVectorVariable@U?$TAnnotation@UID3DX11EffectVectorVariable@@@D3DX11Effects@@$00$0A@@D3DX11Effects@@UEAAJPEBH@Z 0000000180034a60 f i effects11:EffectNonRuntime.obj
 0001:00033a70       ?SetIntVector@?$TVectorVariable@U?$TAnnotation@UID3DX11EffectVectorVariable@@@D3DX11Effects@@$00$0A@@D3DX11Effects@@UEAAJPEBH@Z 0000000180034a70 f i effects11:EffectNonRuntime.obj
 0001:00033a80       ?SetFloatVector@?$TVectorVariable@U?$TAnnotation@UID3DX11EffectVectorVariable@@@D3DX11Effects@@$00$0A@@D3DX11Effects@@UEAAJPEBM@Z 0000000180034a80 f i effects11:EffectNonRuntime.obj
 0001:00033a90       ?GetBoolVector@?$TVectorVariable@U?$TAnnotation@UID3DX11EffectVectorVariable@@@D3DX11Effects@@$00$0A@@D3DX11Effects@@UEAAJPEAH@Z 0000000180034a90 f i effects11:EffectNonRuntime.obj
 0001:00033b40       ?GetIntVector@?$TVectorVariable@U?$TAnnotation@UID3DX11EffectVectorVariable@@@D3DX11Effects@@$00$0A@@D3DX11Effects@@UEAAJPEAH@Z 0000000180034b40 f i effects11:EffectNonRuntime.obj
 0001:00033b80       ?GetFloatVector@?$TVectorVariable@U?$TAnnotation@UID3DX11EffectVectorVariable@@@D3DX11Effects@@$00$0A@@D3DX11Effects@@UEAAJPEAM@Z 0000000180034b80 f i effects11:EffectNonRuntime.obj
 0001:00033c90       ?SetBoolVectorArray@?$TVectorVariable@U?$TAnnotation@UID3DX11EffectVectorVariable@@@D3DX11Effects@@$00$0A@@D3DX11Effects@@UEAAJPEBHII@Z 0000000180034c90 f i effects11:EffectNonRuntime.obj
 0001:00033ca0       ?SetIntVectorArray@?$TVectorVariable@U?$TAnnotation@UID3DX11EffectVectorVariable@@@D3DX11Effects@@$00$0A@@D3DX11Effects@@UEAAJPEBHII@Z 0000000180034ca0 f i effects11:EffectNonRuntime.obj
 0001:00033cb0       ?SetFloatVectorArray@?$TVectorVariable@U?$TAnnotation@UID3DX11EffectVectorVariable@@@D3DX11Effects@@$00$0A@@D3DX11Effects@@UEAAJPEBMII@Z 0000000180034cb0 f i effects11:EffectNonRuntime.obj
 0001:00033cc0       ?GetBoolVectorArray@?$TVectorVariable@U?$TAnnotation@UID3DX11EffectVectorVariable@@@D3DX11Effects@@$00$0A@@D3DX11Effects@@UEAAJPEAHII@Z 0000000180034cc0 f i effects11:EffectNonRuntime.obj
 0001:00033e00       ?GetIntVectorArray@?$TVectorVariable@U?$TAnnotation@UID3DX11EffectVectorVariable@@@D3DX11Effects@@$00$0A@@D3DX11Effects@@UEAAJPEAHII@Z 0000000180034e00 f i effects11:EffectNonRuntime.obj
 0001:00033eb0       ?GetFloatVectorArray@?$TVectorVariable@U?$TAnnotation@UID3DX11EffectVectorVariable@@@D3DX11Effects@@$00$0A@@D3DX11Effects@@UEAAJPEAMII@Z 0000000180034eb0 f i effects11:EffectNonRuntime.obj
 0001:00034010       ??0?$TVectorVariable@U?$TAnnotation@UID3DX11EffectVectorVariable@@@D3DX11Effects@@$00$00@D3DX11Effects@@QEAA@XZ 0000000180035010 f i effects11:EffectNonRuntime.obj
 0001:00034050       ?SetBoolVector@?$TVectorVariable@U?$TAnnotation@UID3DX11EffectVectorVariable@@@D3DX11Effects@@$00$00@D3DX11Effects@@UEAAJPEBH@Z 0000000180035050 f i effects11:EffectNonRuntime.obj
 0001:00034060       ?SetIntVector@?$TVectorVariable@U?$TAnnotation@UID3DX11EffectVectorVariable@@@D3DX11Effects@@$00$00@D3DX11Effects@@UEAAJPEBH@Z 0000000180035060 f i effects11:EffectNonRuntime.obj
 0001:00034070       ?SetFloatVector@?$TVectorVariable@U?$TAnnotation@UID3DX11EffectVectorVariable@@@D3DX11Effects@@$00$00@D3DX11Effects@@UEAAJPEBM@Z 0000000180035070 f i effects11:EffectNonRuntime.obj
 0001:00034080       ?GetBoolVector@?$TVectorVariable@U?$TAnnotation@UID3DX11EffectVectorVariable@@@D3DX11Effects@@$00$00@D3DX11Effects@@UEAAJPEAH@Z 0000000180035080 f i effects11:EffectNonRuntime.obj
 0001:000340c0       ?GetIntVector@?$TVectorVariable@U?$TAnnotation@UID3DX11EffectVectorVariable@@@D3DX11Effects@@$00$00@D3DX11Effects@@UEAAJPEAH@Z 00000001800350c0 f i effects11:EffectNonRuntime.obj
 0001:00034170       ?GetFloatVector@?$TVectorVariable@U?$TAnnotation@UID3DX11EffectVectorVariable@@@D3DX11Effects@@$00$00@D3DX11Effects@@UEAAJPEAM@Z 0000000180035170 f i effects11:EffectNonRuntime.obj
 0001:00034250       ?SetBoolVectorArray@?$TVectorVariable@U?$TAnnotation@UID3DX11EffectVectorVariable@@@D3DX11Effects@@$00$00@D3DX11Effects@@UEAAJPEBHII@Z 0000000180035250 f i effects11:EffectNonRuntime.obj
 0001:00034260       ?SetIntVectorArray@?$TVectorVariable@U?$TAnnotation@UID3DX11EffectVectorVariable@@@D3DX11Effects@@$00$00@D3DX11Effects@@UEAAJPEBHII@Z 0000000180035260 f i effects11:EffectNonRuntime.obj
 0001:00034270       ?SetFloatVectorArray@?$TVectorVariable@U?$TAnnotation@UID3DX11EffectVectorVariable@@@D3DX11Effects@@$00$00@D3DX11Effects@@UEAAJPEBMII@Z 0000000180035270 f i effects11:EffectNonRuntime.obj
 0001:00034280       ?GetBoolVectorArray@?$TVectorVariable@U?$TAnnotation@UID3DX11EffectVectorVariable@@@D3DX11Effects@@$00$00@D3DX11Effects@@UEAAJPEAHII@Z 0000000180035280 f i effects11:EffectNonRuntime.obj
 0001:00034320       ?GetIntVectorArray@?$TVectorVariable@U?$TAnnotation@UID3DX11EffectVectorVariable@@@D3DX11Effects@@$00$00@D3DX11Effects@@UEAAJPEAHII@Z 0000000180035320 f i effects11:EffectNonRuntime.obj
 0001:00034460       ?GetFloatVectorArray@?$TVectorVariable@U?$TAnnotation@UID3DX11EffectVectorVariable@@@D3DX11Effects@@$00$00@D3DX11Effects@@UEAAJPEAMII@Z 0000000180035460 f i effects11:EffectNonRuntime.obj
 0001:000345a0       ??0?$TFloatScalarVariable@U?$TAnnotation@UID3DX11EffectScalarVariable@@@D3DX11Effects@@$00@D3DX11Effects@@QEAA@XZ 00000001800355a0 f i effects11:EffectNonRuntime.obj
 0001:000345e0       ?SetFloat@?$TFloatScalarVariable@U?$TAnnotation@UID3DX11EffectScalarVariable@@@D3DX11Effects@@$00@D3DX11Effects@@UEAAJM@Z 00000001800355e0 f i effects11:EffectNonRuntime.obj
 0001:000345f0       ?GetFloat@?$TFloatScalarVariable@U?$TAnnotation@UID3DX11EffectScalarVariable@@@D3DX11Effects@@$00@D3DX11Effects@@UEAAJPEAM@Z 00000001800355f0 f i effects11:EffectNonRuntime.obj
 0001:00034600       ?SetFloatArray@?$TFloatScalarVariable@U?$TAnnotation@UID3DX11EffectScalarVariable@@@D3DX11Effects@@$00@D3DX11Effects@@UEAAJPEBMII@Z 0000000180035600 f i effects11:EffectNonRuntime.obj
 0001:00034610       ?GetFloatArray@?$TFloatScalarVariable@U?$TAnnotation@UID3DX11EffectScalarVariable@@@D3DX11Effects@@$00@D3DX11Effects@@UEAAJPEAMII@Z 0000000180035610 f i effects11:EffectNonRuntime.obj
 0001:00034670       ?SetInt@?$TFloatScalarVariable@U?$TAnnotation@UID3DX11EffectScalarVariable@@@D3DX11Effects@@$00@D3DX11Effects@@UEAAJH@Z 0000000180035670 f i effects11:EffectNonRuntime.obj
 0001:00034680       ?GetInt@?$TFloatScalarVariable@U?$TAnnotation@UID3DX11EffectScalarVariable@@@D3DX11Effects@@$00@D3DX11Effects@@UEAAJPEAH@Z 0000000180035680 f i effects11:EffectNonRuntime.obj
 0001:00034690       ?SetIntArray@?$TFloatScalarVariable@U?$TAnnotation@UID3DX11EffectScalarVariable@@@D3DX11Effects@@$00@D3DX11Effects@@UEAAJPEBHII@Z 0000000180035690 f i effects11:EffectNonRuntime.obj
 0001:000346a0       ?SetBool@?$TFloatScalarVariable@U?$TAnnotation@UID3DX11EffectScalarVariable@@@D3DX11Effects@@$00@D3DX11Effects@@UEAAJH@Z 00000001800356a0 f i effects11:EffectNonRuntime.obj
 0001:000346b0       ?GetBool@?$TFloatScalarVariable@U?$TAnnotation@UID3DX11EffectScalarVariable@@@D3DX11Effects@@$00@D3DX11Effects@@UEAAJPEAH@Z 00000001800356b0 f i effects11:EffectNonRuntime.obj
 0001:000346e0       ?SetBoolArray@?$TFloatScalarVariable@U?$TAnnotation@UID3DX11EffectScalarVariable@@@D3DX11Effects@@$00@D3DX11Effects@@UEAAJPEBHII@Z 00000001800356e0 f i effects11:EffectNonRuntime.obj
 0001:000346f0       ?GetIntArray@?$TFloatScalarVariable@U?$TAnnotation@UID3DX11EffectScalarVariable@@@D3DX11Effects@@$00@D3DX11Effects@@UEAAJPEAHII@Z 00000001800356f0 f i effects11:EffectNonRuntime.obj
 0001:00034750       ?GetBoolArray@?$TFloatScalarVariable@U?$TAnnotation@UID3DX11EffectScalarVariable@@@D3DX11Effects@@$00@D3DX11Effects@@UEAAJPEAHII@Z 0000000180035750 f i effects11:EffectNonRuntime.obj
 0001:000347c0       ??0?$TIntScalarVariable@U?$TAnnotation@UID3DX11EffectScalarVariable@@@D3DX11Effects@@$00@D3DX11Effects@@QEAA@XZ 00000001800357c0 f i effects11:EffectNonRuntime.obj
 0001:00034800       ?SetFloat@?$TIntScalarVariable@U?$TAnnotation@UID3DX11EffectScalarVariable@@@D3DX11Effects@@$00@D3DX11Effects@@UEAAJM@Z 0000000180035800 f i effects11:EffectNonRuntime.obj
 0001:00034810       ?GetFloat@?$TIntScalarVariable@U?$TAnnotation@UID3DX11EffectScalarVariable@@@D3DX11Effects@@$00@D3DX11Effects@@UEAAJPEAM@Z 0000000180035810 f i effects11:EffectNonRuntime.obj
 0001:00034830       ?SetFloatArray@?$TIntScalarVariable@U?$TAnnotation@UID3DX11EffectScalarVariable@@@D3DX11Effects@@$00@D3DX11Effects@@UEAAJPEBMII@Z 0000000180035830 f i effects11:EffectNonRuntime.obj
 0001:00034840       ?GetFloatArray@?$TIntScalarVariable@U?$TAnnotation@UID3DX11EffectScalarVariable@@@D3DX11Effects@@$00@D3DX11Effects@@UEAAJPEAMII@Z 0000000180035840 f i effects11:EffectNonRuntime.obj
 0001:000348a0       ?SetInt@?$TIntScalarVariable@U?$TAnnotation@UID3DX11EffectScalarVariable@@@D3DX11Effects@@$00@D3DX11Effects@@UEAAJH@Z 00000001800358a0 f i effects11:EffectNonRuntime.obj
 0001:000348b0       ?GetInt@?$TIntScalarVariable@U?$TAnnotation@UID3DX11EffectScalarVariable@@@D3DX11Effects@@$00@D3DX11Effects@@UEAAJPEAH@Z 00000001800358b0 f i effects11:EffectNonRuntime.obj
 0001:000348c0       ?SetIntArray@?$TIntScalarVariable@U?$TAnnotation@UID3DX11EffectScalarVariable@@@D3DX11Effects@@$00@D3DX11Effects@@UEAAJPEBHII@Z 00000001800358c0 f i effects11:EffectNonRuntime.obj
 0001:000348d0       ?GetIntArray@?$TIntScalarVariable@U?$TAnnotation@UID3DX11EffectScalarVariable@@@D3DX11Effects@@$00@D3DX11Effects@@UEAAJPEAHII@Z 00000001800358d0 f i effects11:EffectNonRuntime.obj
 0001:00034930       ?SetBool@?$TIntScalarVariable@U?$TAnnotation@UID3DX11EffectScalarVariable@@@D3DX11Effects@@$00@D3DX11Effects@@UEAAJH@Z 0000000180035930 f i effects11:EffectNonRuntime.obj
 0001:00034940       ?GetBool@?$TIntScalarVariable@U?$TAnnotation@UID3DX11EffectScalarVariable@@@D3DX11Effects@@$00@D3DX11Effects@@UEAAJPEAH@Z 0000000180035940 f i effects11:EffectNonRuntime.obj
 0001:00034950       ?SetBoolArray@?$TIntScalarVariable@U?$TAnnotation@UID3DX11EffectScalarVariable@@@D3DX11Effects@@$00@D3DX11Effects@@UEAAJPEBHII@Z 0000000180035950 f i effects11:EffectNonRuntime.obj
 0001:00034960       ?GetBoolArray@?$TIntScalarVariable@U?$TAnnotation@UID3DX11EffectScalarVariable@@@D3DX11Effects@@$00@D3DX11Effects@@UEAAJPEAHII@Z 0000000180035960 f i effects11:EffectNonRuntime.obj
 0001:000349c0       ??0?$TBoolScalarVariable@U?$TAnnotation@UID3DX11EffectScalarVariable@@@D3DX11Effects@@$00@D3DX11Effects@@QEAA@XZ 00000001800359c0 f i effects11:EffectNonRuntime.obj
 0001:00034a00       ?SetFloat@?$TBoolScalarVariable@U?$TAnnotation@UID3DX11EffectScalarVariable@@@D3DX11Effects@@$00@D3DX11Effects@@UEAAJM@Z 0000000180035a00 f i effects11:EffectNonRuntime.obj
 0001:00034a10       ?GetFloat@?$TBoolScalarVariable@U?$TAnnotation@UID3DX11EffectScalarVariable@@@D3DX11Effects@@$00@D3DX11Effects@@UEAAJPEAM@Z 0000000180035a10 f i effects11:EffectNonRuntime.obj
 0001:00034a40       ?SetFloatArray@?$TBoolScalarVariable@U?$TAnnotation@UID3DX11EffectScalarVariable@@@D3DX11Effects@@$00@D3DX11Effects@@UEAAJPEBMII@Z 0000000180035a40 f i effects11:EffectNonRuntime.obj
 0001:00034a50       ?GetFloatArray@?$TBoolScalarVariable@U?$TAnnotation@UID3DX11EffectScalarVariable@@@D3DX11Effects@@$00@D3DX11Effects@@UEAAJPEAMII@Z 0000000180035a50 f i effects11:EffectNonRuntime.obj
 0001:00034ac0       ?SetInt@?$TBoolScalarVariable@U?$TAnnotation@UID3DX11EffectScalarVariable@@@D3DX11Effects@@$00@D3DX11Effects@@UEAAJH@Z 0000000180035ac0 f i effects11:EffectNonRuntime.obj
 0001:00034ad0       ?GetInt@?$TBoolScalarVariable@U?$TAnnotation@UID3DX11EffectScalarVariable@@@D3DX11Effects@@$00@D3DX11Effects@@UEAAJPEAH@Z 0000000180035ad0 f i effects11:EffectNonRuntime.obj
 0001:00034ae0       ?SetIntArray@?$TBoolScalarVariable@U?$TAnnotation@UID3DX11EffectScalarVariable@@@D3DX11Effects@@$00@D3DX11Effects@@UEAAJPEBHII@Z 0000000180035ae0 f i effects11:EffectNonRuntime.obj
 0001:00034af0       ?GetIntArray@?$TBoolScalarVariable@U?$TAnnotation@UID3DX11EffectScalarVariable@@@D3DX11Effects@@$00@D3DX11Effects@@UEAAJPEAHII@Z 0000000180035af0 f i effects11:EffectNonRuntime.obj
 0001:00034b50       ?SetBool@?$TBoolScalarVariable@U?$TAnnotation@UID3DX11EffectScalarVariable@@@D3DX11Effects@@$00@D3DX11Effects@@UEAAJH@Z 0000000180035b50 f i effects11:EffectNonRuntime.obj
 0001:00034b60       ?GetBool@?$TBoolScalarVariable@U?$TAnnotation@UID3DX11EffectScalarVariable@@@D3DX11Effects@@$00@D3DX11Effects@@UEAAJPEAH@Z 0000000180035b60 f i effects11:EffectNonRuntime.obj
 0001:00034b70       ?SetBoolArray@?$TBoolScalarVariable@U?$TAnnotation@UID3DX11EffectScalarVariable@@@D3DX11Effects@@$00@D3DX11Effects@@UEAAJPEBHII@Z 0000000180035b70 f i effects11:EffectNonRuntime.obj
 0001:00034b80       ?GetBoolArray@?$TBoolScalarVariable@U?$TAnnotation@UID3DX11EffectScalarVariable@@@D3DX11Effects@@$00@D3DX11Effects@@UEAAJPEAHII@Z 0000000180035b80 f i effects11:EffectNonRuntime.obj
 0001:00034be0       ??0SMatrix4x4ColumnMajorGlobalVariableMember@D3DX11Effects@@QEAA@XZ 0000000180035be0 f i effects11:EffectNonRuntime.obj
 0001:00034c20       ??0SMatrix4x4RowMajorGlobalVariableMember@D3DX11Effects@@QEAA@XZ 0000000180035c20 f i effects11:EffectNonRuntime.obj
 0001:00034c60       ??0SFloatVector4GlobalVariableMember@D3DX11Effects@@QEAA@XZ 0000000180035c60 f i effects11:EffectNonRuntime.obj
 0001:00034ca0       ??0SMatrixAnnotation@D3DX11Effects@@QEAA@XZ 0000000180035ca0 f i effects11:EffectNonRuntime.obj
 0001:00034ce0       ??0SMatrix4x4ColumnMajorGlobalVariable@D3DX11Effects@@QEAA@XZ 0000000180035ce0 f i effects11:EffectNonRuntime.obj
 0001:00034d30       ??0SMatrix4x4RowMajorGlobalVariable@D3DX11Effects@@QEAA@XZ 0000000180035d30 f i effects11:EffectNonRuntime.obj
 0001:00034d80       ??0SFloatVectorAnnotation@D3DX11Effects@@QEAA@XZ 0000000180035d80 f i effects11:EffectNonRuntime.obj
 0001:00034dc0       ??0SFloatVector4GlobalVariable@D3DX11Effects@@QEAA@XZ 0000000180035dc0 f i effects11:EffectNonRuntime.obj
 0001:00034e10       ??0SBoolVectorAnnotation@D3DX11Effects@@QEAA@XZ 0000000180035e10 f i effects11:EffectNonRuntime.obj
 0001:00034e50       ??0SIntVectorAnnotation@D3DX11Effects@@QEAA@XZ 0000000180035e50 f i effects11:EffectNonRuntime.obj
 0001:00034e90       ??0SFloatScalarAnnotation@D3DX11Effects@@QEAA@XZ 0000000180035e90 f i effects11:EffectNonRuntime.obj
 0001:00034ed0       ??0SIntScalarAnnotation@D3DX11Effects@@QEAA@XZ 0000000180035ed0 f i effects11:EffectNonRuntime.obj
 0001:00034f10       ??0SBoolScalarAnnotation@D3DX11Effects@@QEAA@XZ 0000000180035f10 f i effects11:EffectNonRuntime.obj
 0001:00034f50       ?CreateNewMember@D3DX11Effects@@YAPEAUSMember@1@PEAUSType@1@H@Z 0000000180035f50 f   effects11:EffectNonRuntime.obj
 0001:00035aa0       ?PlacementNewVariable@D3DX11Effects@@YAJPEAXPEAUSType@1@H@Z 0000000180036aa0 f   effects11:EffectNonRuntime.obj
 0001:00036520       ?CopyMemberInterfaces@CEffect@D3DX11Effects@@IEAAJPEAV12@@Z 0000000180037520 f   effects11:EffectNonRuntime.obj
 0001:00036660       ?CloneEffect@CEffect@D3DX11Effects@@UEAAJIPEAPEAUID3DX11Effect@@@Z 0000000180037660 f   effects11:EffectNonRuntime.obj
 0001:00036f20       ?IsObjectAssignmentHelper@D3DX11Effects@@YAHW4ELhsType@1@@Z 0000000180037f20 f i effects11:EffectLoad.obj
 0001:00036f50       ?RequiresPool@SBinaryHeader@D3DX11Effects@@QEBA_NXZ 0000000180037f50 f i effects11:EffectLoad.obj
 0001:00036f70       ??0SInterface@D3DX11Effects@@QEAA@XZ 0000000180037f70 f i effects11:EffectLoad.obj
 0001:00036f80       ??0SShaderResource@D3DX11Effects@@QEAA@XZ 0000000180037f80 f i effects11:EffectLoad.obj
 0001:00036f90       ??0SUnorderedAccessView@D3DX11Effects@@QEAA@XZ 0000000180037f90 f i effects11:EffectLoad.obj
 0001:00036fa0       ??0SDependency@SAssignment@D3DX11Effects@@QEAA@XZ 0000000180037fa0 f i effects11:EffectLoad.obj
 0001:00036fb0       ?IsObjectAssignment@SAssignment@D3DX11Effects@@QEAAHXZ 0000000180037fb0 f i effects11:EffectLoad.obj
 0001:00036fe0       ??0SAssignment@D3DX11Effects@@QEAA@XZ 0000000180037fe0 f i effects11:EffectLoad.obj
 0001:00037010       ?AreTypesEqual@CEffect@D3DX11Effects@@KAHAEBQEAUSType@2@0@Z 0000000180038010 f i effects11:EffectLoad.obj
 0001:00037020       ?AreStringsEqual@CEffect@D3DX11Effects@@KAHAEBQEBD0@Z 0000000180038020 f i effects11:EffectLoad.obj
 0001:00037050       ?GetSimpleParameterTypeFromObjectType@D3DX11Effects@@YA?AW4_D3D_SHADER_VARIABLE_TYPE@@W4EObjectType@1@@Z 0000000180038050 f   effects11:EffectLoad.obj
 0001:000371d0       ??0CEffectHeap@D3DX11Effects@@QEAA@XZ 00000001800381d0 f   effects11:EffectLoad.obj
 0001:000371e0       ??1CEffectHeap@D3DX11Effects@@QEAA@XZ 00000001800381e0 f   effects11:EffectLoad.obj
 0001:00037200       ?GetSize@CEffectHeap@D3DX11Effects@@QEAAIXZ 0000000180038200 f   effects11:EffectLoad.obj
 0001:00037210       ?ReserveMemory@CEffectHeap@D3DX11Effects@@QEAAJI@Z 0000000180038210 f   effects11:EffectLoad.obj
 0001:00037250       ?GetUnstructuredDataBlock@CEffectLoader@D3DX11Effects@@IEAAJIPEAIPEAPEAX@Z 0000000180038250 f   effects11:EffectLoad.obj
 0001:000372b0       ?GetStringAndAddToReflection@CEffectLoader@D3DX11Effects@@IEAAJIPEAPEAD@Z 00000001800382b0 f   effects11:EffectLoad.obj
 0001:00037350       ?GetInterfaceParametersAndAddToReflection@CEffectLoader@D3DX11Effects@@IEAAJIIPEAPEAUSInterfaceParameter@SShaderBlock@2@@Z 0000000180038350 f   effects11:EffectLoad.obj
 0001:000374e0       ?FixupCBPointer@CEffectLoader@D3DX11Effects@@IEAAJPEAPEAUSConstantBuffer@2@@Z 00000001800384e0 f   effects11:EffectLoad.obj
 0001:00037530       ?FixupShaderPointer@CEffectLoader@D3DX11Effects@@IEAAJPEAPEAUSShaderBlock@2@@Z 0000000180038530 f   effects11:EffectLoad.obj
 0001:000375e0       ?FixupDSPointer@CEffectLoader@D3DX11Effects@@IEAAJPEAPEAUSDepthStencilBlock@2@@Z 00000001800385e0 f   effects11:EffectLoad.obj
 0001:00037640       ?FixupABPointer@CEffectLoader@D3DX11Effects@@IEAAJPEAPEAUSBlendBlock@2@@Z 0000000180038640 f   effects11:EffectLoad.obj
 0001:000376b0       ?FixupRSPointer@CEffectLoader@D3DX11Effects@@IEAAJPEAPEAUSRasterizerBlock@2@@Z 00000001800386b0 f   effects11:EffectLoad.obj
 0001:00037720       ?FixupSamplerPointer@CEffectLoader@D3DX11Effects@@IEAAJPEAPEAUSSamplerBlock@2@@Z 0000000180038720 f   effects11:EffectLoad.obj
 0001:00037780       ?FixupShaderResourcePointer@CEffectLoader@D3DX11Effects@@IEAAJPEAPEAUSShaderResource@2@@Z 0000000180038780 f   effects11:EffectLoad.obj
 0001:00037820       ?FixupUnorderedAccessViewPointer@CEffectLoader@D3DX11Effects@@IEAAJPEAPEAUSUnorderedAccessView@2@@Z 0000000180038820 f   effects11:EffectLoad.obj
 0001:00037870       ?FixupRenderTargetViewPointer@CEffectLoader@D3DX11Effects@@IEAAJPEAPEAUSRenderTargetView@2@@Z 0000000180038870 f   effects11:EffectLoad.obj
 0001:000378c0       ?FixupDepthStencilViewPointer@CEffectLoader@D3DX11Effects@@IEAAJPEAPEAUSDepthStencilView@2@@Z 00000001800388c0 f   effects11:EffectLoad.obj
 0001:00037910       ?FixupStringPointer@CEffectLoader@D3DX11Effects@@IEAAJPEAPEAUSString@2@@Z 0000000180038910 f   effects11:EffectLoad.obj
 0001:00037950       ?FixupMemberDataPointer@CEffectLoader@D3DX11Effects@@IEAAJPEAPEAUSMemberDataPointer@2@@Z 0000000180038950 f   effects11:EffectLoad.obj
 0001:00037990       ?FixupGroupPointer@CEffectLoader@D3DX11Effects@@IEAAJPEAPEAUSGroup@2@@Z 0000000180038990 f   effects11:EffectLoad.obj
 0001:000379e0       ?GetEffectVersion@D3DX11Effects@@YAJIPEAK@Z 00000001800389e0 f   effects11:EffectLoad.obj
 0001:00037a20       ??_FSAnonymousShader@D3DX11Effects@@QEAAXXZ 0000000180038a20 f i effects11:EffectLoad.obj
 0001:00037a30       ??_FSShaderBlock@D3DX11Effects@@QEAAXXZ 0000000180038a30 f i effects11:EffectLoad.obj
 0001:00037a40       ?UnpackData@CEffectLoader@D3DX11Effects@@IEAAIPEAE0IPEAUSType@2@PEAI@Z 0000000180038a40 f   effects11:EffectLoad.obj
 0001:00037cc0       ?ExecuteConstantAssignment@CEffectLoader@D3DX11Effects@@IEAAJPEAUSBinaryConstant@2@PEAXW4_D3D_SHADER_VARIABLE_TYPE@@@Z 0000000180038cc0 f   effects11:EffectLoad.obj
 0001:00037d60       ?CalculateAnnotationSize@CEffectLoader@D3DX11Effects@@IEAAJIPEAUSAnnotation@2@@Z 0000000180038d60 f   effects11:EffectLoad.obj
 0001:00037de0       ?CalculateShaderBlockSize@CEffectLoader@D3DX11Effects@@IEAAIXZ 0000000180038de0 f   effects11:EffectLoad.obj
 0001:00037fe0       ??A?$CEffectVector@PEAX@@QEAAAEAPEAXI@Z 0000000180038fe0 f i effects11:EffectLoad.obj
 0001:00037ff0       ??A?$CEffectVector@E@@QEAAAEAEI@Z 0000000180038ff0 f i effects11:EffectLoad.obj
 0001:00038000       ?GetSize@?$CEffectVector@E@@QEBAIXZ 0000000180039000 f i effects11:EffectLoad.obj
 0001:00038010       ??A?$CEffectVector@PEAUSInterface@D3DX11Effects@@@@QEAAAEAPEAUSInterface@D3DX11Effects@@I@Z 0000000180039010 f i effects11:EffectLoad.obj
 0001:00038020       ?GetSize@?$CEffectVector@PEAUSInterface@D3DX11Effects@@@@QEBAIXZ 0000000180039020 f i effects11:EffectLoad.obj
 0001:00038030       ??0?$CheckedNumber@I$0PPPPPPPP@@@QEAA@XZ 0000000180039030 f i effects11:EffectLoad.obj
 0001:00038050       ??X?$CheckedNumber@I$0PPPPPPPP@@@QEAAAEAV0@AEBV0@@Z 0000000180039050 f i effects11:EffectLoad.obj
 0001:00038090       ?FindValueWithHash@?$CEffectHashTable@PEAUSType@D3DX11Effects@@$1?AreTypesEqual@CEffect@2@KAHAEBQEAU12@0@Z@@QEAAJPEAUSType@D3DX11Effects@@IPEAVCIterator@1@@Z 0000000180039090 f i effects11:EffectLoad.obj
 0001:00038120       ?FindValueWithHash@?$CEffectHashTable@PEBD$1?AreStringsEqual@CEffect@D3DX11Effects@@KAHAEBQEBD0@Z@@QEAAJPEBDIPEAVCIterator@1@@Z 0000000180039120 f i effects11:EffectLoad.obj
 0001:000381b0       ??0?$CEffectVector@USRange@D3DX11Effects@@@@QEAA@XZ 00000001800391b0 f i effects11:EffectLoad.obj
 0001:000381d0       ??A?$CEffectVector@USRange@D3DX11Effects@@@@QEAAAEAUSRange@D3DX11Effects@@I@Z 00000001800391d0 f i effects11:EffectLoad.obj
 0001:000381e0       ?GetSize@?$CEffectVector@USRange@D3DX11Effects@@@@QEBAIXZ 00000001800391e0 f i effects11:EffectLoad.obj
 0001:000381f0       ??0?$CEffectVector@PEAUSConstantBuffer@D3DX11Effects@@@@QEAA@XZ 00000001800391f0 f i effects11:EffectLoad.obj
 0001:00038210       ??A?$CEffectVector@PEAUSConstantBuffer@D3DX11Effects@@@@QEAAAEAPEAUSConstantBuffer@D3DX11Effects@@I@Z 0000000180039210 f i effects11:EffectLoad.obj
 0001:00038220       ?GetSize@?$CEffectVector@PEAUSConstantBuffer@D3DX11Effects@@@@QEBAIXZ 0000000180039220 f i effects11:EffectLoad.obj
 0001:00038230       ??0?$SShaderDependency@PEAUSSamplerBlock@D3DX11Effects@@PEAUID3D11SamplerState@@@D3DX11Effects@@QEAA@XZ 0000000180039230 f i effects11:EffectLoad.obj
 0001:00038250       ??0?$SShaderDependency@PEAUSConstantBuffer@D3DX11Effects@@PEAUID3D11Buffer@@@D3DX11Effects@@QEAA@XZ 0000000180039250 f i effects11:EffectLoad.obj
 0001:00038270       ??0?$SShaderDependency@PEAUSInterface@D3DX11Effects@@PEAUID3D11ClassInstance@@@D3DX11Effects@@QEAA@XZ 0000000180039270 f i effects11:EffectLoad.obj
 0001:00038290       ??0?$SShaderDependency@PEAUSShaderResource@D3DX11Effects@@PEAUID3D11ShaderResourceView@@@D3DX11Effects@@QEAA@XZ 0000000180039290 f i effects11:EffectLoad.obj
 0001:000382b0       ??0?$SShaderDependency@PEAUSUnorderedAccessView@D3DX11Effects@@PEAUID3D11UnorderedAccessView@@@D3DX11Effects@@QEAA@XZ 00000001800392b0 f i effects11:EffectLoad.obj
 0001:000382d0       ??0?$CEffectVector@PEAX@@QEAA@XZ 00000001800392d0 f i effects11:EffectLoad.obj
 0001:000382f0       ?Reserve@?$CEffectVector@E@@IEAAJI@Z 00000001800392f0 f i effects11:EffectLoad.obj
 0001:000383a0       ?Reserve@?$CEffectVector@PEAX@@IEAAJI@Z 00000001800393a0 f i effects11:EffectLoad.obj
 0001:00038450       ?Reserve@?$CEffectVector@PEAUSInterface@D3DX11Effects@@@@IEAAJI@Z 0000000180039450 f i effects11:EffectLoad.obj
 0001:00038500       ?Reserve@?$CEffectVector@USRange@D3DX11Effects@@@@IEAAJI@Z 0000000180039500 f i effects11:EffectLoad.obj
 0001:000385b0       ?Reserve@?$CEffectVector@PEAUSConstantBuffer@D3DX11Effects@@@@IEAAJI@Z 00000001800395b0 f i effects11:EffectLoad.obj
 0001:00038660       ?Empty@?$CEffectVector@PEAUSConstantBuffer@D3DX11Effects@@@@QEAAXXZ 0000000180039660 f i effects11:EffectLoad.obj
 0001:00038670       ?Empty@?$CEffectVector@PEAX@@QEAAXXZ 0000000180039670 f i effects11:EffectLoad.obj
 0001:00038680       ??$AddDataInternal@$00@CEffectHeap@D3DX11Effects@@IEAAJPEBXIPEAPEAX@Z 0000000180039680 f i effects11:EffectLoad.obj
 0001:00038700       ??$AddDataInternal@$0A@@CEffectHeap@D3DX11Effects@@IEAAJPEBXIPEAPEAX@Z 0000000180039700 f i effects11:EffectLoad.obj
 0001:00038750       ??$CalculateBlockAssignmentSize@USPassBlock@D3DX11Effects@@@CEffectLoader@D3DX11Effects@@IEAAIAEAPEAUSPassBlock@1@I@Z 0000000180039750 f i effects11:EffectLoad.obj
 0001:000387c0       ??$CalculateBlockAssignmentSize@USBlendBlock@D3DX11Effects@@@CEffectLoader@D3DX11Effects@@IEAAIAEAPEAUSBlendBlock@1@I@Z 00000001800397c0 f i effects11:EffectLoad.obj
 0001:00038830       ??$CalculateBlockAssignmentSize@USDepthStencilBlock@D3DX11Effects@@@CEffectLoader@D3DX11Effects@@IEAAIAEAPEAUSDepthStencilBlock@1@I@Z 0000000180039830 f i effects11:EffectLoad.obj
 0001:000388a0       ??$CalculateBlockAssignmentSize@USRasterizerBlock@D3DX11Effects@@@CEffectLoader@D3DX11Effects@@IEAAIAEAPEAUSRasterizerBlock@1@I@Z 00000001800398a0 f i effects11:EffectLoad.obj
 0001:00038910       ??$CalculateBlockAssignmentSize@USSamplerBlock@D3DX11Effects@@@CEffectLoader@D3DX11Effects@@IEAAIAEAPEAUSSamplerBlock@1@I@Z 0000000180039910 f i effects11:EffectLoad.obj
 0001:00038980       ??_9ID3D11DeviceContext@@$BCDI@AA 0000000180039980 f i effects11:EffectLoad.obj
 0001:00038990       ??_9ID3D11DeviceContext@@$BEI@AA 0000000180039990 f i effects11:EffectLoad.obj
 0001:000389a0       ??_9ID3D11DeviceContext@@$BFI@AA 00000001800399a0 f i effects11:EffectLoad.obj
 0001:000389b0       ??_9ID3D11Device@@$BGI@AA  00000001800399b0 f i effects11:EffectLoad.obj
 0001:000389c0       ??_9ID3D11Device@@$BHI@AA  00000001800399c0 f i effects11:EffectLoad.obj
 0001:000389d0       ??_9ID3D11Device@@$BII@AA  00000001800399d0 f i effects11:EffectLoad.obj
 0001:000389e0       ??_9ID3D11DeviceContext@@$BLI@AA 00000001800399e0 f i effects11:EffectLoad.obj
 0001:000389f0       ??_9ID3D11DeviceContext@@$BMI@AA 00000001800399f0 f i effects11:EffectLoad.obj
 0001:00038a00       ??_9ID3D11DeviceContext@@$BBOA@AA 0000000180039a00 f i effects11:EffectLoad.obj
 0001:00038a10       ??_9ID3D11DeviceContext@@$BBPA@AA 0000000180039a10 f i effects11:EffectLoad.obj
 0001:00038a20       ??_9ID3D11DeviceContext@@$BPI@AA 0000000180039a20 f i effects11:EffectLoad.obj
 0001:00038a30       ??_9ID3D11DeviceContext@@$BCAA@AA 0000000180039a30 f i effects11:EffectLoad.obj
 0001:00038a40       ??_9ID3D11DeviceContext@@$BCBA@AA 0000000180039a40 f i effects11:EffectLoad.obj
 0001:00038a50       ??_9ID3D11DeviceContext@@$BCDA@AA 0000000180039a50 f i effects11:EffectLoad.obj
 0001:00038a60       ??_9ID3D11DeviceContext@@$BEA@AA 0000000180039a60 f i effects11:EffectLoad.obj
 0001:00038a70       ??_9ID3D11DeviceContext@@$BFA@AA 0000000180039a70 f i effects11:EffectLoad.obj
 0001:00038a80       ??_9ID3D11Device@@$BGA@AA  0000000180039a80 f i effects11:EffectLoad.obj
 0001:00038a90       ??_9ID3D11DeviceContext@@$BIA@AA 0000000180039a90 f i effects11:EffectLoad.obj
 0001:00038aa0       ??_9ID3D11Device@@$BJA@AA  0000000180039aa0 f i effects11:EffectLoad.obj
 0001:00038ab0       ??_9ID3D11DeviceContext@@$BLA@AA 0000000180039ab0 f i effects11:EffectLoad.obj
 0001:00038ac0       ??_9ID3D11DeviceContext@@$BNA@AA 0000000180039ac0 f i effects11:EffectLoad.obj
 0001:00038ad0       ??_9ID3D11DeviceContext@@$BBNI@AA 0000000180039ad0 f i effects11:EffectLoad.obj
 0001:00038ae0       ??_9ID3D11DeviceContext@@$BBOI@AA 0000000180039ae0 f i effects11:EffectLoad.obj
 0001:00038af0       ??_9ID3D11DeviceContext@@$BBPI@AA 0000000180039af0 f i effects11:EffectLoad.obj
 0001:00038b00       ??_9ID3D11DeviceContext@@$BBAA@AA 0000000180039b00 f i effects11:EffectLoad.obj
 0001:00038b10       ??_9ID3D11DeviceContext@@$BCAI@AA 0000000180039b10 f i effects11:EffectLoad.obj
 0001:00038b20       ??_9ID3D11DeviceContext@@$BCBI@AA 0000000180039b20 f i effects11:EffectLoad.obj
 0001:00038b30       ??_9ID3D11DeviceContext@@$BCCI@AA 0000000180039b30 f i effects11:EffectLoad.obj
 0001:00038b40       ??_9ID3D11DeviceContext@@$BDI@AA 0000000180039b40 f i effects11:EffectLoad.obj
 0001:00038b50       ??0ID3DX11EffectConstantBuffer@@QEAA@XZ 0000000180039b50 f i effects11:EffectLoad.obj
 0001:00038b60       ?AddData@CEffectHeap@D3DX11Effects@@QEAAJPEBXIPEAPEAX@Z 0000000180039b60 f   effects11:EffectLoad.obj
 0001:00038b70       ?MoveEmptyDataBlock@CEffectHeap@D3DX11Effects@@QEAAJPEAPEAXI@Z 0000000180039b70 f   effects11:EffectLoad.obj
 0001:00038be0       ?MoveData@CEffectHeap@D3DX11Effects@@QEAAJPEAPEAXI@Z 0000000180039be0 f   effects11:EffectLoad.obj
 0001:00038c90       ?FixupInterfacePointer@CEffectLoader@D3DX11Effects@@IEAAJPEAPEAUSInterface@2@_N@Z 0000000180039c90 f   effects11:EffectLoad.obj
 0001:00038d70       ?FixupVariablePointer@CEffectLoader@D3DX11Effects@@IEAAJPEAPEAUSGlobalVariable@2@@Z 0000000180039d70 f   effects11:EffectLoad.obj
 0001:00038e20       ?LoadStringAndAddToPool@CEffectLoader@D3DX11Effects@@IEAAJPEAPEADI@Z 0000000180039e20 f   effects11:EffectLoad.obj
 0001:00038f90       ?LoadAssignments@CEffectLoader@D3DX11Effects@@IEAAJIPEAPEAUSAssignment@2@PEAEPEAI2@Z 0000000180039f90 f   effects11:EffectLoad.obj
 0001:00039d10       ?ReallocateShaderBlocks@CEffectLoader@D3DX11Effects@@IEAAJXZ 000000018003ad10 f   effects11:EffectLoad.obj
 0001:0003a550       ?AddRange@?$CEffectVector@E@@QEAAPEAEI@Z 000000018003b550 f i effects11:EffectLoad.obj
 0001:0003a5a0       ?Grow@?$CEffectVector@PEAX@@IEAAJXZ 000000018003b5a0 f i effects11:EffectLoad.obj
 0001:0003a5b0       ?Grow@?$CEffectVector@PEAUSInterface@D3DX11Effects@@@@IEAAJXZ 000000018003b5b0 f i effects11:EffectLoad.obj
 0001:0003a5c0       ?Grow@?$CEffectVector@USRange@D3DX11Effects@@@@IEAAJXZ 000000018003b5c0 f i effects11:EffectLoad.obj
 0001:0003a5d0       ?Grow@?$CEffectVector@PEAUSConstantBuffer@D3DX11Effects@@@@IEAAJXZ 000000018003b5d0 f i effects11:EffectLoad.obj
 0001:0003a5e0       ?Clear@?$CEffectVector@PEAUSConstantBuffer@D3DX11Effects@@@@QEAAXXZ 000000018003b5e0 f i effects11:EffectLoad.obj
 0001:0003a610       ?Clear@?$CEffectVector@PEAX@@QEAAXXZ 000000018003b610 f i effects11:EffectLoad.obj
 0001:0003a640       ??$ReallocateBlockAssignments@USDepthStencilBlock@D3DX11Effects@@@CEffectLoader@D3DX11Effects@@IEAAJAEAPEAUSDepthStencilBlock@1@IPEAU21@@Z 000000018003b640 f i effects11:EffectLoad.obj
 0001:0003aa10       ??$ReallocateBlockAssignments@USBlendBlock@D3DX11Effects@@@CEffectLoader@D3DX11Effects@@IEAAJAEAPEAUSBlendBlock@1@IPEAU21@@Z 000000018003ba10 f i effects11:EffectLoad.obj
 0001:0003adf0       ??$ReallocateBlockAssignments@USRasterizerBlock@D3DX11Effects@@@CEffectLoader@D3DX11Effects@@IEAAJAEAPEAUSRasterizerBlock@1@IPEAU21@@Z 000000018003bdf0 f i effects11:EffectLoad.obj
 0001:0003b1c0       ??$ReallocateBlockAssignments@USSamplerBlock@D3DX11Effects@@@CEffectLoader@D3DX11Effects@@IEAAJAEAPEAUSSamplerBlock@1@IPEAU21@@Z 000000018003c1c0 f i effects11:EffectLoad.obj
 0001:0003b590       ??$ReallocateBlockAssignments@USPassBlock@D3DX11Effects@@@CEffectLoader@D3DX11Effects@@IEAAJAEAPEAUSPassBlock@1@IPEAU21@@Z 000000018003c590 f i effects11:EffectLoad.obj
 0001:0003b970       ??0?$TUncastableVariable@UID3DX11EffectConstantBuffer@@@D3DX11Effects@@QEAA@XZ 000000018003c970 f i effects11:EffectLoad.obj
 0001:0003b980       ?AsScalar@?$TUncastableVariable@UID3DX11EffectConstantBuffer@@@D3DX11Effects@@UEAAPEAUID3DX11EffectScalarVariable@@XZ 000000018003c980 f i effects11:EffectLoad.obj
 0001:0003b990       ?AsVector@?$TUncastableVariable@UID3DX11EffectConstantBuffer@@@D3DX11Effects@@UEAAPEAUID3DX11EffectVectorVariable@@XZ 000000018003c990 f i effects11:EffectLoad.obj
 0001:0003b9a0       ?AsMatrix@?$TUncastableVariable@UID3DX11EffectConstantBuffer@@@D3DX11Effects@@UEAAPEAUID3DX11EffectMatrixVariable@@XZ 000000018003c9a0 f i effects11:EffectLoad.obj
 0001:0003b9b0       ?AsString@?$TUncastableVariable@UID3DX11EffectConstantBuffer@@@D3DX11Effects@@UEAAPEAUID3DX11EffectStringVariable@@XZ 000000018003c9b0 f i effects11:EffectLoad.obj
 0001:0003b9c0       ?AsClassInstance@?$TUncastableVariable@UID3DX11EffectConstantBuffer@@@D3DX11Effects@@UEAAPEAUID3DX11EffectClassInstanceVariable@@XZ 000000018003c9c0 f i effects11:EffectLoad.obj
 0001:0003b9d0       ?AsInterface@?$TUncastableVariable@UID3DX11EffectConstantBuffer@@@D3DX11Effects@@UEAAPEAUID3DX11EffectInterfaceVariable@@XZ 000000018003c9d0 f i effects11:EffectLoad.obj
 0001:0003b9e0       ?AsShaderResource@?$TUncastableVariable@UID3DX11EffectConstantBuffer@@@D3DX11Effects@@UEAAPEAUID3DX11EffectShaderResourceVariable@@XZ 000000018003c9e0 f i effects11:EffectLoad.obj
 0001:0003b9f0       ?AsUnorderedAccessView@?$TUncastableVariable@UID3DX11EffectConstantBuffer@@@D3DX11Effects@@UEAAPEAUID3DX11EffectUnorderedAccessViewVariable@@XZ 000000018003c9f0 f i effects11:EffectLoad.obj
 0001:0003ba00       ?AsRenderTargetView@?$TUncastableVariable@UID3DX11EffectConstantBuffer@@@D3DX11Effects@@UEAAPEAUID3DX11EffectRenderTargetViewVariable@@XZ 000000018003ca00 f i effects11:EffectLoad.obj
 0001:0003ba10       ?AsDepthStencilView@?$TUncastableVariable@UID3DX11EffectConstantBuffer@@@D3DX11Effects@@UEAAPEAUID3DX11EffectDepthStencilViewVariable@@XZ 000000018003ca10 f i effects11:EffectLoad.obj
 0001:0003ba20       ?AsConstantBuffer@?$TUncastableVariable@UID3DX11EffectConstantBuffer@@@D3DX11Effects@@UEAAPEAUID3DX11EffectConstantBuffer@@XZ 000000018003ca20 f i effects11:EffectLoad.obj
 0001:0003ba30       ?AsShader@?$TUncastableVariable@UID3DX11EffectConstantBuffer@@@D3DX11Effects@@UEAAPEAUID3DX11EffectShaderVariable@@XZ 000000018003ca30 f i effects11:EffectLoad.obj
 0001:0003ba40       ?AsBlend@?$TUncastableVariable@UID3DX11EffectConstantBuffer@@@D3DX11Effects@@UEAAPEAUID3DX11EffectBlendVariable@@XZ 000000018003ca40 f i effects11:EffectLoad.obj
 0001:0003ba50       ?AsDepthStencil@?$TUncastableVariable@UID3DX11EffectConstantBuffer@@@D3DX11Effects@@UEAAPEAUID3DX11EffectDepthStencilVariable@@XZ 000000018003ca50 f i effects11:EffectLoad.obj
 0001:0003ba60       ?AsRasterizer@?$TUncastableVariable@UID3DX11EffectConstantBuffer@@@D3DX11Effects@@UEAAPEAUID3DX11EffectRasterizerVariable@@XZ 000000018003ca60 f i effects11:EffectLoad.obj
 0001:0003ba70       ?AsSampler@?$TUncastableVariable@UID3DX11EffectConstantBuffer@@@D3DX11Effects@@UEAAPEAUID3DX11EffectSamplerVariable@@XZ 000000018003ca70 f i effects11:EffectLoad.obj
 0001:0003ba80       ?AddString@CEffectHeap@D3DX11Effects@@QEAAJPEBDPEAPEAD@Z 000000018003ca80 f   effects11:EffectLoad.obj
 0001:0003bab0       ?MoveString@CEffectHeap@D3DX11Effects@@QEAAJPEAPEAD@Z 000000018003cab0 f   effects11:EffectLoad.obj
 0001:0003bb70       ?MoveInterfaceParameters@CEffectHeap@D3DX11Effects@@QEAAJIPEAPEAUSInterfaceParameter@SShaderBlock@2@@Z 000000018003cb70 f   effects11:EffectLoad.obj
 0001:0003bc70       ?LoadTypeAndAddToPool@CEffectLoader@D3DX11Effects@@IEAAJPEAPEAUSType@2@I@Z 000000018003cc70 f   effects11:EffectLoad.obj
 0001:0003c3b0       ?LoadAnnotations@CEffectLoader@D3DX11Effects@@IEAAJPEAIPEAPEAUSAnnotation@2@@Z 000000018003d3b0 f   effects11:EffectLoad.obj
 0001:0003c730       ?ReallocateAnnotationData@CEffectLoader@D3DX11Effects@@IEAAJIPEAPEAUSAnnotation@2@@Z 000000018003d730 f   effects11:EffectLoad.obj
 0001:0003c860       ?InitializeReflectionDataAndMoveStrings@CEffectLoader@D3DX11Effects@@IEAAJI@Z 000000018003d860 f   effects11:EffectLoad.obj
 0001:0003cd70       ?ReallocateReflectionData@CEffectLoader@D3DX11Effects@@IEAAJ_N@Z 000000018003dd70 f   effects11:EffectLoad.obj
 0001:0003d290       ?ReallocateEffectData@CEffectLoader@D3DX11Effects@@IEAAJ_N@Z 000000018003e290 f   effects11:EffectLoad.obj
 0001:0003e850       ?Add@?$CEffectVector@PEAX@@QEAAJAEBQEAX@Z 000000018003f850 f i effects11:EffectLoad.obj
 0001:0003e8a0       ?Add@?$CEffectVector@PEAUSInterface@D3DX11Effects@@@@QEAAJAEBQEAUSInterface@D3DX11Effects@@@Z 000000018003f8a0 f i effects11:EffectLoad.obj
 0001:0003e8f0       ??1?$CEffectVector@PEAUSConstantBuffer@D3DX11Effects@@@@QEAA@XZ 000000018003f8f0 f i effects11:EffectLoad.obj
 0001:0003e920       ?Add@?$CEffectVector@PEAUSConstantBuffer@D3DX11Effects@@@@QEAAJAEBQEAUSConstantBuffer@D3DX11Effects@@@Z 000000018003f920 f i effects11:EffectLoad.obj
 0001:0003e970       ??1?$CEffectVector@PEAX@@QEAA@XZ 000000018003f970 f i effects11:EffectLoad.obj
 0001:0003e9a0       ??1SRange@D3DX11Effects@@QEAA@XZ 000000018003f9a0 f i effects11:EffectLoad.obj
 0001:0003e9d0       ??0SConstantBuffer@D3DX11Effects@@QEAA@XZ 000000018003f9d0 f i effects11:EffectLoad.obj
 0001:0003ea20       ?IsValid@SConstantBuffer@D3DX11Effects@@W7EAAHXZ 000000018003fa20 f i effects11:EffectLoad.obj
 0001:0003ea30       ?LoadNumericVariable@CEffectLoader@D3DX11Effects@@IEAAJPEAUSConstantBuffer@2@@Z 000000018003fa30 f   effects11:EffectLoad.obj
 0001:0003ec80       ?LoadCBs@CEffectLoader@D3DX11Effects@@IEAAJXZ 000000018003fc80 f   effects11:EffectLoad.obj
 0001:0003ee50       ?LoadObjectVariables@CEffectLoader@D3DX11Effects@@IEAAJXZ 000000018003fe50 f   effects11:EffectLoad.obj
 0001:0003f860       ?LoadInterfaceVariables@CEffectLoader@D3DX11Effects@@IEAAJXZ 0000000180040860 f   effects11:EffectLoad.obj
 0001:0003fb90       ?LoadTechnique@CEffectLoader@D3DX11Effects@@IEAAJPEAUSTechnique@2@@Z 0000000180040b90 f   effects11:EffectLoad.obj
 0001:0003fd90       ??0SRange@D3DX11Effects@@QEAA@XZ 0000000180040d90 f i effects11:EffectLoad.obj
 0001:0003fdb0       ??_GSRange@D3DX11Effects@@QEAAPEAXI@Z 0000000180040db0 f i effects11:EffectLoad.obj
 0001:0003fe00       ?LoadGroups@CEffectLoader@D3DX11Effects@@IEAAJXZ 0000000180040e00 f   effects11:EffectLoad.obj
 0001:0003ffd0       ?Add@?$CEffectVector@USRange@D3DX11Effects@@@@QEAAPEAUSRange@D3DX11Effects@@XZ 0000000180040fd0 f i effects11:EffectLoad.obj
 0001:00040030       ?Empty@?$CEffectVector@USRange@D3DX11Effects@@@@QEAAXXZ 0000000180041030 f i effects11:EffectLoad.obj
 0001:000400d0       ?Clear@?$CEffectVector@USRange@D3DX11Effects@@@@QEAAXXZ 00000001800410d0 f i effects11:EffectLoad.obj
 0001:00040100       ??1?$CEffectVector@USRange@D3DX11Effects@@@@QEAA@XZ 0000000180041100 f i effects11:EffectLoad.obj
 0001:00040130       ?GrabShaderData@CEffectLoader@D3DX11Effects@@IEAAJPEAUSShaderBlock@2@@Z 0000000180041130 f   effects11:EffectLoad.obj
 0001:000416e0       ?BuildShaderBlock@CEffectLoader@D3DX11Effects@@IEAAJPEAUSShaderBlock@2@@Z 00000001800426e0 f   effects11:EffectLoad.obj
 0001:000417a0       ?LoadEffect@CEffectLoader@D3DX11Effects@@QEAAJPEAVCEffect@2@PEBXI@Z 00000001800427a0 f   effects11:EffectLoad.obj
 0001:00042460       ?LoadEffect@CEffect@D3DX11Effects@@QEAAJPEBXI@Z 0000000180043460 f   effects11:EffectLoad.obj
 0001:000425b0       ?UIntAdd@@YAJIIPEAI@Z      00000001800435b0 f i effects11:d3dxGlobal.obj
 0001:000425d0       ??0CMemoryStream@D3DX11Core@@QEAA@XZ 00000001800435d0 f   effects11:d3dxGlobal.obj
 0001:000425f0       ??1CMemoryStream@D3DX11Core@@QEAA@XZ 00000001800435f0 f   effects11:d3dxGlobal.obj
 0001:00042600       ?SetData@CMemoryStream@D3DX11Core@@QEAAJPEBX_K@Z 0000000180043600 f   effects11:d3dxGlobal.obj
 0001:00042620       ?Read@CMemoryStream@D3DX11Core@@QEAAJPEAPEAX_K@Z 0000000180043620 f   effects11:d3dxGlobal.obj
 0001:00042650       ?Read@CMemoryStream@D3DX11Core@@QEAAJPEAI@Z 0000000180043650 f   effects11:d3dxGlobal.obj
 0001:00042680       ?Read@CMemoryStream@D3DX11Core@@QEAAJPEAPEBD@Z 0000000180043680 f   effects11:d3dxGlobal.obj
 0001:000426c0       ?GetPosition@CMemoryStream@D3DX11Core@@QEAA_KXZ 00000001800436c0 f   effects11:d3dxGlobal.obj
 0001:000426d0       ?Seek@CMemoryStream@D3DX11Core@@QEAAJ_K@Z 00000001800436d0 f   effects11:d3dxGlobal.obj
 0001:000426f0       ??0CDataBlock@@QEAA@XZ     00000001800436f0 f   effects11:d3dxGlobal.obj
 0001:00042710       ??1CDataBlock@@QEAA@XZ     0000000180043710 f   effects11:d3dxGlobal.obj
 0001:00042760       ??_GCDataBlock@@QEAAPEAXI@Z 0000000180043760 f i effects11:d3dxGlobal.obj
 0001:000427c0       ?EnableAlignment@CDataBlock@@QEAAXXZ 00000001800437c0 f   effects11:d3dxGlobal.obj
 0001:000427d0       ?AddData@CDataBlock@@QEAAJPEBXIPEAPEAV1@@Z 00000001800437d0 f   effects11:d3dxGlobal.obj
 0001:00042900       ?Allocate@CDataBlock@@QEAAPEAXIPEAPEAV1@@Z 0000000180043900 f   effects11:d3dxGlobal.obj
 0001:00042a10       ??0CDataBlockStore@@QEAA@XZ 0000000180043a10 f   effects11:d3dxGlobal.obj
 0001:00042a30       ??1CDataBlockStore@@QEAA@XZ 0000000180043a30 f   effects11:d3dxGlobal.obj
 0001:00042ab0       ?EnableAlignment@CDataBlockStore@@QEAAXXZ 0000000180043ab0 f   effects11:d3dxGlobal.obj
 0001:00042ac0       ?AddData@CDataBlockStore@@QEAAJPEBXIPEAI@Z 0000000180043ac0 f   effects11:d3dxGlobal.obj
 0001:00042ba0       ?Allocate@CDataBlockStore@@QEAAPEAXI@Z 0000000180043ba0 f   effects11:d3dxGlobal.obj
 0001:00042c40       ?GetSize@CDataBlockStore@@QEAAIXZ 0000000180043c40 f   effects11:d3dxGlobal.obj
 0001:00042c50       ?ReadAtOffset@CMemoryStream@D3DX11Core@@QEAAJ_K0PEAPEAX@Z 0000000180043c50 f   effects11:d3dxGlobal.obj
 0001:00042c90       ?ReadAtOffset@CMemoryStream@D3DX11Core@@QEAAJ_KPEAPEBD@Z 0000000180043c90 f   effects11:d3dxGlobal.obj
 0001:00042ce0       ?AddString@CDataBlockStore@@QEAAJPEBDPEAI@Z 0000000180043ce0 f   effects11:d3dxGlobal.obj
 0001:00042e50       ?IsRuntimeData@CEffect@D3DX11Effects@@QEBAHPEAX@Z 0000000180043e50 f i effects11:EffectReflection.obj
 0001:00042e70       ??0SEffectInvalidType@D3DX11Effects@@QEAA@XZ 0000000180043e70 f i effects11:EffectReflection.obj
 0001:00042e80       ?IsValid@SEffectInvalidType@D3DX11Effects@@UEAAHXZ 0000000180043e80 f i effects11:EffectReflection.obj
 0001:00042e90       ?GetDesc@SEffectInvalidType@D3DX11Effects@@UEAAJPEAU_D3DX11_EFFECT_TYPE_DESC@@@Z 0000000180043e90 f i effects11:EffectReflection.obj
 0001:00042ea0       ?GetMemberTypeByIndex@SEffectInvalidType@D3DX11Effects@@UEAAPEAUID3DX11EffectType@@I@Z 0000000180043ea0 f i effects11:EffectReflection.obj
 0001:00042eb0       ?GetMemberTypeByName@SEffectInvalidType@D3DX11Effects@@UEAAPEAUID3DX11EffectType@@PEBD@Z 0000000180043eb0 f i effects11:EffectReflection.obj
 0001:00042ec0       ?GetMemberTypeBySemantic@SEffectInvalidType@D3DX11Effects@@UEAAPEAUID3DX11EffectType@@PEBD@Z 0000000180043ec0 f i effects11:EffectReflection.obj
 0001:00042ed0       ?GetMemberName@SEffectInvalidType@D3DX11Effects@@UEAAPEBDI@Z 0000000180043ed0 f i effects11:EffectReflection.obj
 0001:00042ee0       ?GetMemberSemantic@SEffectInvalidType@D3DX11Effects@@UEAAPEBDI@Z 0000000180043ee0 f i effects11:EffectReflection.obj
 0001:00042ef0       ?NoParentCB@D3DX11Effects@@YAPEAUID3DX11EffectConstantBuffer@@XZ 0000000180043ef0 f   effects11:EffectReflection.obj
 0001:00042f00       ?GetAnnotationByIndexHelper@D3DX11Effects@@YAPEAUID3DX11EffectVariable@@PEBDIIPEAUSAnnotation@1@@Z 0000000180043f00 f   effects11:EffectReflection.obj
 0001:00042f20       ?GetAnnotationByNameHelper@D3DX11Effects@@YAPEAUID3DX11EffectVariable@@PEBD0IPEAUSAnnotation@1@@Z 0000000180043f20 f   effects11:EffectReflection.obj
 0001:00042fa0       ??0SSingleElementType@D3DX11Effects@@QEAA@XZ 0000000180043fa0 f i effects11:EffectReflection.obj
 0001:00042fb0       ?IsValid@SSingleElementType@D3DX11Effects@@UEAAHXZ 0000000180043fb0 f i effects11:EffectReflection.obj
 0001:00042fc0       ?GetMemberTypeByIndex@SSingleElementType@D3DX11Effects@@UEAAPEAUID3DX11EffectType@@I@Z 0000000180043fc0 f i effects11:EffectReflection.obj
 0001:00042fd0       ?GetMemberTypeByName@SSingleElementType@D3DX11Effects@@UEAAPEAUID3DX11EffectType@@PEBD@Z 0000000180043fd0 f i effects11:EffectReflection.obj
 0001:00042fe0       ?GetMemberTypeBySemantic@SSingleElementType@D3DX11Effects@@UEAAPEAUID3DX11EffectType@@PEBD@Z 0000000180043fe0 f i effects11:EffectReflection.obj
 0001:00042ff0       ?GetMemberName@SSingleElementType@D3DX11Effects@@UEAAPEBDI@Z 0000000180043ff0 f i effects11:EffectReflection.obj
 0001:00043000       ?GetMemberSemantic@SSingleElementType@D3DX11Effects@@UEAAPEBDI@Z 0000000180044000 f i effects11:EffectReflection.obj
 0001:00043170       ?GetMemberTypeByIndex@SType@D3DX11Effects@@UEAAPEAUID3DX11EffectType@@I@Z 0000000180044170 f   effects11:EffectReflection.obj
 0001:000431a0       ?GetMemberTypeByName@SType@D3DX11Effects@@UEAAPEAUID3DX11EffectType@@PEBD@Z 00000001800441a0 f   effects11:EffectReflection.obj
 0001:000431d0       ?GetMemberTypeBySemantic@SType@D3DX11Effects@@UEAAPEAUID3DX11EffectType@@PEBD@Z 00000001800441d0 f   effects11:EffectReflection.obj
 0001:00043200       ?GetMemberName@SType@D3DX11Effects@@UEAAPEBDI@Z 0000000180044200 f   effects11:EffectReflection.obj
 0001:00043230       ?GetMemberSemantic@SType@D3DX11Effects@@UEAAPEBDI@Z 0000000180044230 f   effects11:EffectReflection.obj
 0001:00043260       ?GetDescHelper@SType@D3DX11Effects@@QEBAJPEAU_D3DX11_EFFECT_TYPE_DESC@@H@Z 0000000180044260 f   effects11:EffectReflection.obj
 0001:00043660       ??0?$TUncastableVariable@UID3DX11EffectShaderVariable@@@D3DX11Effects@@QEAA@XZ 0000000180044660 f i effects11:EffectReflection.obj
 0001:00043670       ?IsValid@SAnonymousShader@D3DX11Effects@@UEAAHXZ 0000000180044670 f   effects11:EffectReflection.obj
 0001:00043690       ?GetType@SAnonymousShader@D3DX11Effects@@UEAAPEAUID3DX11EffectType@@XZ 0000000180044690 f   effects11:EffectReflection.obj
 0001:000436a0       ?GetDesc@SAnonymousShader@D3DX11Effects@@UEAAJPEAU_D3DX11_EFFECT_VARIABLE_DESC@@@Z 00000001800446a0 f   effects11:EffectReflection.obj
 0001:000436c0       ?GetAnnotationByIndex@SAnonymousShader@D3DX11Effects@@UEAAPEAUID3DX11EffectVariable@@I@Z 00000001800446c0 f   effects11:EffectReflection.obj
 0001:000436d0       ?GetAnnotationByName@SAnonymousShader@D3DX11Effects@@UEAAPEAUID3DX11EffectVariable@@PEBD@Z 00000001800446d0 f   effects11:EffectReflection.obj
 0001:000436e0       ?GetMemberByIndex@SAnonymousShader@D3DX11Effects@@UEAAPEAUID3DX11EffectVariable@@I@Z 00000001800446e0 f   effects11:EffectReflection.obj
 0001:000436f0       ?GetMemberByName@SAnonymousShader@D3DX11Effects@@UEAAPEAUID3DX11EffectVariable@@PEBD@Z 00000001800446f0 f   effects11:EffectReflection.obj
 0001:00043700       ?GetMemberBySemantic@SAnonymousShader@D3DX11Effects@@UEAAPEAUID3DX11EffectVariable@@PEBD@Z 0000000180044700 f   effects11:EffectReflection.obj
 0001:00043710       ?GetElement@SAnonymousShader@D3DX11Effects@@UEAAPEAUID3DX11EffectVariable@@I@Z 0000000180044710 f   effects11:EffectReflection.obj
 0001:00043720       ?GetParentConstantBuffer@SAnonymousShader@D3DX11Effects@@UEAAPEAUID3DX11EffectConstantBuffer@@XZ 0000000180044720 f   effects11:EffectReflection.obj
 0001:00043730       ?AsShader@SAnonymousShader@D3DX11Effects@@UEAAPEAUID3DX11EffectShaderVariable@@XZ 0000000180044730 f   effects11:EffectReflection.obj
 0001:00043740       ?SetRawValue@SAnonymousShader@D3DX11Effects@@UEAAJPEBXII@Z 0000000180044740 f   effects11:EffectReflection.obj
 0001:00043750       ?GetRawValue@SAnonymousShader@D3DX11Effects@@UEAAJPEAXII@Z 0000000180044750 f   effects11:EffectReflection.obj
 0001:00043760       ?GetShaderDesc@SAnonymousShader@D3DX11Effects@@UEAAJIPEAU_D3DX11_EFFECT_SHADER_DESC@@@Z 0000000180044760 f   effects11:EffectReflection.obj
 0001:00043790       ?GetVertexShader@SAnonymousShader@D3DX11Effects@@UEAAJIPEAPEAUID3D11VertexShader@@@Z 0000000180044790 f   effects11:EffectReflection.obj
 0001:000437b0       ?GetGeometryShader@SAnonymousShader@D3DX11Effects@@UEAAJIPEAPEAUID3D11GeometryShader@@@Z 00000001800447b0 f   effects11:EffectReflection.obj
 0001:000437d0       ?GetPixelShader@SAnonymousShader@D3DX11Effects@@UEAAJIPEAPEAUID3D11PixelShader@@@Z 00000001800447d0 f   effects11:EffectReflection.obj
 0001:000437f0       ?GetHullShader@SAnonymousShader@D3DX11Effects@@UEAAJIPEAPEAUID3D11HullShader@@@Z 00000001800447f0 f   effects11:EffectReflection.obj
 0001:00043810       ?GetDomainShader@SAnonymousShader@D3DX11Effects@@UEAAJIPEAPEAUID3D11DomainShader@@@Z 0000000180044810 f   effects11:EffectReflection.obj
 0001:00043830       ?GetComputeShader@SAnonymousShader@D3DX11Effects@@UEAAJIPEAPEAUID3D11ComputeShader@@@Z 0000000180044830 f   effects11:EffectReflection.obj
 0001:00043850       ?GetInputSignatureElementDesc@SAnonymousShader@D3DX11Effects@@UEAAJIIPEAU_D3D11_SIGNATURE_PARAMETER_DESC@@@Z 0000000180044850 f   effects11:EffectReflection.obj
 0001:00043870       ?GetOutputSignatureElementDesc@SAnonymousShader@D3DX11Effects@@UEAAJIIPEAU_D3D11_SIGNATURE_PARAMETER_DESC@@@Z 0000000180044870 f   effects11:EffectReflection.obj
 0001:00043890       ?GetPatchConstantSignatureElementDesc@SAnonymousShader@D3DX11Effects@@UEAAJIIPEAU_D3D11_SIGNATURE_PARAMETER_DESC@@@Z 0000000180044890 f   effects11:EffectReflection.obj
 0001:000438b0       ?GetDesc@SAnonymousShader@D3DX11Effects@@UEAAJPEAU_D3DX11_EFFECT_TYPE_DESC@@@Z 00000001800448b0 f   effects11:EffectReflection.obj
 0001:000439b0       ?GetMemberTypeByIndex@SAnonymousShader@D3DX11Effects@@UEAAPEAUID3DX11EffectType@@I@Z 00000001800449b0 f   effects11:EffectReflection.obj
 0001:000439c0       ?GetMemberTypeByName@SAnonymousShader@D3DX11Effects@@UEAAPEAUID3DX11EffectType@@PEBD@Z 00000001800449c0 f   effects11:EffectReflection.obj
 0001:000439d0       ?GetMemberTypeBySemantic@SAnonymousShader@D3DX11Effects@@UEAAPEAUID3DX11EffectType@@PEBD@Z 00000001800449d0 f   effects11:EffectReflection.obj
 0001:000439e0       ?GetMemberName@SAnonymousShader@D3DX11Effects@@UEAAPEBDI@Z 00000001800449e0 f   effects11:EffectReflection.obj
 0001:000439f0       ?GetMemberSemantic@SAnonymousShader@D3DX11Effects@@UEAAPEBDI@Z 00000001800449f0 f   effects11:EffectReflection.obj
 0001:00043a00       ?IsValid@SConstantBuffer@D3DX11Effects@@UEAAHXZ 0000000180044a00 f   effects11:EffectReflection.obj
 0001:00043a10       ?GetType@SConstantBuffer@D3DX11Effects@@UEAAPEAUID3DX11EffectType@@XZ 0000000180044a10 f   effects11:EffectReflection.obj
 0001:00043a20       ?GetDesc@SConstantBuffer@D3DX11Effects@@UEAAJPEAU_D3DX11_EFFECT_VARIABLE_DESC@@@Z 0000000180044a20 f   effects11:EffectReflection.obj
 0001:00043a60       ?GetAnnotationByIndex@SConstantBuffer@D3DX11Effects@@UEAAPEAUID3DX11EffectVariable@@I@Z 0000000180044a60 f   effects11:EffectReflection.obj
 0001:00043a80       ?GetAnnotationByName@SConstantBuffer@D3DX11Effects@@UEAAPEAUID3DX11EffectVariable@@PEBD@Z 0000000180044a80 f   effects11:EffectReflection.obj
 0001:00043b00       ?GetElement@SConstantBuffer@D3DX11Effects@@UEAAPEAUID3DX11EffectVariable@@I@Z 0000000180044b00 f   effects11:EffectReflection.obj
 0001:00043b10       ?GetParentConstantBuffer@SConstantBuffer@D3DX11Effects@@UEAAPEAUID3DX11EffectConstantBuffer@@XZ 0000000180044b10 f   effects11:EffectReflection.obj
 0001:00043b20       ?AsConstantBuffer@SConstantBuffer@D3DX11Effects@@UEAAPEAUID3DX11EffectConstantBuffer@@XZ 0000000180044b20 f   effects11:EffectReflection.obj
 0001:00043b30       ?GetDesc@SConstantBuffer@D3DX11Effects@@UEAAJPEAU_D3DX11_EFFECT_TYPE_DESC@@@Z 0000000180044b30 f   effects11:EffectReflection.obj
 0001:00043bd0       ?GetMemberTypeByIndex@SConstantBuffer@D3DX11Effects@@UEAAPEAUID3DX11EffectType@@I@Z 0000000180044bd0 f   effects11:EffectReflection.obj
 0001:00043c10       ?GetMemberTypeByName@SConstantBuffer@D3DX11Effects@@UEAAPEAUID3DX11EffectType@@PEBD@Z 0000000180044c10 f   effects11:EffectReflection.obj
 0001:00043c40       ?GetMemberTypeBySemantic@SConstantBuffer@D3DX11Effects@@UEAAPEAUID3DX11EffectType@@PEBD@Z 0000000180044c40 f   effects11:EffectReflection.obj
 0001:00043c70       ?GetMemberName@SConstantBuffer@D3DX11Effects@@UEAAPEBDI@Z 0000000180044c70 f   effects11:EffectReflection.obj
 0001:00043ca0       ?GetMemberSemantic@SConstantBuffer@D3DX11Effects@@UEAAPEBDI@Z 0000000180044ca0 f   effects11:EffectReflection.obj
 0001:00043cd0       ?GetRawValue@SConstantBuffer@D3DX11Effects@@UEAAJPEAXII@Z 0000000180044cd0 f   effects11:EffectReflection.obj
 0001:00043d00       ?ClonedSingle@SConstantBuffer@D3DX11Effects@@QEBA_NXZ 0000000180044d00 f   effects11:EffectReflection.obj
 0001:00043d20       ?SetConstantBuffer@SConstantBuffer@D3DX11Effects@@UEAAJPEAUID3D11Buffer@@@Z 0000000180044d20 f   effects11:EffectReflection.obj
 0001:00043dd0       ?GetConstantBuffer@SConstantBuffer@D3DX11Effects@@UEAAJPEAPEAUID3D11Buffer@@@Z 0000000180044dd0 f   effects11:EffectReflection.obj
 0001:00043e10       ?UndoSetConstantBuffer@SConstantBuffer@D3DX11Effects@@UEAAJXZ 0000000180044e10 f   effects11:EffectReflection.obj
 0001:00043ec0       ?SetTextureBuffer@SConstantBuffer@D3DX11Effects@@UEAAJPEAUID3D11ShaderResourceView@@@Z 0000000180044ec0 f   effects11:EffectReflection.obj
 0001:00043f90       ?GetTextureBuffer@SConstantBuffer@D3DX11Effects@@UEAAJPEAPEAUID3D11ShaderResourceView@@@Z 0000000180044f90 f   effects11:EffectReflection.obj
 0001:00043fd0       ?UndoSetTextureBuffer@SConstantBuffer@D3DX11Effects@@UEAAJXZ 0000000180044fd0 f   effects11:EffectReflection.obj
 0001:00044090       ?IsValid@SPassBlock@D3DX11Effects@@UEAAHXZ 0000000180045090 f   effects11:EffectReflection.obj
 0001:000440b0       ?GetDesc@SPassBlock@D3DX11Effects@@UEAAJPEAU_D3DX11_PASS_DESC@@@Z 00000001800450b0 f   effects11:EffectReflection.obj
 0001:000441d0       ?GetAnnotationByIndex@SPassBlock@D3DX11Effects@@UEAAPEAUID3DX11EffectVariable@@I@Z 00000001800451d0 f   effects11:EffectReflection.obj
 0001:000441f0       ?GetAnnotationByName@SPassBlock@D3DX11Effects@@UEAAPEAUID3DX11EffectVariable@@PEBD@Z 00000001800451f0 f   effects11:EffectReflection.obj
 0001:00044280       ?Apply@SPassBlock@D3DX11Effects@@UEAAJIPEAUID3D11DeviceContext@@@Z 0000000180045280 f   effects11:EffectReflection.obj
 0001:000442c0       ?ComputeStateBlockMask@SPassBlock@D3DX11Effects@@UEAAJPEAU_D3DX11_STATE_BLOCK_MASK@@@Z 00000001800452c0 f   effects11:EffectReflection.obj
 0001:00044530       ?IsValid@STechnique@D3DX11Effects@@UEAAHXZ 0000000180045530 f   effects11:EffectReflection.obj
 0001:000445b0       ?GetDesc@STechnique@D3DX11Effects@@UEAAJPEAU_D3DX11_TECHNIQUE_DESC@@@Z 00000001800455b0 f   effects11:EffectReflection.obj
 0001:000445e0       ?GetAnnotationByIndex@STechnique@D3DX11Effects@@UEAAPEAUID3DX11EffectVariable@@I@Z 00000001800455e0 f   effects11:EffectReflection.obj
 0001:00044600       ?GetAnnotationByName@STechnique@D3DX11Effects@@UEAAPEAUID3DX11EffectVariable@@PEBD@Z 0000000180045600 f   effects11:EffectReflection.obj
 0001:00044680       ?GetPassByIndex@STechnique@D3DX11Effects@@UEAAPEAUID3DX11EffectPass@@I@Z 0000000180045680 f   effects11:EffectReflection.obj
 0001:000446a0       ?GetPassByName@STechnique@D3DX11Effects@@UEAAPEAUID3DX11EffectPass@@PEBD@Z 00000001800456a0 f   effects11:EffectReflection.obj
 0001:00044740       ?ComputeStateBlockMask@STechnique@D3DX11Effects@@UEAAJPEAU_D3DX11_STATE_BLOCK_MASK@@@Z 0000000180045740 f   effects11:EffectReflection.obj
 0001:000447d0       ?IsValid@SGroup@D3DX11Effects@@UEAAHXZ 00000001800457d0 f   effects11:EffectReflection.obj
 0001:00044860       ?GetDesc@SGroup@D3DX11Effects@@UEAAJPEAU_D3DX11_GROUP_DESC@@@Z 0000000180045860 f   effects11:EffectReflection.obj
 0001:00044890       ?GetAnnotationByIndex@SGroup@D3DX11Effects@@UEAAPEAUID3DX11EffectVariable@@I@Z 0000000180045890 f   effects11:EffectReflection.obj
 0001:000448b0       ?GetAnnotationByName@SGroup@D3DX11Effects@@UEAAPEAUID3DX11EffectVariable@@PEBD@Z 00000001800458b0 f   effects11:EffectReflection.obj
 0001:00044930       ?GetTechniqueByIndex@SGroup@D3DX11Effects@@UEAAPEAUID3DX11EffectTechnique@@I@Z 0000000180045930 f   effects11:EffectReflection.obj
 0001:00044950       ?GetTechniqueByName@SGroup@D3DX11Effects@@UEAAPEAUID3DX11EffectTechnique@@PEBD@Z 0000000180045950 f   effects11:EffectReflection.obj
 0001:000449e0       ?GetDevice@CEffect@D3DX11Effects@@UEAAJPEAPEAUID3D11Device@@@Z 00000001800459e0 f   effects11:EffectReflection.obj
 0001:00044a30       ?GetDesc@CEffect@D3DX11Effects@@UEAAJPEAU_D3DX11_EFFECT_DESC@@@Z 0000000180045a30 f   effects11:EffectReflection.obj
 0001:00044a70       ?GetConstantBufferByIndex@CEffect@D3DX11Effects@@UEAAPEAUID3DX11EffectConstantBuffer@@I@Z 0000000180045a70 f   effects11:EffectReflection.obj
 0001:00044a90       ?GetConstantBufferByName@CEffect@D3DX11Effects@@UEAAPEAUID3DX11EffectConstantBuffer@@PEBD@Z 0000000180045a90 f   effects11:EffectReflection.obj
 0001:00044b30       ?GetVariableByIndex@CEffect@D3DX11Effects@@UEAAPEAUID3DX11EffectVariable@@I@Z 0000000180045b30 f   effects11:EffectReflection.obj
 0001:00044b50       ?GetVariableByName@CEffect@D3DX11Effects@@UEAAPEAUID3DX11EffectVariable@@PEBD@Z 0000000180045b50 f   effects11:EffectReflection.obj
 0001:00044bf0       ?GetVariableBySemantic@CEffect@D3DX11Effects@@UEAAPEAUID3DX11EffectVariable@@PEBD@Z 0000000180045bf0 f   effects11:EffectReflection.obj
 0001:00044ca0       ?GetTechniqueByIndex@CEffect@D3DX11Effects@@UEAAPEAUID3DX11EffectTechnique@@I@Z 0000000180045ca0 f   effects11:EffectReflection.obj
 0001:00044cf0       ?GetClassLinkage@CEffect@D3DX11Effects@@UEAAPEAUID3D11ClassLinkage@@XZ 0000000180045cf0 f   effects11:EffectReflection.obj
 0001:00044d30       ?GetGroupByIndex@CEffect@D3DX11Effects@@UEAAPEAUID3DX11EffectGroup@@I@Z 0000000180045d30 f   effects11:EffectReflection.obj
 0001:00044d50       ?GetGroupByName@CEffect@D3DX11Effects@@UEAAPEAUID3DX11EffectGroup@@PEBD@Z 0000000180045d50 f   effects11:EffectReflection.obj
 0001:00044e10       ??A?$CEffectVector@PEAUSSingleElementType@D3DX11Effects@@@@QEAAAEAPEAUSSingleElementType@D3DX11Effects@@I@Z 0000000180045e10 f i effects11:EffectReflection.obj
 0001:00044e20       ?GetSize@?$CEffectVector@PEAUSSingleElementType@D3DX11Effects@@@@QEBAIXZ 0000000180045e20 f i effects11:EffectReflection.obj
 0001:00044e30       ?Reserve@?$CEffectVector@PEAUSSingleElementType@D3DX11Effects@@@@IEAAJI@Z 0000000180045e30 f i effects11:EffectReflection.obj
 0001:00044ee0       ?AsScalar@?$TUncastableVariable@UID3DX11EffectShaderVariable@@@D3DX11Effects@@UEAAPEAUID3DX11EffectScalarVariable@@XZ 0000000180045ee0 f i effects11:EffectReflection.obj
 0001:00044ef0       ?AsVector@?$TUncastableVariable@UID3DX11EffectShaderVariable@@@D3DX11Effects@@UEAAPEAUID3DX11EffectVectorVariable@@XZ 0000000180045ef0 f i effects11:EffectReflection.obj
 0001:00044f00       ?AsMatrix@?$TUncastableVariable@UID3DX11EffectShaderVariable@@@D3DX11Effects@@UEAAPEAUID3DX11EffectMatrixVariable@@XZ 0000000180045f00 f i effects11:EffectReflection.obj
 0001:00044f10       ?AsString@?$TUncastableVariable@UID3DX11EffectShaderVariable@@@D3DX11Effects@@UEAAPEAUID3DX11EffectStringVariable@@XZ 0000000180045f10 f i effects11:EffectReflection.obj
 0001:00044f20       ?AsClassInstance@?$TUncastableVariable@UID3DX11EffectShaderVariable@@@D3DX11Effects@@UEAAPEAUID3DX11EffectClassInstanceVariable@@XZ 0000000180045f20 f i effects11:EffectReflection.obj
 0001:00044f30       ?AsInterface@?$TUncastableVariable@UID3DX11EffectShaderVariable@@@D3DX11Effects@@UEAAPEAUID3DX11EffectInterfaceVariable@@XZ 0000000180045f30 f i effects11:EffectReflection.obj
 0001:00044f40       ?AsShaderResource@?$TUncastableVariable@UID3DX11EffectShaderVariable@@@D3DX11Effects@@UEAAPEAUID3DX11EffectShaderResourceVariable@@XZ 0000000180045f40 f i effects11:EffectReflection.obj
 0001:00044f50       ?AsUnorderedAccessView@?$TUncastableVariable@UID3DX11EffectShaderVariable@@@D3DX11Effects@@UEAAPEAUID3DX11EffectUnorderedAccessViewVariable@@XZ 0000000180045f50 f i effects11:EffectReflection.obj
 0001:00044f60       ?AsRenderTargetView@?$TUncastableVariable@UID3DX11EffectShaderVariable@@@D3DX11Effects@@UEAAPEAUID3DX11EffectRenderTargetViewVariable@@XZ 0000000180045f60 f i effects11:EffectReflection.obj
 0001:00044f70       ?AsDepthStencilView@?$TUncastableVariable@UID3DX11EffectShaderVariable@@@D3DX11Effects@@UEAAPEAUID3DX11EffectDepthStencilViewVariable@@XZ 0000000180045f70 f i effects11:EffectReflection.obj
 0001:00044f80       ?AsConstantBuffer@?$TUncastableVariable@UID3DX11EffectShaderVariable@@@D3DX11Effects@@UEAAPEAUID3DX11EffectConstantBuffer@@XZ 0000000180045f80 f i effects11:EffectReflection.obj
 0001:00044f90       ?AsShader@?$TUncastableVariable@UID3DX11EffectShaderVariable@@@D3DX11Effects@@UEAAPEAUID3DX11EffectShaderVariable@@XZ 0000000180045f90 f i effects11:EffectReflection.obj
 0001:00044fa0       ?AsBlend@?$TUncastableVariable@UID3DX11EffectShaderVariable@@@D3DX11Effects@@UEAAPEAUID3DX11EffectBlendVariable@@XZ 0000000180045fa0 f i effects11:EffectReflection.obj
 0001:00044fb0       ?AsDepthStencil@?$TUncastableVariable@UID3DX11EffectShaderVariable@@@D3DX11Effects@@UEAAPEAUID3DX11EffectDepthStencilVariable@@XZ 0000000180045fb0 f i effects11:EffectReflection.obj
 0001:00044fc0       ?AsRasterizer@?$TUncastableVariable@UID3DX11EffectShaderVariable@@@D3DX11Effects@@UEAAPEAUID3DX11EffectRasterizerVariable@@XZ 0000000180045fc0 f i effects11:EffectReflection.obj
 0001:00044fd0       ?AsSampler@?$TUncastableVariable@UID3DX11EffectShaderVariable@@@D3DX11Effects@@UEAAPEAUID3DX11EffectSamplerVariable@@XZ 0000000180045fd0 f i effects11:EffectReflection.obj
 0001:00044fe0       ??$GetVariableByIndexHelper@USGlobalVariable@D3DX11Effects@@@D3DX11Effects@@YAHIIPEAUSGlobalVariable@0@PEAEPEAPEAU10@PEAPEAX@Z 0000000180045fe0 f i effects11:EffectReflection.obj
 0001:00045020       ??$GetVariableByNameHelper@USGlobalVariable@D3DX11Effects@@@D3DX11Effects@@YAHPEBDIPEAUSGlobalVariable@0@PEAEPEAPEAU10@PEAPEAXPEAI@Z 0000000180046020 f i effects11:EffectReflection.obj
 0001:00045150       ??$GetVariableBySemanticHelper@USGlobalVariable@D3DX11Effects@@@D3DX11Effects@@YAHPEBDIPEAUSGlobalVariable@0@PEAEPEAPEAU10@PEAPEAXPEAI@Z 0000000180046150 f i effects11:EffectReflection.obj
 0001:00045210       ??$GetShaderDescHelper@$05@SPassBlock@D3DX11Effects@@QEAAJPEAU_D3DX11_PASS_SHADER_DESC@@@Z 0000000180046210 f i effects11:EffectReflection.obj
 0001:00045440       ??$GetShaderDescHelper@$04@SPassBlock@D3DX11Effects@@QEAAJPEAU_D3DX11_PASS_SHADER_DESC@@@Z 0000000180046440 f i effects11:EffectReflection.obj
 0001:00045670       ??$GetShaderDescHelper@$06@SPassBlock@D3DX11Effects@@QEAAJPEAU_D3DX11_PASS_SHADER_DESC@@@Z 0000000180046670 f i effects11:EffectReflection.obj
 0001:000458a0       ??$GetShaderDescHelper@$0BN@@SPassBlock@D3DX11Effects@@QEAAJPEAU_D3DX11_PASS_SHADER_DESC@@@Z 00000001800468a0 f i effects11:EffectReflection.obj
 0001:00045ad0       ??$GetShaderDescHelper@$0BO@@SPassBlock@D3DX11Effects@@QEAAJPEAU_D3DX11_PASS_SHADER_DESC@@@Z 0000000180046ad0 f i effects11:EffectReflection.obj
 0001:00045d00       ??$GetShaderDescHelper@$0BM@@SPassBlock@D3DX11Effects@@QEAAJPEAU_D3DX11_PASS_SHADER_DESC@@@Z 0000000180046d00 f i effects11:EffectReflection.obj
 0001:00045f30       ?GetDesc@SSingleElementType@D3DX11Effects@@UEAAJPEAU_D3DX11_EFFECT_TYPE_DESC@@@Z 0000000180046f30 f i effects11:EffectReflection.obj
 0001:00045f40       ??0?$TEffectInvalidVariable@UID3DX11EffectScalarVariable@@@D3DX11Effects@@QEAA@XZ 0000000180046f40 f i effects11:EffectReflection.obj
 0001:00045f50       ?IsValid@?$TEffectInvalidVariable@UID3DX11EffectScalarVariable@@@D3DX11Effects@@UEAAHXZ 0000000180046f50 f i effects11:EffectReflection.obj
 0001:00045f60       ?GetType@?$TEffectInvalidVariable@UID3DX11EffectScalarVariable@@@D3DX11Effects@@UEAAPEAUID3DX11EffectType@@XZ 0000000180046f60 f i effects11:EffectReflection.obj
 0001:00045f70       ?GetDesc@?$TEffectInvalidVariable@UID3DX11EffectScalarVariable@@@D3DX11Effects@@UEAAJPEAU_D3DX11_EFFECT_VARIABLE_DESC@@@Z 0000000180046f70 f i effects11:EffectReflection.obj
 0001:00045f80       ?GetAnnotationByIndex@?$TEffectInvalidVariable@UID3DX11EffectScalarVariable@@@D3DX11Effects@@UEAAPEAUID3DX11EffectVariable@@I@Z 0000000180046f80 f i effects11:EffectReflection.obj
 0001:00045f90       ?GetAnnotationByName@?$TEffectInvalidVariable@UID3DX11EffectScalarVariable@@@D3DX11Effects@@UEAAPEAUID3DX11EffectVariable@@PEBD@Z 0000000180046f90 f i effects11:EffectReflection.obj
 0001:00045fa0       ?GetMemberByIndex@?$TEffectInvalidVariable@UID3DX11EffectScalarVariable@@@D3DX11Effects@@UEAAPEAUID3DX11EffectVariable@@I@Z 0000000180046fa0 f i effects11:EffectReflection.obj
 0001:00045fb0       ?GetMemberByName@?$TEffectInvalidVariable@UID3DX11EffectScalarVariable@@@D3DX11Effects@@UEAAPEAUID3DX11EffectVariable@@PEBD@Z 0000000180046fb0 f i effects11:EffectReflection.obj
 0001:00045fc0       ?GetMemberBySemantic@?$TEffectInvalidVariable@UID3DX11EffectScalarVariable@@@D3DX11Effects@@UEAAPEAUID3DX11EffectVariable@@PEBD@Z 0000000180046fc0 f i effects11:EffectReflection.obj
 0001:00045fd0       ?GetElement@?$TEffectInvalidVariable@UID3DX11EffectScalarVariable@@@D3DX11Effects@@UEAAPEAUID3DX11EffectVariable@@I@Z 0000000180046fd0 f i effects11:EffectReflection.obj
 0001:00045fe0       ?GetParentConstantBuffer@?$TEffectInvalidVariable@UID3DX11EffectScalarVariable@@@D3DX11Effects@@UEAAPEAUID3DX11EffectConstantBuffer@@XZ 0000000180046fe0 f i effects11:EffectReflection.obj
 0001:00045ff0       ?AsScalar@?$TEffectInvalidVariable@UID3DX11EffectScalarVariable@@@D3DX11Effects@@UEAAPEAUID3DX11EffectScalarVariable@@XZ 0000000180046ff0 f i effects11:EffectReflection.obj
 0001:00046000       ?AsVector@?$TEffectInvalidVariable@UID3DX11EffectScalarVariable@@@D3DX11Effects@@UEAAPEAUID3DX11EffectVectorVariable@@XZ 0000000180047000 f i effects11:EffectReflection.obj
 0001:00046010       ?AsMatrix@?$TEffectInvalidVariable@UID3DX11EffectScalarVariable@@@D3DX11Effects@@UEAAPEAUID3DX11EffectMatrixVariable@@XZ 0000000180047010 f i effects11:EffectReflection.obj
 0001:00046020       ?AsString@?$TEffectInvalidVariable@UID3DX11EffectScalarVariable@@@D3DX11Effects@@UEAAPEAUID3DX11EffectStringVariable@@XZ 0000000180047020 f i effects11:EffectReflection.obj
 0001:00046030       ?AsClassInstance@?$TEffectInvalidVariable@UID3DX11EffectScalarVariable@@@D3DX11Effects@@UEAAPEAUID3DX11EffectClassInstanceVariable@@XZ 0000000180047030 f i effects11:EffectReflection.obj
 0001:00046040       ?AsInterface@?$TEffectInvalidVariable@UID3DX11EffectScalarVariable@@@D3DX11Effects@@UEAAPEAUID3DX11EffectInterfaceVariable@@XZ 0000000180047040 f i effects11:EffectReflection.obj
 0001:00046050       ?AsShaderResource@?$TEffectInvalidVariable@UID3DX11EffectScalarVariable@@@D3DX11Effects@@UEAAPEAUID3DX11EffectShaderResourceVariable@@XZ 0000000180047050 f i effects11:EffectReflection.obj
 0001:00046060       ?AsUnorderedAccessView@?$TEffectInvalidVariable@UID3DX11EffectScalarVariable@@@D3DX11Effects@@UEAAPEAUID3DX11EffectUnorderedAccessViewVariable@@XZ 0000000180047060 f i effects11:EffectReflection.obj
 0001:00046070       ?AsRenderTargetView@?$TEffectInvalidVariable@UID3DX11EffectScalarVariable@@@D3DX11Effects@@UEAAPEAUID3DX11EffectRenderTargetViewVariable@@XZ 0000000180047070 f i effects11:EffectReflection.obj
 0001:00046080       ?AsDepthStencilView@?$TEffectInvalidVariable@UID3DX11EffectScalarVariable@@@D3DX11Effects@@UEAAPEAUID3DX11EffectDepthStencilViewVariable@@XZ 0000000180047080 f i effects11:EffectReflection.obj
 0001:00046090       ?AsConstantBuffer@?$TEffectInvalidVariable@UID3DX11EffectScalarVariable@@@D3DX11Effects@@UEAAPEAUID3DX11EffectConstantBuffer@@XZ 0000000180047090 f i effects11:EffectReflection.obj
 0001:000460a0       ?AsShader@?$TEffectInvalidVariable@UID3DX11EffectScalarVariable@@@D3DX11Effects@@UEAAPEAUID3DX11EffectShaderVariable@@XZ 00000001800470a0 f i effects11:EffectReflection.obj
 0001:000460b0       ?AsBlend@?$TEffectInvalidVariable@UID3DX11EffectScalarVariable@@@D3DX11Effects@@UEAAPEAUID3DX11EffectBlendVariable@@XZ 00000001800470b0 f i effects11:EffectReflection.obj
 0001:000460c0       ?AsDepthStencil@?$TEffectInvalidVariable@UID3DX11EffectScalarVariable@@@D3DX11Effects@@UEAAPEAUID3DX11EffectDepthStencilVariable@@XZ 00000001800470c0 f i effects11:EffectReflection.obj
 0001:000460d0       ?AsRasterizer@?$TEffectInvalidVariable@UID3DX11EffectScalarVariable@@@D3DX11Effects@@UEAAPEAUID3DX11EffectRasterizerVariable@@XZ 00000001800470d0 f i effects11:EffectReflection.obj
 0001:000460e0       ?AsSampler@?$TEffectInvalidVariable@UID3DX11EffectScalarVariable@@@D3DX11Effects@@UEAAPEAUID3DX11EffectSamplerVariable@@XZ 00000001800470e0 f i effects11:EffectReflection.obj
 0001:000460f0       ?SetRawValue@?$TEffectInvalidVariable@UID3DX11EffectScalarVariable@@@D3DX11Effects@@UEAAJPEBXII@Z 00000001800470f0 f i effects11:EffectReflection.obj
 0001:00046100       ?GetRawValue@?$TEffectInvalidVariable@UID3DX11EffectScalarVariable@@@D3DX11Effects@@UEAAJPEAXII@Z 0000000180047100 f i effects11:EffectReflection.obj
 0001:00046110       ??0?$TEffectInvalidVariable@UID3DX11EffectVectorVariable@@@D3DX11Effects@@QEAA@XZ 0000000180047110 f i effects11:EffectReflection.obj
 0001:00046120       ?IsValid@?$TEffectInvalidVariable@UID3DX11EffectVectorVariable@@@D3DX11Effects@@UEAAHXZ 0000000180047120 f i effects11:EffectReflection.obj
 0001:00046130       ?GetType@?$TEffectInvalidVariable@UID3DX11EffectVectorVariable@@@D3DX11Effects@@UEAAPEAUID3DX11EffectType@@XZ 0000000180047130 f i effects11:EffectReflection.obj
 0001:00046140       ?GetDesc@?$TEffectInvalidVariable@UID3DX11EffectVectorVariable@@@D3DX11Effects@@UEAAJPEAU_D3DX11_EFFECT_VARIABLE_DESC@@@Z 0000000180047140 f i effects11:EffectReflection.obj
 0001:00046150       ?GetAnnotationByIndex@?$TEffectInvalidVariable@UID3DX11EffectVectorVariable@@@D3DX11Effects@@UEAAPEAUID3DX11EffectVariable@@I@Z 0000000180047150 f i effects11:EffectReflection.obj
 0001:00046160       ?GetAnnotationByName@?$TEffectInvalidVariable@UID3DX11EffectVectorVariable@@@D3DX11Effects@@UEAAPEAUID3DX11EffectVariable@@PEBD@Z 0000000180047160 f i effects11:EffectReflection.obj
 0001:00046170       ?GetMemberByIndex@?$TEffectInvalidVariable@UID3DX11EffectVectorVariable@@@D3DX11Effects@@UEAAPEAUID3DX11EffectVariable@@I@Z 0000000180047170 f i effects11:EffectReflection.obj
 0001:00046180       ?GetMemberByName@?$TEffectInvalidVariable@UID3DX11EffectVectorVariable@@@D3DX11Effects@@UEAAPEAUID3DX11EffectVariable@@PEBD@Z 0000000180047180 f i effects11:EffectReflection.obj
 0001:00046190       ?GetMemberBySemantic@?$TEffectInvalidVariable@UID3DX11EffectVectorVariable@@@D3DX11Effects@@UEAAPEAUID3DX11EffectVariable@@PEBD@Z 0000000180047190 f i effects11:EffectReflection.obj
 0001:000461a0       ?GetElement@?$TEffectInvalidVariable@UID3DX11EffectVectorVariable@@@D3DX11Effects@@UEAAPEAUID3DX11EffectVariable@@I@Z 00000001800471a0 f i effects11:EffectReflection.obj
 0001:000461b0       ?GetParentConstantBuffer@?$TEffectInvalidVariable@UID3DX11EffectVectorVariable@@@D3DX11Effects@@UEAAPEAUID3DX11EffectConstantBuffer@@XZ 00000001800471b0 f i effects11:EffectReflection.obj
 0001:000461c0       ?AsScalar@?$TEffectInvalidVariable@UID3DX11EffectVectorVariable@@@D3DX11Effects@@UEAAPEAUID3DX11EffectScalarVariable@@XZ 00000001800471c0 f i effects11:EffectReflection.obj
 0001:000461d0       ?AsVector@?$TEffectInvalidVariable@UID3DX11EffectVectorVariable@@@D3DX11Effects@@UEAAPEAUID3DX11EffectVectorVariable@@XZ 00000001800471d0 f i effects11:EffectReflection.obj
 0001:000461e0       ?AsMatrix@?$TEffectInvalidVariable@UID3DX11EffectVectorVariable@@@D3DX11Effects@@UEAAPEAUID3DX11EffectMatrixVariable@@XZ 00000001800471e0 f i effects11:EffectReflection.obj
 0001:000461f0       ?AsString@?$TEffectInvalidVariable@UID3DX11EffectVectorVariable@@@D3DX11Effects@@UEAAPEAUID3DX11EffectStringVariable@@XZ 00000001800471f0 f i effects11:EffectReflection.obj
 0001:00046200       ?AsClassInstance@?$TEffectInvalidVariable@UID3DX11EffectVectorVariable@@@D3DX11Effects@@UEAAPEAUID3DX11EffectClassInstanceVariable@@XZ 0000000180047200 f i effects11:EffectReflection.obj
 0001:00046210       ?AsInterface@?$TEffectInvalidVariable@UID3DX11EffectVectorVariable@@@D3DX11Effects@@UEAAPEAUID3DX11EffectInterfaceVariable@@XZ 0000000180047210 f i effects11:EffectReflection.obj
 0001:00046220       ?AsShaderResource@?$TEffectInvalidVariable@UID3DX11EffectVectorVariable@@@D3DX11Effects@@UEAAPEAUID3DX11EffectShaderResourceVariable@@XZ 0000000180047220 f i effects11:EffectReflection.obj
 0001:00046230       ?AsUnorderedAccessView@?$TEffectInvalidVariable@UID3DX11EffectVectorVariable@@@D3DX11Effects@@UEAAPEAUID3DX11EffectUnorderedAccessViewVariable@@XZ 0000000180047230 f i effects11:EffectReflection.obj
 0001:00046240       ?AsRenderTargetView@?$TEffectInvalidVariable@UID3DX11EffectVectorVariable@@@D3DX11Effects@@UEAAPEAUID3DX11EffectRenderTargetViewVariable@@XZ 0000000180047240 f i effects11:EffectReflection.obj
 0001:00046250       ?AsDepthStencilView@?$TEffectInvalidVariable@UID3DX11EffectVectorVariable@@@D3DX11Effects@@UEAAPEAUID3DX11EffectDepthStencilViewVariable@@XZ 0000000180047250 f i effects11:EffectReflection.obj
 0001:00046260       ?AsConstantBuffer@?$TEffectInvalidVariable@UID3DX11EffectVectorVariable@@@D3DX11Effects@@UEAAPEAUID3DX11EffectConstantBuffer@@XZ 0000000180047260 f i effects11:EffectReflection.obj
 0001:00046270       ?AsShader@?$TEffectInvalidVariable@UID3DX11EffectVectorVariable@@@D3DX11Effects@@UEAAPEAUID3DX11EffectShaderVariable@@XZ 0000000180047270 f i effects11:EffectReflection.obj
 0001:00046280       ?AsBlend@?$TEffectInvalidVariable@UID3DX11EffectVectorVariable@@@D3DX11Effects@@UEAAPEAUID3DX11EffectBlendVariable@@XZ 0000000180047280 f i effects11:EffectReflection.obj
 0001:00046290       ?AsDepthStencil@?$TEffectInvalidVariable@UID3DX11EffectVectorVariable@@@D3DX11Effects@@UEAAPEAUID3DX11EffectDepthStencilVariable@@XZ 0000000180047290 f i effects11:EffectReflection.obj
 0001:000462a0       ?AsRasterizer@?$TEffectInvalidVariable@UID3DX11EffectVectorVariable@@@D3DX11Effects@@UEAAPEAUID3DX11EffectRasterizerVariable@@XZ 00000001800472a0 f i effects11:EffectReflection.obj
 0001:000462b0       ?AsSampler@?$TEffectInvalidVariable@UID3DX11EffectVectorVariable@@@D3DX11Effects@@UEAAPEAUID3DX11EffectSamplerVariable@@XZ 00000001800472b0 f i effects11:EffectReflection.obj
 0001:000462c0       ?SetRawValue@?$TEffectInvalidVariable@UID3DX11EffectVectorVariable@@@D3DX11Effects@@UEAAJPEBXII@Z 00000001800472c0 f i effects11:EffectReflection.obj
 0001:000462d0       ?GetRawValue@?$TEffectInvalidVariable@UID3DX11EffectVectorVariable@@@D3DX11Effects@@UEAAJPEAXII@Z 00000001800472d0 f i effects11:EffectReflection.obj
 0001:000462e0       ??0?$TEffectInvalidVariable@UID3DX11EffectMatrixVariable@@@D3DX11Effects@@QEAA@XZ 00000001800472e0 f i effects11:EffectReflection.obj
 0001:000462f0       ?IsValid@?$TEffectInvalidVariable@UID3DX11EffectMatrixVariable@@@D3DX11Effects@@UEAAHXZ 00000001800472f0 f i effects11:EffectReflection.obj
 0001:00046300       ?GetType@?$TEffectInvalidVariable@UID3DX11EffectMatrixVariable@@@D3DX11Effects@@UEAAPEAUID3DX11EffectType@@XZ 0000000180047300 f i effects11:EffectReflection.obj
 0001:00046310       ?GetDesc@?$TEffectInvalidVariable@UID3DX11EffectMatrixVariable@@@D3DX11Effects@@UEAAJPEAU_D3DX11_EFFECT_VARIABLE_DESC@@@Z 0000000180047310 f i effects11:EffectReflection.obj
 0001:00046320       ?GetAnnotationByIndex@?$TEffectInvalidVariable@UID3DX11EffectMatrixVariable@@@D3DX11Effects@@UEAAPEAUID3DX11EffectVariable@@I@Z 0000000180047320 f i effects11:EffectReflection.obj
 0001:00046330       ?GetAnnotationByName@?$TEffectInvalidVariable@UID3DX11EffectMatrixVariable@@@D3DX11Effects@@UEAAPEAUID3DX11EffectVariable@@PEBD@Z 0000000180047330 f i effects11:EffectReflection.obj
 0001:00046340       ?GetMemberByIndex@?$TEffectInvalidVariable@UID3DX11EffectMatrixVariable@@@D3DX11Effects@@UEAAPEAUID3DX11EffectVariable@@I@Z 0000000180047340 f i effects11:EffectReflection.obj
 0001:00046350       ?GetMemberByName@?$TEffectInvalidVariable@UID3DX11EffectMatrixVariable@@@D3DX11Effects@@UEAAPEAUID3DX11EffectVariable@@PEBD@Z 0000000180047350 f i effects11:EffectReflection.obj
 0001:00046360       ?GetMemberBySemantic@?$TEffectInvalidVariable@UID3DX11EffectMatrixVariable@@@D3DX11Effects@@UEAAPEAUID3DX11EffectVariable@@PEBD@Z 0000000180047360 f i effects11:EffectReflection.obj
 0001:00046370       ?GetElement@?$TEffectInvalidVariable@UID3DX11EffectMatrixVariable@@@D3DX11Effects@@UEAAPEAUID3DX11EffectVariable@@I@Z 0000000180047370 f i effects11:EffectReflection.obj
 0001:00046380       ?GetParentConstantBuffer@?$TEffectInvalidVariable@UID3DX11EffectMatrixVariable@@@D3DX11Effects@@UEAAPEAUID3DX11EffectConstantBuffer@@XZ 0000000180047380 f i effects11:EffectReflection.obj
 0001:00046390       ?AsScalar@?$TEffectInvalidVariable@UID3DX11EffectMatrixVariable@@@D3DX11Effects@@UEAAPEAUID3DX11EffectScalarVariable@@XZ 0000000180047390 f i effects11:EffectReflection.obj
 0001:000463a0       ?AsVector@?$TEffectInvalidVariable@UID3DX11EffectMatrixVariable@@@D3DX11Effects@@UEAAPEAUID3DX11EffectVectorVariable@@XZ 00000001800473a0 f i effects11:EffectReflection.obj
 0001:000463b0       ?AsMatrix@?$TEffectInvalidVariable@UID3DX11EffectMatrixVariable@@@D3DX11Effects@@UEAAPEAUID3DX11EffectMatrixVariable@@XZ 00000001800473b0 f i effects11:EffectReflection.obj
 0001:000463c0       ?AsString@?$TEffectInvalidVariable@UID3DX11EffectMatrixVariable@@@D3DX11Effects@@UEAAPEAUID3DX11EffectStringVariable@@XZ 00000001800473c0 f i effects11:EffectReflection.obj
 0001:000463d0       ?AsClassInstance@?$TEffectInvalidVariable@UID3DX11EffectMatrixVariable@@@D3DX11Effects@@UEAAPEAUID3DX11EffectClassInstanceVariable@@XZ 00000001800473d0 f i effects11:EffectReflection.obj
 0001:000463e0       ?AsInterface@?$TEffectInvalidVariable@UID3DX11EffectMatrixVariable@@@D3DX11Effects@@UEAAPEAUID3DX11EffectInterfaceVariable@@XZ 00000001800473e0 f i effects11:EffectReflection.obj
 0001:000463f0       ?AsShaderResource@?$TEffectInvalidVariable@UID3DX11EffectMatrixVariable@@@D3DX11Effects@@UEAAPEAUID3DX11EffectShaderResourceVariable@@XZ 00000001800473f0 f i effects11:EffectReflection.obj
 0001:00046400       ?AsUnorderedAccessView@?$TEffectInvalidVariable@UID3DX11EffectMatrixVariable@@@D3DX11Effects@@UEAAPEAUID3DX11EffectUnorderedAccessViewVariable@@XZ 0000000180047400 f i effects11:EffectReflection.obj
 0001:00046410       ?AsRenderTargetView@?$TEffectInvalidVariable@UID3DX11EffectMatrixVariable@@@D3DX11Effects@@UEAAPEAUID3DX11EffectRenderTargetViewVariable@@XZ 0000000180047410 f i effects11:EffectReflection.obj
 0001:00046420       ?AsDepthStencilView@?$TEffectInvalidVariable@UID3DX11EffectMatrixVariable@@@D3DX11Effects@@UEAAPEAUID3DX11EffectDepthStencilViewVariable@@XZ 0000000180047420 f i effects11:EffectReflection.obj
 0001:00046430       ?AsConstantBuffer@?$TEffectInvalidVariable@UID3DX11EffectMatrixVariable@@@D3DX11Effects@@UEAAPEAUID3DX11EffectConstantBuffer@@XZ 0000000180047430 f i effects11:EffectReflection.obj
 0001:00046440       ?AsShader@?$TEffectInvalidVariable@UID3DX11EffectMatrixVariable@@@D3DX11Effects@@UEAAPEAUID3DX11EffectShaderVariable@@XZ 0000000180047440 f i effects11:EffectReflection.obj
 0001:00046450       ?AsBlend@?$TEffectInvalidVariable@UID3DX11EffectMatrixVariable@@@D3DX11Effects@@UEAAPEAUID3DX11EffectBlendVariable@@XZ 0000000180047450 f i effects11:EffectReflection.obj
 0001:00046460       ?AsDepthStencil@?$TEffectInvalidVariable@UID3DX11EffectMatrixVariable@@@D3DX11Effects@@UEAAPEAUID3DX11EffectDepthStencilVariable@@XZ 0000000180047460 f i effects11:EffectReflection.obj
 0001:00046470       ?AsRasterizer@?$TEffectInvalidVariable@UID3DX11EffectMatrixVariable@@@D3DX11Effects@@UEAAPEAUID3DX11EffectRasterizerVariable@@XZ 0000000180047470 f i effects11:EffectReflection.obj
 0001:00046480       ?AsSampler@?$TEffectInvalidVariable@UID3DX11EffectMatrixVariable@@@D3DX11Effects@@UEAAPEAUID3DX11EffectSamplerVariable@@XZ 0000000180047480 f i effects11:EffectReflection.obj
 0001:00046490       ?SetRawValue@?$TEffectInvalidVariable@UID3DX11EffectMatrixVariable@@@D3DX11Effects@@UEAAJPEBXII@Z 0000000180047490 f i effects11:EffectReflection.obj
 0001:000464a0       ?GetRawValue@?$TEffectInvalidVariable@UID3DX11EffectMatrixVariable@@@D3DX11Effects@@UEAAJPEAXII@Z 00000001800474a0 f i effects11:EffectReflection.obj
 0001:000464b0       ??0?$TEffectInvalidVariable@UID3DX11EffectStringVariable@@@D3DX11Effects@@QEAA@XZ 00000001800474b0 f i effects11:EffectReflection.obj
 0001:000464c0       ?IsValid@?$TEffectInvalidVariable@UID3DX11EffectStringVariable@@@D3DX11Effects@@UEAAHXZ 00000001800474c0 f i effects11:EffectReflection.obj
 0001:000464d0       ?GetType@?$TEffectInvalidVariable@UID3DX11EffectStringVariable@@@D3DX11Effects@@UEAAPEAUID3DX11EffectType@@XZ 00000001800474d0 f i effects11:EffectReflection.obj
 0001:000464e0       ?GetDesc@?$TEffectInvalidVariable@UID3DX11EffectStringVariable@@@D3DX11Effects@@UEAAJPEAU_D3DX11_EFFECT_VARIABLE_DESC@@@Z 00000001800474e0 f i effects11:EffectReflection.obj
 0001:000464f0       ?GetAnnotationByIndex@?$TEffectInvalidVariable@UID3DX11EffectStringVariable@@@D3DX11Effects@@UEAAPEAUID3DX11EffectVariable@@I@Z 00000001800474f0 f i effects11:EffectReflection.obj
 0001:00046500       ?GetAnnotationByName@?$TEffectInvalidVariable@UID3DX11EffectStringVariable@@@D3DX11Effects@@UEAAPEAUID3DX11EffectVariable@@PEBD@Z 0000000180047500 f i effects11:EffectReflection.obj
 0001:00046510       ?GetMemberByIndex@?$TEffectInvalidVariable@UID3DX11EffectStringVariable@@@D3DX11Effects@@UEAAPEAUID3DX11EffectVariable@@I@Z 0000000180047510 f i effects11:EffectReflection.obj
 0001:00046520       ?GetMemberByName@?$TEffectInvalidVariable@UID3DX11EffectStringVariable@@@D3DX11Effects@@UEAAPEAUID3DX11EffectVariable@@PEBD@Z 0000000180047520 f i effects11:EffectReflection.obj
 0001:00046530       ?GetMemberBySemantic@?$TEffectInvalidVariable@UID3DX11EffectStringVariable@@@D3DX11Effects@@UEAAPEAUID3DX11EffectVariable@@PEBD@Z 0000000180047530 f i effects11:EffectReflection.obj
 0001:00046540       ?GetElement@?$TEffectInvalidVariable@UID3DX11EffectStringVariable@@@D3DX11Effects@@UEAAPEAUID3DX11EffectVariable@@I@Z 0000000180047540 f i effects11:EffectReflection.obj
 0001:00046550       ?GetParentConstantBuffer@?$TEffectInvalidVariable@UID3DX11EffectStringVariable@@@D3DX11Effects@@UEAAPEAUID3DX11EffectConstantBuffer@@XZ 0000000180047550 f i effects11:EffectReflection.obj
 0001:00046560       ?AsScalar@?$TEffectInvalidVariable@UID3DX11EffectStringVariable@@@D3DX11Effects@@UEAAPEAUID3DX11EffectScalarVariable@@XZ 0000000180047560 f i effects11:EffectReflection.obj
 0001:00046570       ?AsVector@?$TEffectInvalidVariable@UID3DX11EffectStringVariable@@@D3DX11Effects@@UEAAPEAUID3DX11EffectVectorVariable@@XZ 0000000180047570 f i effects11:EffectReflection.obj
 0001:00046580       ?AsMatrix@?$TEffectInvalidVariable@UID3DX11EffectStringVariable@@@D3DX11Effects@@UEAAPEAUID3DX11EffectMatrixVariable@@XZ 0000000180047580 f i effects11:EffectReflection.obj
 0001:00046590       ?AsString@?$TEffectInvalidVariable@UID3DX11EffectStringVariable@@@D3DX11Effects@@UEAAPEAUID3DX11EffectStringVariable@@XZ 0000000180047590 f i effects11:EffectReflection.obj
 0001:000465a0       ?AsClassInstance@?$TEffectInvalidVariable@UID3DX11EffectStringVariable@@@D3DX11Effects@@UEAAPEAUID3DX11EffectClassInstanceVariable@@XZ 00000001800475a0 f i effects11:EffectReflection.obj
 0001:000465b0       ?AsInterface@?$TEffectInvalidVariable@UID3DX11EffectStringVariable@@@D3DX11Effects@@UEAAPEAUID3DX11EffectInterfaceVariable@@XZ 00000001800475b0 f i effects11:EffectReflection.obj
 0001:000465c0       ?AsShaderResource@?$TEffectInvalidVariable@UID3DX11EffectStringVariable@@@D3DX11Effects@@UEAAPEAUID3DX11EffectShaderResourceVariable@@XZ 00000001800475c0 f i effects11:EffectReflection.obj
 0001:000465d0       ?AsUnorderedAccessView@?$TEffectInvalidVariable@UID3DX11EffectStringVariable@@@D3DX11Effects@@UEAAPEAUID3DX11EffectUnorderedAccessViewVariable@@XZ 00000001800475d0 f i effects11:EffectReflection.obj
 0001:000465e0       ?AsRenderTargetView@?$TEffectInvalidVariable@UID3DX11EffectStringVariable@@@D3DX11Effects@@UEAAPEAUID3DX11EffectRenderTargetViewVariable@@XZ 00000001800475e0 f i effects11:EffectReflection.obj
 0001:000465f0       ?AsDepthStencilView@?$TEffectInvalidVariable@UID3DX11EffectStringVariable@@@D3DX11Effects@@UEAAPEAUID3DX11EffectDepthStencilViewVariable@@XZ 00000001800475f0 f i effects11:EffectReflection.obj
 0001:00046600       ?AsConstantBuffer@?$TEffectInvalidVariable@UID3DX11EffectStringVariable@@@D3DX11Effects@@UEAAPEAUID3DX11EffectConstantBuffer@@XZ 0000000180047600 f i effects11:EffectReflection.obj
 0001:00046610       ?AsShader@?$TEffectInvalidVariable@UID3DX11EffectStringVariable@@@D3DX11Effects@@UEAAPEAUID3DX11EffectShaderVariable@@XZ 0000000180047610 f i effects11:EffectReflection.obj
 0001:00046620       ?AsBlend@?$TEffectInvalidVariable@UID3DX11EffectStringVariable@@@D3DX11Effects@@UEAAPEAUID3DX11EffectBlendVariable@@XZ 0000000180047620 f i effects11:EffectReflection.obj
 0001:00046630       ?AsDepthStencil@?$TEffectInvalidVariable@UID3DX11EffectStringVariable@@@D3DX11Effects@@UEAAPEAUID3DX11EffectDepthStencilVariable@@XZ 0000000180047630 f i effects11:EffectReflection.obj
 0001:00046640       ?AsRasterizer@?$TEffectInvalidVariable@UID3DX11EffectStringVariable@@@D3DX11Effects@@UEAAPEAUID3DX11EffectRasterizerVariable@@XZ 0000000180047640 f i effects11:EffectReflection.obj
 0001:00046650       ?AsSampler@?$TEffectInvalidVariable@UID3DX11EffectStringVariable@@@D3DX11Effects@@UEAAPEAUID3DX11EffectSamplerVariable@@XZ 0000000180047650 f i effects11:EffectReflection.obj
 0001:00046660       ?SetRawValue@?$TEffectInvalidVariable@UID3DX11EffectStringVariable@@@D3DX11Effects@@UEAAJPEBXII@Z 0000000180047660 f i effects11:EffectReflection.obj
 0001:00046670       ?GetRawValue@?$TEffectInvalidVariable@UID3DX11EffectStringVariable@@@D3DX11Effects@@UEAAJPEAXII@Z 0000000180047670 f i effects11:EffectReflection.obj
 0001:00046680       ??0?$TEffectInvalidVariable@UID3DX11EffectClassInstanceVariable@@@D3DX11Effects@@QEAA@XZ 0000000180047680 f i effects11:EffectReflection.obj
 0001:00046690       ?IsValid@?$TEffectInvalidVariable@UID3DX11EffectClassInstanceVariable@@@D3DX11Effects@@UEAAHXZ 0000000180047690 f i effects11:EffectReflection.obj
 0001:000466a0       ?GetType@?$TEffectInvalidVariable@UID3DX11EffectClassInstanceVariable@@@D3DX11Effects@@UEAAPEAUID3DX11EffectType@@XZ 00000001800476a0 f i effects11:EffectReflection.obj
 0001:000466b0       ?GetDesc@?$TEffectInvalidVariable@UID3DX11EffectClassInstanceVariable@@@D3DX11Effects@@UEAAJPEAU_D3DX11_EFFECT_VARIABLE_DESC@@@Z 00000001800476b0 f i effects11:EffectReflection.obj
 0001:000466c0       ?GetAnnotationByIndex@?$TEffectInvalidVariable@UID3DX11EffectClassInstanceVariable@@@D3DX11Effects@@UEAAPEAUID3DX11EffectVariable@@I@Z 00000001800476c0 f i effects11:EffectReflection.obj
 0001:000466d0       ?GetAnnotationByName@?$TEffectInvalidVariable@UID3DX11EffectClassInstanceVariable@@@D3DX11Effects@@UEAAPEAUID3DX11EffectVariable@@PEBD@Z 00000001800476d0 f i effects11:EffectReflection.obj
 0001:000466e0       ?GetMemberByIndex@?$TEffectInvalidVariable@UID3DX11EffectClassInstanceVariable@@@D3DX11Effects@@UEAAPEAUID3DX11EffectVariable@@I@Z 00000001800476e0 f i effects11:EffectReflection.obj
 0001:000466f0       ?GetMemberByName@?$TEffectInvalidVariable@UID3DX11EffectClassInstanceVariable@@@D3DX11Effects@@UEAAPEAUID3DX11EffectVariable@@PEBD@Z 00000001800476f0 f i effects11:EffectReflection.obj
 0001:00046700       ?GetMemberBySemantic@?$TEffectInvalidVariable@UID3DX11EffectClassInstanceVariable@@@D3DX11Effects@@UEAAPEAUID3DX11EffectVariable@@PEBD@Z 0000000180047700 f i effects11:EffectReflection.obj
 0001:00046710       ?GetElement@?$TEffectInvalidVariable@UID3DX11EffectClassInstanceVariable@@@D3DX11Effects@@UEAAPEAUID3DX11EffectVariable@@I@Z 0000000180047710 f i effects11:EffectReflection.obj
 0001:00046720       ?GetParentConstantBuffer@?$TEffectInvalidVariable@UID3DX11EffectClassInstanceVariable@@@D3DX11Effects@@UEAAPEAUID3DX11EffectConstantBuffer@@XZ 0000000180047720 f i effects11:EffectReflection.obj
 0001:00046730       ?AsScalar@?$TEffectInvalidVariable@UID3DX11EffectClassInstanceVariable@@@D3DX11Effects@@UEAAPEAUID3DX11EffectScalarVariable@@XZ 0000000180047730 f i effects11:EffectReflection.obj
 0001:00046740       ?AsVector@?$TEffectInvalidVariable@UID3DX11EffectClassInstanceVariable@@@D3DX11Effects@@UEAAPEAUID3DX11EffectVectorVariable@@XZ 0000000180047740 f i effects11:EffectReflection.obj
 0001:00046750       ?AsMatrix@?$TEffectInvalidVariable@UID3DX11EffectClassInstanceVariable@@@D3DX11Effects@@UEAAPEAUID3DX11EffectMatrixVariable@@XZ 0000000180047750 f i effects11:EffectReflection.obj
 0001:00046760       ?AsString@?$TEffectInvalidVariable@UID3DX11EffectClassInstanceVariable@@@D3DX11Effects@@UEAAPEAUID3DX11EffectStringVariable@@XZ 0000000180047760 f i effects11:EffectReflection.obj
 0001:00046770       ?AsClassInstance@?$TEffectInvalidVariable@UID3DX11EffectClassInstanceVariable@@@D3DX11Effects@@UEAAPEAUID3DX11EffectClassInstanceVariable@@XZ 0000000180047770 f i effects11:EffectReflection.obj
 0001:00046780       ?AsInterface@?$TEffectInvalidVariable@UID3DX11EffectClassInstanceVariable@@@D3DX11Effects@@UEAAPEAUID3DX11EffectInterfaceVariable@@XZ 0000000180047780 f i effects11:EffectReflection.obj
 0001:00046790       ?AsShaderResource@?$TEffectInvalidVariable@UID3DX11EffectClassInstanceVariable@@@D3DX11Effects@@UEAAPEAUID3DX11EffectShaderResourceVariable@@XZ 0000000180047790 f i effects11:EffectReflection.obj
 0001:000467a0       ?AsUnorderedAccessView@?$TEffectInvalidVariable@UID3DX11EffectClassInstanceVariable@@@D3DX11Effects@@UEAAPEAUID3DX11EffectUnorderedAccessViewVariable@@XZ 00000001800477a0 f i effects11:EffectReflection.obj
 0001:000467b0       ?AsRenderTargetView@?$TEffectInvalidVariable@UID3DX11EffectClassInstanceVariable@@@D3DX11Effects@@UEAAPEAUID3DX11EffectRenderTargetViewVariable@@XZ 00000001800477b0 f i effects11:EffectReflection.obj
 0001:000467c0       ?AsDepthStencilView@?$TEffectInvalidVariable@UID3DX11EffectClassInstanceVariable@@@D3DX11Effects@@UEAAPEAUID3DX11EffectDepthStencilViewVariable@@XZ 00000001800477c0 f i effects11:EffectReflection.obj
 0001:000467d0       ?AsConstantBuffer@?$TEffectInvalidVariable@UID3DX11EffectClassInstanceVariable@@@D3DX11Effects@@UEAAPEAUID3DX11EffectConstantBuffer@@XZ 00000001800477d0 f i effects11:EffectReflection.obj
 0001:000467e0       ?AsShader@?$TEffectInvalidVariable@UID3DX11EffectClassInstanceVariable@@@D3DX11Effects@@UEAAPEAUID3DX11EffectShaderVariable@@XZ 00000001800477e0 f i effects11:EffectReflection.obj
 0001:000467f0       ?AsBlend@?$TEffectInvalidVariable@UID3DX11EffectClassInstanceVariable@@@D3DX11Effects@@UEAAPEAUID3DX11EffectBlendVariable@@XZ 00000001800477f0 f i effects11:EffectReflection.obj
 0001:00046800       ?AsDepthStencil@?$TEffectInvalidVariable@UID3DX11EffectClassInstanceVariable@@@D3DX11Effects@@UEAAPEAUID3DX11EffectDepthStencilVariable@@XZ 0000000180047800 f i effects11:EffectReflection.obj
 0001:00046810       ?AsRasterizer@?$TEffectInvalidVariable@UID3DX11EffectClassInstanceVariable@@@D3DX11Effects@@UEAAPEAUID3DX11EffectRasterizerVariable@@XZ 0000000180047810 f i effects11:EffectReflection.obj
 0001:00046820       ?AsSampler@?$TEffectInvalidVariable@UID3DX11EffectClassInstanceVariable@@@D3DX11Effects@@UEAAPEAUID3DX11EffectSamplerVariable@@XZ 0000000180047820 f i effects11:EffectReflection.obj
 0001:00046830       ?SetRawValue@?$TEffectInvalidVariable@UID3DX11EffectClassInstanceVariable@@@D3DX11Effects@@UEAAJPEBXII@Z 0000000180047830 f i effects11:EffectReflection.obj
 0001:00046840       ?GetRawValue@?$TEffectInvalidVariable@UID3DX11EffectClassInstanceVariable@@@D3DX11Effects@@UEAAJPEAXII@Z 0000000180047840 f i effects11:EffectReflection.obj
 0001:00046850       ??0?$TEffectInvalidVariable@UID3DX11EffectInterfaceVariable@@@D3DX11Effects@@QEAA@XZ 0000000180047850 f i effects11:EffectReflection.obj
 0001:00046860       ?IsValid@?$TEffectInvalidVariable@UID3DX11EffectInterfaceVariable@@@D3DX11Effects@@UEAAHXZ 0000000180047860 f i effects11:EffectReflection.obj
 0001:00046870       ?GetType@?$TEffectInvalidVariable@UID3DX11EffectInterfaceVariable@@@D3DX11Effects@@UEAAPEAUID3DX11EffectType@@XZ 0000000180047870 f i effects11:EffectReflection.obj
 0001:00046880       ?GetDesc@?$TEffectInvalidVariable@UID3DX11EffectInterfaceVariable@@@D3DX11Effects@@UEAAJPEAU_D3DX11_EFFECT_VARIABLE_DESC@@@Z 0000000180047880 f i effects11:EffectReflection.obj
 0001:00046890       ?GetAnnotationByIndex@?$TEffectInvalidVariable@UID3DX11EffectInterfaceVariable@@@D3DX11Effects@@UEAAPEAUID3DX11EffectVariable@@I@Z 0000000180047890 f i effects11:EffectReflection.obj
 0001:000468a0       ?GetAnnotationByName@?$TEffectInvalidVariable@UID3DX11EffectInterfaceVariable@@@D3DX11Effects@@UEAAPEAUID3DX11EffectVariable@@PEBD@Z 00000001800478a0 f i effects11:EffectReflection.obj
 0001:000468b0       ?GetMemberByIndex@?$TEffectInvalidVariable@UID3DX11EffectInterfaceVariable@@@D3DX11Effects@@UEAAPEAUID3DX11EffectVariable@@I@Z 00000001800478b0 f i effects11:EffectReflection.obj
 0001:000468c0       ?GetMemberByName@?$TEffectInvalidVariable@UID3DX11EffectInterfaceVariable@@@D3DX11Effects@@UEAAPEAUID3DX11EffectVariable@@PEBD@Z 00000001800478c0 f i effects11:EffectReflection.obj
 0001:000468d0       ?GetMemberBySemantic@?$TEffectInvalidVariable@UID3DX11EffectInterfaceVariable@@@D3DX11Effects@@UEAAPEAUID3DX11EffectVariable@@PEBD@Z 00000001800478d0 f i effects11:EffectReflection.obj
 0001:000468e0       ?GetElement@?$TEffectInvalidVariable@UID3DX11EffectInterfaceVariable@@@D3DX11Effects@@UEAAPEAUID3DX11EffectVariable@@I@Z 00000001800478e0 f i effects11:EffectReflection.obj
 0001:000468f0       ?GetParentConstantBuffer@?$TEffectInvalidVariable@UID3DX11EffectInterfaceVariable@@@D3DX11Effects@@UEAAPEAUID3DX11EffectConstantBuffer@@XZ 00000001800478f0 f i effects11:EffectReflection.obj
 0001:00046900       ?AsScalar@?$TEffectInvalidVariable@UID3DX11EffectInterfaceVariable@@@D3DX11Effects@@UEAAPEAUID3DX11EffectScalarVariable@@XZ 0000000180047900 f i effects11:EffectReflection.obj
 0001:00046910       ?AsVector@?$TEffectInvalidVariable@UID3DX11EffectInterfaceVariable@@@D3DX11Effects@@UEAAPEAUID3DX11EffectVectorVariable@@XZ 0000000180047910 f i effects11:EffectReflection.obj
 0001:00046920       ?AsMatrix@?$TEffectInvalidVariable@UID3DX11EffectInterfaceVariable@@@D3DX11Effects@@UEAAPEAUID3DX11EffectMatrixVariable@@XZ 0000000180047920 f i effects11:EffectReflection.obj
 0001:00046930       ?AsString@?$TEffectInvalidVariable@UID3DX11EffectInterfaceVariable@@@D3DX11Effects@@UEAAPEAUID3DX11EffectStringVariable@@XZ 0000000180047930 f i effects11:EffectReflection.obj
 0001:00046940       ?AsClassInstance@?$TEffectInvalidVariable@UID3DX11EffectInterfaceVariable@@@D3DX11Effects@@UEAAPEAUID3DX11EffectClassInstanceVariable@@XZ 0000000180047940 f i effects11:EffectReflection.obj
 0001:00046950       ?AsInterface@?$TEffectInvalidVariable@UID3DX11EffectInterfaceVariable@@@D3DX11Effects@@UEAAPEAUID3DX11EffectInterfaceVariable@@XZ 0000000180047950 f i effects11:EffectReflection.obj
 0001:00046960       ?AsShaderResource@?$TEffectInvalidVariable@UID3DX11EffectInterfaceVariable@@@D3DX11Effects@@UEAAPEAUID3DX11EffectShaderResourceVariable@@XZ 0000000180047960 f i effects11:EffectReflection.obj
 0001:00046970       ?AsUnorderedAccessView@?$TEffectInvalidVariable@UID3DX11EffectInterfaceVariable@@@D3DX11Effects@@UEAAPEAUID3DX11EffectUnorderedAccessViewVariable@@XZ 0000000180047970 f i effects11:EffectReflection.obj
 0001:00046980       ?AsRenderTargetView@?$TEffectInvalidVariable@UID3DX11EffectInterfaceVariable@@@D3DX11Effects@@UEAAPEAUID3DX11EffectRenderTargetViewVariable@@XZ 0000000180047980 f i effects11:EffectReflection.obj
 0001:00046990       ?AsDepthStencilView@?$TEffectInvalidVariable@UID3DX11EffectInterfaceVariable@@@D3DX11Effects@@UEAAPEAUID3DX11EffectDepthStencilViewVariable@@XZ 0000000180047990 f i effects11:EffectReflection.obj
 0001:000469a0       ?AsConstantBuffer@?$TEffectInvalidVariable@UID3DX11EffectInterfaceVariable@@@D3DX11Effects@@UEAAPEAUID3DX11EffectConstantBuffer@@XZ 00000001800479a0 f i effects11:EffectReflection.obj
 0001:000469b0       ?AsShader@?$TEffectInvalidVariable@UID3DX11EffectInterfaceVariable@@@D3DX11Effects@@UEAAPEAUID3DX11EffectShaderVariable@@XZ 00000001800479b0 f i effects11:EffectReflection.obj
 0001:000469c0       ?AsBlend@?$TEffectInvalidVariable@UID3DX11EffectInterfaceVariable@@@D3DX11Effects@@UEAAPEAUID3DX11EffectBlendVariable@@XZ 00000001800479c0 f i effects11:EffectReflection.obj
 0001:000469d0       ?AsDepthStencil@?$TEffectInvalidVariable@UID3DX11EffectInterfaceVariable@@@D3DX11Effects@@UEAAPEAUID3DX11EffectDepthStencilVariable@@XZ 00000001800479d0 f i effects11:EffectReflection.obj
 0001:000469e0       ?AsRasterizer@?$TEffectInvalidVariable@UID3DX11EffectInterfaceVariable@@@D3DX11Effects@@UEAAPEAUID3DX11EffectRasterizerVariable@@XZ 00000001800479e0 f i effects11:EffectReflection.obj
 0001:000469f0       ?AsSampler@?$TEffectInvalidVariable@UID3DX11EffectInterfaceVariable@@@D3DX11Effects@@UEAAPEAUID3DX11EffectSamplerVariable@@XZ 00000001800479f0 f i effects11:EffectReflection.obj
 0001:00046a00       ?SetRawValue@?$TEffectInvalidVariable@UID3DX11EffectInterfaceVariable@@@D3DX11Effects@@UEAAJPEBXII@Z 0000000180047a00 f i effects11:EffectReflection.obj
 0001:00046a10       ?GetRawValue@?$TEffectInvalidVariable@UID3DX11EffectInterfaceVariable@@@D3DX11Effects@@UEAAJPEAXII@Z 0000000180047a10 f i effects11:EffectReflection.obj
 0001:00046a20       ??0?$TEffectInvalidVariable@UID3DX11EffectShaderResourceVariable@@@D3DX11Effects@@QEAA@XZ 0000000180047a20 f i effects11:EffectReflection.obj
 0001:00046a30       ?IsValid@?$TEffectInvalidVariable@UID3DX11EffectShaderResourceVariable@@@D3DX11Effects@@UEAAHXZ 0000000180047a30 f i effects11:EffectReflection.obj
 0001:00046a40       ?GetType@?$TEffectInvalidVariable@UID3DX11EffectShaderResourceVariable@@@D3DX11Effects@@UEAAPEAUID3DX11EffectType@@XZ 0000000180047a40 f i effects11:EffectReflection.obj
 0001:00046a50       ?GetDesc@?$TEffectInvalidVariable@UID3DX11EffectShaderResourceVariable@@@D3DX11Effects@@UEAAJPEAU_D3DX11_EFFECT_VARIABLE_DESC@@@Z 0000000180047a50 f i effects11:EffectReflection.obj
 0001:00046a60       ?GetAnnotationByIndex@?$TEffectInvalidVariable@UID3DX11EffectShaderResourceVariable@@@D3DX11Effects@@UEAAPEAUID3DX11EffectVariable@@I@Z 0000000180047a60 f i effects11:EffectReflection.obj
 0001:00046a70       ?GetAnnotationByName@?$TEffectInvalidVariable@UID3DX11EffectShaderResourceVariable@@@D3DX11Effects@@UEAAPEAUID3DX11EffectVariable@@PEBD@Z 0000000180047a70 f i effects11:EffectReflection.obj
 0001:00046a80       ?GetMemberByIndex@?$TEffectInvalidVariable@UID3DX11EffectShaderResourceVariable@@@D3DX11Effects@@UEAAPEAUID3DX11EffectVariable@@I@Z 0000000180047a80 f i effects11:EffectReflection.obj
 0001:00046a90       ?GetMemberByName@?$TEffectInvalidVariable@UID3DX11EffectShaderResourceVariable@@@D3DX11Effects@@UEAAPEAUID3DX11EffectVariable@@PEBD@Z 0000000180047a90 f i effects11:EffectReflection.obj
 0001:00046aa0       ?GetMemberBySemantic@?$TEffectInvalidVariable@UID3DX11EffectShaderResourceVariable@@@D3DX11Effects@@UEAAPEAUID3DX11EffectVariable@@PEBD@Z 0000000180047aa0 f i effects11:EffectReflection.obj
 0001:00046ab0       ?GetElement@?$TEffectInvalidVariable@UID3DX11EffectShaderResourceVariable@@@D3DX11Effects@@UEAAPEAUID3DX11EffectVariable@@I@Z 0000000180047ab0 f i effects11:EffectReflection.obj
 0001:00046ac0       ?GetParentConstantBuffer@?$TEffectInvalidVariable@UID3DX11EffectShaderResourceVariable@@@D3DX11Effects@@UEAAPEAUID3DX11EffectConstantBuffer@@XZ 0000000180047ac0 f i effects11:EffectReflection.obj
 0001:00046ad0       ?AsScalar@?$TEffectInvalidVariable@UID3DX11EffectShaderResourceVariable@@@D3DX11Effects@@UEAAPEAUID3DX11EffectScalarVariable@@XZ 0000000180047ad0 f i effects11:EffectReflection.obj
 0001:00046ae0       ?AsVector@?$TEffectInvalidVariable@UID3DX11EffectShaderResourceVariable@@@D3DX11Effects@@UEAAPEAUID3DX11EffectVectorVariable@@XZ 0000000180047ae0 f i effects11:EffectReflection.obj
 0001:00046af0       ?AsMatrix@?$TEffectInvalidVariable@UID3DX11EffectShaderResourceVariable@@@D3DX11Effects@@UEAAPEAUID3DX11EffectMatrixVariable@@XZ 0000000180047af0 f i effects11:EffectReflection.obj
 0001:00046b00       ?AsString@?$TEffectInvalidVariable@UID3DX11EffectShaderResourceVariable@@@D3DX11Effects@@UEAAPEAUID3DX11EffectStringVariable@@XZ 0000000180047b00 f i effects11:EffectReflection.obj
 0001:00046b10       ?AsClassInstance@?$TEffectInvalidVariable@UID3DX11EffectShaderResourceVariable@@@D3DX11Effects@@UEAAPEAUID3DX11EffectClassInstanceVariable@@XZ 0000000180047b10 f i effects11:EffectReflection.obj
 0001:00046b20       ?AsInterface@?$TEffectInvalidVariable@UID3DX11EffectShaderResourceVariable@@@D3DX11Effects@@UEAAPEAUID3DX11EffectInterfaceVariable@@XZ 0000000180047b20 f i effects11:EffectReflection.obj
 0001:00046b30       ?AsShaderResource@?$TEffectInvalidVariable@UID3DX11EffectShaderResourceVariable@@@D3DX11Effects@@UEAAPEAUID3DX11EffectShaderResourceVariable@@XZ 0000000180047b30 f i effects11:EffectReflection.obj
 0001:00046b40       ?AsUnorderedAccessView@?$TEffectInvalidVariable@UID3DX11EffectShaderResourceVariable@@@D3DX11Effects@@UEAAPEAUID3DX11EffectUnorderedAccessViewVariable@@XZ 0000000180047b40 f i effects11:EffectReflection.obj
 0001:00046b50       ?AsRenderTargetView@?$TEffectInvalidVariable@UID3DX11EffectShaderResourceVariable@@@D3DX11Effects@@UEAAPEAUID3DX11EffectRenderTargetViewVariable@@XZ 0000000180047b50 f i effects11:EffectReflection.obj
 0001:00046b60       ?AsDepthStencilView@?$TEffectInvalidVariable@UID3DX11EffectShaderResourceVariable@@@D3DX11Effects@@UEAAPEAUID3DX11EffectDepthStencilViewVariable@@XZ 0000000180047b60 f i effects11:EffectReflection.obj
 0001:00046b70       ?AsConstantBuffer@?$TEffectInvalidVariable@UID3DX11EffectShaderResourceVariable@@@D3DX11Effects@@UEAAPEAUID3DX11EffectConstantBuffer@@XZ 0000000180047b70 f i effects11:EffectReflection.obj
 0001:00046b80       ?AsShader@?$TEffectInvalidVariable@UID3DX11EffectShaderResourceVariable@@@D3DX11Effects@@UEAAPEAUID3DX11EffectShaderVariable@@XZ 0000000180047b80 f i effects11:EffectReflection.obj
 0001:00046b90       ?AsBlend@?$TEffectInvalidVariable@UID3DX11EffectShaderResourceVariable@@@D3DX11Effects@@UEAAPEAUID3DX11EffectBlendVariable@@XZ 0000000180047b90 f i effects11:EffectReflection.obj
 0001:00046ba0       ?AsDepthStencil@?$TEffectInvalidVariable@UID3DX11EffectShaderResourceVariable@@@D3DX11Effects@@UEAAPEAUID3DX11EffectDepthStencilVariable@@XZ 0000000180047ba0 f i effects11:EffectReflection.obj
 0001:00046bb0       ?AsRasterizer@?$TEffectInvalidVariable@UID3DX11EffectShaderResourceVariable@@@D3DX11Effects@@UEAAPEAUID3DX11EffectRasterizerVariable@@XZ 0000000180047bb0 f i effects11:EffectReflection.obj
 0001:00046bc0       ?AsSampler@?$TEffectInvalidVariable@UID3DX11EffectShaderResourceVariable@@@D3DX11Effects@@UEAAPEAUID3DX11EffectSamplerVariable@@XZ 0000000180047bc0 f i effects11:EffectReflection.obj
 0001:00046bd0       ?SetRawValue@?$TEffectInvalidVariable@UID3DX11EffectShaderResourceVariable@@@D3DX11Effects@@UEAAJPEBXII@Z 0000000180047bd0 f i effects11:EffectReflection.obj
 0001:00046be0       ?GetRawValue@?$TEffectInvalidVariable@UID3DX11EffectShaderResourceVariable@@@D3DX11Effects@@UEAAJPEAXII@Z 0000000180047be0 f i effects11:EffectReflection.obj
 0001:00046bf0       ??0?$TEffectInvalidVariable@UID3DX11EffectUnorderedAccessViewVariable@@@D3DX11Effects@@QEAA@XZ 0000000180047bf0 f i effects11:EffectReflection.obj
 0001:00046c00       ?IsValid@?$TEffectInvalidVariable@UID3DX11EffectUnorderedAccessViewVariable@@@D3DX11Effects@@UEAAHXZ 0000000180047c00 f i effects11:EffectReflection.obj
 0001:00046c10       ?GetType@?$TEffectInvalidVariable@UID3DX11EffectUnorderedAccessViewVariable@@@D3DX11Effects@@UEAAPEAUID3DX11EffectType@@XZ 0000000180047c10 f i effects11:EffectReflection.obj
 0001:00046c20       ?GetDesc@?$TEffectInvalidVariable@UID3DX11EffectUnorderedAccessViewVariable@@@D3DX11Effects@@UEAAJPEAU_D3DX11_EFFECT_VARIABLE_DESC@@@Z 0000000180047c20 f i effects11:EffectReflection.obj
 0001:00046c30       ?GetAnnotationByIndex@?$TEffectInvalidVariable@UID3DX11EffectUnorderedAccessViewVariable@@@D3DX11Effects@@UEAAPEAUID3DX11EffectVariable@@I@Z 0000000180047c30 f i effects11:EffectReflection.obj
 0001:00046c40       ?GetAnnotationByName@?$TEffectInvalidVariable@UID3DX11EffectUnorderedAccessViewVariable@@@D3DX11Effects@@UEAAPEAUID3DX11EffectVariable@@PEBD@Z 0000000180047c40 f i effects11:EffectReflection.obj
 0001:00046c50       ?GetMemberByIndex@?$TEffectInvalidVariable@UID3DX11EffectUnorderedAccessViewVariable@@@D3DX11Effects@@UEAAPEAUID3DX11EffectVariable@@I@Z 0000000180047c50 f i effects11:EffectReflection.obj
 0001:00046c60       ?GetMemberByName@?$TEffectInvalidVariable@UID3DX11EffectUnorderedAccessViewVariable@@@D3DX11Effects@@UEAAPEAUID3DX11EffectVariable@@PEBD@Z 0000000180047c60 f i effects11:EffectReflection.obj
 0001:00046c70       ?GetMemberBySemantic@?$TEffectInvalidVariable@UID3DX11EffectUnorderedAccessViewVariable@@@D3DX11Effects@@UEAAPEAUID3DX11EffectVariable@@PEBD@Z 0000000180047c70 f i effects11:EffectReflection.obj
 0001:00046c80       ?GetElement@?$TEffectInvalidVariable@UID3DX11EffectUnorderedAccessViewVariable@@@D3DX11Effects@@UEAAPEAUID3DX11EffectVariable@@I@Z 0000000180047c80 f i effects11:EffectReflection.obj
 0001:00046c90       ?GetParentConstantBuffer@?$TEffectInvalidVariable@UID3DX11EffectUnorderedAccessViewVariable@@@D3DX11Effects@@UEAAPEAUID3DX11EffectConstantBuffer@@XZ 0000000180047c90 f i effects11:EffectReflection.obj
